ARM GAS  C:\Users\Kaa\AppData\Local\Temp\ccSmGFpc.s 			page 1


   1              		.cpu cortex-m3
   2              		.eabi_attribute 20, 1
   3              		.eabi_attribute 21, 1
   4              		.eabi_attribute 23, 3
   5              		.eabi_attribute 24, 1
   6              		.eabi_attribute 25, 1
   7              		.eabi_attribute 26, 1
   8              		.eabi_attribute 30, 1
   9              		.eabi_attribute 34, 1
  10              		.eabi_attribute 18, 4
  11              		.file	"usbd_msc.c"
  12              		.text
  13              	.Ltext0:
  14              		.cfi_sections	.debug_frame
  15              		.section	.text.USBD_MSC_GetHSCfgDesc,"ax",%progbits
  16              		.align	1
  17              		.global	USBD_MSC_GetHSCfgDesc
  18              		.arch armv7-m
  19              		.syntax unified
  20              		.thumb
  21              		.thumb_func
  22              		.fpu softvfp
  24              	USBD_MSC_GetHSCfgDesc:
  25              	.LVL0:
  26              	.LFB406:
  27              		.file 1 "Middlewares/ST/STM32_USB_Device_Library/Class/MSC/Src/usbd_msc.c"
   1:Middlewares/ST/STM32_USB_Device_Library/Class/MSC/Src/usbd_msc.c **** /**
   2:Middlewares/ST/STM32_USB_Device_Library/Class/MSC/Src/usbd_msc.c ****   ******************************************************************************
   3:Middlewares/ST/STM32_USB_Device_Library/Class/MSC/Src/usbd_msc.c ****   * @file    usbd_msc.c
   4:Middlewares/ST/STM32_USB_Device_Library/Class/MSC/Src/usbd_msc.c ****   * @author  MCD Application Team
   5:Middlewares/ST/STM32_USB_Device_Library/Class/MSC/Src/usbd_msc.c ****   * @brief   This file provides all the MSC core functions.
   6:Middlewares/ST/STM32_USB_Device_Library/Class/MSC/Src/usbd_msc.c ****   *
   7:Middlewares/ST/STM32_USB_Device_Library/Class/MSC/Src/usbd_msc.c ****   * @verbatim
   8:Middlewares/ST/STM32_USB_Device_Library/Class/MSC/Src/usbd_msc.c ****   *
   9:Middlewares/ST/STM32_USB_Device_Library/Class/MSC/Src/usbd_msc.c ****   *          ===================================================================
  10:Middlewares/ST/STM32_USB_Device_Library/Class/MSC/Src/usbd_msc.c ****   *                                MSC Class  Description
  11:Middlewares/ST/STM32_USB_Device_Library/Class/MSC/Src/usbd_msc.c ****   *          ===================================================================
  12:Middlewares/ST/STM32_USB_Device_Library/Class/MSC/Src/usbd_msc.c ****   *           This module manages the MSC class V1.0 following the "Universal
  13:Middlewares/ST/STM32_USB_Device_Library/Class/MSC/Src/usbd_msc.c ****   *           Serial Bus Mass Storage Class (MSC) Bulk-Only Transport (BOT) Version 1.0
  14:Middlewares/ST/STM32_USB_Device_Library/Class/MSC/Src/usbd_msc.c ****   *           Sep. 31, 1999".
  15:Middlewares/ST/STM32_USB_Device_Library/Class/MSC/Src/usbd_msc.c ****   *           This driver implements the following aspects of the specification:
  16:Middlewares/ST/STM32_USB_Device_Library/Class/MSC/Src/usbd_msc.c ****   *             - Bulk-Only Transport protocol
  17:Middlewares/ST/STM32_USB_Device_Library/Class/MSC/Src/usbd_msc.c ****   *             - Subclass : SCSI transparent command set (ref. SCSI Primary Commands - 3 (SPC-3))
  18:Middlewares/ST/STM32_USB_Device_Library/Class/MSC/Src/usbd_msc.c ****   *
  19:Middlewares/ST/STM32_USB_Device_Library/Class/MSC/Src/usbd_msc.c ****   *  @endverbatim
  20:Middlewares/ST/STM32_USB_Device_Library/Class/MSC/Src/usbd_msc.c ****   *
  21:Middlewares/ST/STM32_USB_Device_Library/Class/MSC/Src/usbd_msc.c ****   ******************************************************************************
  22:Middlewares/ST/STM32_USB_Device_Library/Class/MSC/Src/usbd_msc.c ****   * @attention
  23:Middlewares/ST/STM32_USB_Device_Library/Class/MSC/Src/usbd_msc.c ****   *
  24:Middlewares/ST/STM32_USB_Device_Library/Class/MSC/Src/usbd_msc.c ****   * <h2><center>&copy; Copyright (c) 2015 STMicroelectronics.
  25:Middlewares/ST/STM32_USB_Device_Library/Class/MSC/Src/usbd_msc.c ****   * All rights reserved.</center></h2>
  26:Middlewares/ST/STM32_USB_Device_Library/Class/MSC/Src/usbd_msc.c ****   *
  27:Middlewares/ST/STM32_USB_Device_Library/Class/MSC/Src/usbd_msc.c ****   * This software component is licensed by ST under Ultimate Liberty license
  28:Middlewares/ST/STM32_USB_Device_Library/Class/MSC/Src/usbd_msc.c ****   * SLA0044, the "License"; You may not use this file except in compliance with
  29:Middlewares/ST/STM32_USB_Device_Library/Class/MSC/Src/usbd_msc.c ****   * the License. You may obtain a copy of the License at:
  30:Middlewares/ST/STM32_USB_Device_Library/Class/MSC/Src/usbd_msc.c ****   *                      www.st.com/SLA0044
  31:Middlewares/ST/STM32_USB_Device_Library/Class/MSC/Src/usbd_msc.c ****   *
ARM GAS  C:\Users\Kaa\AppData\Local\Temp\ccSmGFpc.s 			page 2


  32:Middlewares/ST/STM32_USB_Device_Library/Class/MSC/Src/usbd_msc.c ****   ******************************************************************************
  33:Middlewares/ST/STM32_USB_Device_Library/Class/MSC/Src/usbd_msc.c ****   */
  34:Middlewares/ST/STM32_USB_Device_Library/Class/MSC/Src/usbd_msc.c **** 
  35:Middlewares/ST/STM32_USB_Device_Library/Class/MSC/Src/usbd_msc.c **** /* BSPDependencies
  36:Middlewares/ST/STM32_USB_Device_Library/Class/MSC/Src/usbd_msc.c **** - "stm32xxxxx_{eval}{discovery}{nucleo_144}.c"
  37:Middlewares/ST/STM32_USB_Device_Library/Class/MSC/Src/usbd_msc.c **** - "stm32xxxxx_{eval}{discovery}_io.c"
  38:Middlewares/ST/STM32_USB_Device_Library/Class/MSC/Src/usbd_msc.c **** - "stm32xxxxx_{eval}{discovery}{adafruit}_sd.c"
  39:Middlewares/ST/STM32_USB_Device_Library/Class/MSC/Src/usbd_msc.c **** EndBSPDependencies */
  40:Middlewares/ST/STM32_USB_Device_Library/Class/MSC/Src/usbd_msc.c **** 
  41:Middlewares/ST/STM32_USB_Device_Library/Class/MSC/Src/usbd_msc.c **** /* Includes ------------------------------------------------------------------*/
  42:Middlewares/ST/STM32_USB_Device_Library/Class/MSC/Src/usbd_msc.c **** #include "usbd_msc.h"
  43:Middlewares/ST/STM32_USB_Device_Library/Class/MSC/Src/usbd_msc.c **** 
  44:Middlewares/ST/STM32_USB_Device_Library/Class/MSC/Src/usbd_msc.c **** 
  45:Middlewares/ST/STM32_USB_Device_Library/Class/MSC/Src/usbd_msc.c **** /** @addtogroup STM32_USB_DEVICE_LIBRARY
  46:Middlewares/ST/STM32_USB_Device_Library/Class/MSC/Src/usbd_msc.c ****   * @{
  47:Middlewares/ST/STM32_USB_Device_Library/Class/MSC/Src/usbd_msc.c ****   */
  48:Middlewares/ST/STM32_USB_Device_Library/Class/MSC/Src/usbd_msc.c **** 
  49:Middlewares/ST/STM32_USB_Device_Library/Class/MSC/Src/usbd_msc.c **** 
  50:Middlewares/ST/STM32_USB_Device_Library/Class/MSC/Src/usbd_msc.c **** /** @defgroup MSC_CORE
  51:Middlewares/ST/STM32_USB_Device_Library/Class/MSC/Src/usbd_msc.c ****   * @brief Mass storage core module
  52:Middlewares/ST/STM32_USB_Device_Library/Class/MSC/Src/usbd_msc.c ****   * @{
  53:Middlewares/ST/STM32_USB_Device_Library/Class/MSC/Src/usbd_msc.c ****   */
  54:Middlewares/ST/STM32_USB_Device_Library/Class/MSC/Src/usbd_msc.c **** 
  55:Middlewares/ST/STM32_USB_Device_Library/Class/MSC/Src/usbd_msc.c **** /** @defgroup MSC_CORE_Private_TypesDefinitions
  56:Middlewares/ST/STM32_USB_Device_Library/Class/MSC/Src/usbd_msc.c ****   * @{
  57:Middlewares/ST/STM32_USB_Device_Library/Class/MSC/Src/usbd_msc.c ****   */
  58:Middlewares/ST/STM32_USB_Device_Library/Class/MSC/Src/usbd_msc.c **** /**
  59:Middlewares/ST/STM32_USB_Device_Library/Class/MSC/Src/usbd_msc.c ****   * @}
  60:Middlewares/ST/STM32_USB_Device_Library/Class/MSC/Src/usbd_msc.c ****   */
  61:Middlewares/ST/STM32_USB_Device_Library/Class/MSC/Src/usbd_msc.c **** 
  62:Middlewares/ST/STM32_USB_Device_Library/Class/MSC/Src/usbd_msc.c **** 
  63:Middlewares/ST/STM32_USB_Device_Library/Class/MSC/Src/usbd_msc.c **** /** @defgroup MSC_CORE_Private_Defines
  64:Middlewares/ST/STM32_USB_Device_Library/Class/MSC/Src/usbd_msc.c ****   * @{
  65:Middlewares/ST/STM32_USB_Device_Library/Class/MSC/Src/usbd_msc.c ****   */
  66:Middlewares/ST/STM32_USB_Device_Library/Class/MSC/Src/usbd_msc.c **** 
  67:Middlewares/ST/STM32_USB_Device_Library/Class/MSC/Src/usbd_msc.c **** /**
  68:Middlewares/ST/STM32_USB_Device_Library/Class/MSC/Src/usbd_msc.c ****   * @}
  69:Middlewares/ST/STM32_USB_Device_Library/Class/MSC/Src/usbd_msc.c ****   */
  70:Middlewares/ST/STM32_USB_Device_Library/Class/MSC/Src/usbd_msc.c **** 
  71:Middlewares/ST/STM32_USB_Device_Library/Class/MSC/Src/usbd_msc.c **** 
  72:Middlewares/ST/STM32_USB_Device_Library/Class/MSC/Src/usbd_msc.c **** /** @defgroup MSC_CORE_Private_Macros
  73:Middlewares/ST/STM32_USB_Device_Library/Class/MSC/Src/usbd_msc.c ****   * @{
  74:Middlewares/ST/STM32_USB_Device_Library/Class/MSC/Src/usbd_msc.c ****   */
  75:Middlewares/ST/STM32_USB_Device_Library/Class/MSC/Src/usbd_msc.c **** /**
  76:Middlewares/ST/STM32_USB_Device_Library/Class/MSC/Src/usbd_msc.c ****   * @}
  77:Middlewares/ST/STM32_USB_Device_Library/Class/MSC/Src/usbd_msc.c ****   */
  78:Middlewares/ST/STM32_USB_Device_Library/Class/MSC/Src/usbd_msc.c **** 
  79:Middlewares/ST/STM32_USB_Device_Library/Class/MSC/Src/usbd_msc.c **** 
  80:Middlewares/ST/STM32_USB_Device_Library/Class/MSC/Src/usbd_msc.c **** /** @defgroup MSC_CORE_Private_FunctionPrototypes
  81:Middlewares/ST/STM32_USB_Device_Library/Class/MSC/Src/usbd_msc.c ****   * @{
  82:Middlewares/ST/STM32_USB_Device_Library/Class/MSC/Src/usbd_msc.c ****   */
  83:Middlewares/ST/STM32_USB_Device_Library/Class/MSC/Src/usbd_msc.c **** uint8_t  USBD_MSC_Init(USBD_HandleTypeDef *pdev, uint8_t cfgidx);
  84:Middlewares/ST/STM32_USB_Device_Library/Class/MSC/Src/usbd_msc.c **** uint8_t  USBD_MSC_DeInit(USBD_HandleTypeDef *pdev, uint8_t cfgidx);
  85:Middlewares/ST/STM32_USB_Device_Library/Class/MSC/Src/usbd_msc.c **** uint8_t  USBD_MSC_Setup(USBD_HandleTypeDef *pdev, USBD_SetupReqTypedef *req);
  86:Middlewares/ST/STM32_USB_Device_Library/Class/MSC/Src/usbd_msc.c **** uint8_t  USBD_MSC_DataIn(USBD_HandleTypeDef *pdev, uint8_t epnum);
  87:Middlewares/ST/STM32_USB_Device_Library/Class/MSC/Src/usbd_msc.c **** uint8_t  USBD_MSC_DataOut(USBD_HandleTypeDef *pdev, uint8_t epnum);
  88:Middlewares/ST/STM32_USB_Device_Library/Class/MSC/Src/usbd_msc.c **** 
ARM GAS  C:\Users\Kaa\AppData\Local\Temp\ccSmGFpc.s 			page 3


  89:Middlewares/ST/STM32_USB_Device_Library/Class/MSC/Src/usbd_msc.c **** uint8_t  *USBD_MSC_GetHSCfgDesc(uint16_t *length);
  90:Middlewares/ST/STM32_USB_Device_Library/Class/MSC/Src/usbd_msc.c **** uint8_t  *USBD_MSC_GetFSCfgDesc(uint16_t *length);
  91:Middlewares/ST/STM32_USB_Device_Library/Class/MSC/Src/usbd_msc.c **** uint8_t  *USBD_MSC_GetOtherSpeedCfgDesc(uint16_t *length);
  92:Middlewares/ST/STM32_USB_Device_Library/Class/MSC/Src/usbd_msc.c **** uint8_t  *USBD_MSC_GetDeviceQualifierDescriptor(uint16_t *length);
  93:Middlewares/ST/STM32_USB_Device_Library/Class/MSC/Src/usbd_msc.c **** 
  94:Middlewares/ST/STM32_USB_Device_Library/Class/MSC/Src/usbd_msc.c **** /**
  95:Middlewares/ST/STM32_USB_Device_Library/Class/MSC/Src/usbd_msc.c ****   * @}
  96:Middlewares/ST/STM32_USB_Device_Library/Class/MSC/Src/usbd_msc.c ****   */
  97:Middlewares/ST/STM32_USB_Device_Library/Class/MSC/Src/usbd_msc.c **** 
  98:Middlewares/ST/STM32_USB_Device_Library/Class/MSC/Src/usbd_msc.c **** 
  99:Middlewares/ST/STM32_USB_Device_Library/Class/MSC/Src/usbd_msc.c **** /** @defgroup MSC_CORE_Private_Variables
 100:Middlewares/ST/STM32_USB_Device_Library/Class/MSC/Src/usbd_msc.c ****   * @{
 101:Middlewares/ST/STM32_USB_Device_Library/Class/MSC/Src/usbd_msc.c ****   */
 102:Middlewares/ST/STM32_USB_Device_Library/Class/MSC/Src/usbd_msc.c **** 
 103:Middlewares/ST/STM32_USB_Device_Library/Class/MSC/Src/usbd_msc.c **** 
 104:Middlewares/ST/STM32_USB_Device_Library/Class/MSC/Src/usbd_msc.c **** USBD_ClassTypeDef  USBD_MSC =
 105:Middlewares/ST/STM32_USB_Device_Library/Class/MSC/Src/usbd_msc.c **** {
 106:Middlewares/ST/STM32_USB_Device_Library/Class/MSC/Src/usbd_msc.c ****   USBD_MSC_Init,
 107:Middlewares/ST/STM32_USB_Device_Library/Class/MSC/Src/usbd_msc.c ****   USBD_MSC_DeInit,
 108:Middlewares/ST/STM32_USB_Device_Library/Class/MSC/Src/usbd_msc.c ****   USBD_MSC_Setup,
 109:Middlewares/ST/STM32_USB_Device_Library/Class/MSC/Src/usbd_msc.c ****   NULL, /*EP0_TxSent*/
 110:Middlewares/ST/STM32_USB_Device_Library/Class/MSC/Src/usbd_msc.c ****   NULL, /*EP0_RxReady*/
 111:Middlewares/ST/STM32_USB_Device_Library/Class/MSC/Src/usbd_msc.c ****   USBD_MSC_DataIn,
 112:Middlewares/ST/STM32_USB_Device_Library/Class/MSC/Src/usbd_msc.c ****   USBD_MSC_DataOut,
 113:Middlewares/ST/STM32_USB_Device_Library/Class/MSC/Src/usbd_msc.c ****   NULL, /*SOF */
 114:Middlewares/ST/STM32_USB_Device_Library/Class/MSC/Src/usbd_msc.c ****   NULL,
 115:Middlewares/ST/STM32_USB_Device_Library/Class/MSC/Src/usbd_msc.c ****   NULL,
 116:Middlewares/ST/STM32_USB_Device_Library/Class/MSC/Src/usbd_msc.c ****   USBD_MSC_GetHSCfgDesc,
 117:Middlewares/ST/STM32_USB_Device_Library/Class/MSC/Src/usbd_msc.c ****   USBD_MSC_GetFSCfgDesc,
 118:Middlewares/ST/STM32_USB_Device_Library/Class/MSC/Src/usbd_msc.c ****   USBD_MSC_GetOtherSpeedCfgDesc,
 119:Middlewares/ST/STM32_USB_Device_Library/Class/MSC/Src/usbd_msc.c ****   USBD_MSC_GetDeviceQualifierDescriptor,
 120:Middlewares/ST/STM32_USB_Device_Library/Class/MSC/Src/usbd_msc.c **** };
 121:Middlewares/ST/STM32_USB_Device_Library/Class/MSC/Src/usbd_msc.c **** 
 122:Middlewares/ST/STM32_USB_Device_Library/Class/MSC/Src/usbd_msc.c **** /* USB Mass storage device Configuration Descriptor */
 123:Middlewares/ST/STM32_USB_Device_Library/Class/MSC/Src/usbd_msc.c **** /*   All Descriptors (Configuration, Interface, Endpoint, Class, Vendor */
 124:Middlewares/ST/STM32_USB_Device_Library/Class/MSC/Src/usbd_msc.c **** __ALIGN_BEGIN uint8_t USBD_MSC_CfgHSDesc[USB_MSC_CONFIG_DESC_SIZ]  __ALIGN_END =
 125:Middlewares/ST/STM32_USB_Device_Library/Class/MSC/Src/usbd_msc.c **** {
 126:Middlewares/ST/STM32_USB_Device_Library/Class/MSC/Src/usbd_msc.c **** 
 127:Middlewares/ST/STM32_USB_Device_Library/Class/MSC/Src/usbd_msc.c ****   0x09,   /* bLength: Configuation Descriptor size */
 128:Middlewares/ST/STM32_USB_Device_Library/Class/MSC/Src/usbd_msc.c ****   USB_DESC_TYPE_CONFIGURATION,   /* bDescriptorType: Configuration */
 129:Middlewares/ST/STM32_USB_Device_Library/Class/MSC/Src/usbd_msc.c ****   USB_MSC_CONFIG_DESC_SIZ,
 130:Middlewares/ST/STM32_USB_Device_Library/Class/MSC/Src/usbd_msc.c **** 
 131:Middlewares/ST/STM32_USB_Device_Library/Class/MSC/Src/usbd_msc.c ****   0x00,
 132:Middlewares/ST/STM32_USB_Device_Library/Class/MSC/Src/usbd_msc.c ****   0x01,   /* bNumInterfaces: 1 interface */
 133:Middlewares/ST/STM32_USB_Device_Library/Class/MSC/Src/usbd_msc.c ****   0x01,   /* bConfigurationValue: */
 134:Middlewares/ST/STM32_USB_Device_Library/Class/MSC/Src/usbd_msc.c ****   0x04,   /* iConfiguration: */
 135:Middlewares/ST/STM32_USB_Device_Library/Class/MSC/Src/usbd_msc.c ****   0xC0,   /* bmAttributes: */
 136:Middlewares/ST/STM32_USB_Device_Library/Class/MSC/Src/usbd_msc.c ****   0x32,   /* MaxPower 100 mA */
 137:Middlewares/ST/STM32_USB_Device_Library/Class/MSC/Src/usbd_msc.c **** 
 138:Middlewares/ST/STM32_USB_Device_Library/Class/MSC/Src/usbd_msc.c ****   /********************  Mass Storage interface ********************/
 139:Middlewares/ST/STM32_USB_Device_Library/Class/MSC/Src/usbd_msc.c ****   0x09,   /* bLength: Interface Descriptor size */
 140:Middlewares/ST/STM32_USB_Device_Library/Class/MSC/Src/usbd_msc.c ****   0x04,   /* bDescriptorType: */
 141:Middlewares/ST/STM32_USB_Device_Library/Class/MSC/Src/usbd_msc.c ****   0x00,   /* bInterfaceNumber: Number of Interface */
 142:Middlewares/ST/STM32_USB_Device_Library/Class/MSC/Src/usbd_msc.c ****   0x00,   /* bAlternateSetting: Alternate setting */
 143:Middlewares/ST/STM32_USB_Device_Library/Class/MSC/Src/usbd_msc.c ****   0x02,   /* bNumEndpoints*/
 144:Middlewares/ST/STM32_USB_Device_Library/Class/MSC/Src/usbd_msc.c ****   0x08,   /* bInterfaceClass: MSC Class */
 145:Middlewares/ST/STM32_USB_Device_Library/Class/MSC/Src/usbd_msc.c ****   0x06,   /* bInterfaceSubClass : SCSI transparent*/
ARM GAS  C:\Users\Kaa\AppData\Local\Temp\ccSmGFpc.s 			page 4


 146:Middlewares/ST/STM32_USB_Device_Library/Class/MSC/Src/usbd_msc.c ****   0x50,   /* nInterfaceProtocol */
 147:Middlewares/ST/STM32_USB_Device_Library/Class/MSC/Src/usbd_msc.c ****   0x05,          /* iInterface: */
 148:Middlewares/ST/STM32_USB_Device_Library/Class/MSC/Src/usbd_msc.c ****   /********************  Mass Storage Endpoints ********************/
 149:Middlewares/ST/STM32_USB_Device_Library/Class/MSC/Src/usbd_msc.c ****   0x07,   /*Endpoint descriptor length = 7*/
 150:Middlewares/ST/STM32_USB_Device_Library/Class/MSC/Src/usbd_msc.c ****   0x05,   /*Endpoint descriptor type */
 151:Middlewares/ST/STM32_USB_Device_Library/Class/MSC/Src/usbd_msc.c ****   MSC_EPIN_ADDR,   /*Endpoint address (IN, address 1) */
 152:Middlewares/ST/STM32_USB_Device_Library/Class/MSC/Src/usbd_msc.c ****   0x02,   /*Bulk endpoint type */
 153:Middlewares/ST/STM32_USB_Device_Library/Class/MSC/Src/usbd_msc.c ****   LOBYTE(MSC_MAX_HS_PACKET),
 154:Middlewares/ST/STM32_USB_Device_Library/Class/MSC/Src/usbd_msc.c ****   HIBYTE(MSC_MAX_HS_PACKET),
 155:Middlewares/ST/STM32_USB_Device_Library/Class/MSC/Src/usbd_msc.c ****   0x00,   /*Polling interval in milliseconds */
 156:Middlewares/ST/STM32_USB_Device_Library/Class/MSC/Src/usbd_msc.c **** 
 157:Middlewares/ST/STM32_USB_Device_Library/Class/MSC/Src/usbd_msc.c ****   0x07,   /*Endpoint descriptor length = 7 */
 158:Middlewares/ST/STM32_USB_Device_Library/Class/MSC/Src/usbd_msc.c ****   0x05,   /*Endpoint descriptor type */
 159:Middlewares/ST/STM32_USB_Device_Library/Class/MSC/Src/usbd_msc.c ****   MSC_EPOUT_ADDR,   /*Endpoint address (OUT, address 1) */
 160:Middlewares/ST/STM32_USB_Device_Library/Class/MSC/Src/usbd_msc.c ****   0x02,   /*Bulk endpoint type */
 161:Middlewares/ST/STM32_USB_Device_Library/Class/MSC/Src/usbd_msc.c ****   LOBYTE(MSC_MAX_HS_PACKET),
 162:Middlewares/ST/STM32_USB_Device_Library/Class/MSC/Src/usbd_msc.c ****   HIBYTE(MSC_MAX_HS_PACKET),
 163:Middlewares/ST/STM32_USB_Device_Library/Class/MSC/Src/usbd_msc.c ****   0x00     /*Polling interval in milliseconds*/
 164:Middlewares/ST/STM32_USB_Device_Library/Class/MSC/Src/usbd_msc.c **** };
 165:Middlewares/ST/STM32_USB_Device_Library/Class/MSC/Src/usbd_msc.c **** 
 166:Middlewares/ST/STM32_USB_Device_Library/Class/MSC/Src/usbd_msc.c **** /* USB Mass storage device Configuration Descriptor */
 167:Middlewares/ST/STM32_USB_Device_Library/Class/MSC/Src/usbd_msc.c **** /*   All Descriptors (Configuration, Interface, Endpoint, Class, Vendor */
 168:Middlewares/ST/STM32_USB_Device_Library/Class/MSC/Src/usbd_msc.c **** __ALIGN_BEGIN uint8_t USBD_MSC_CfgFSDesc[USB_MSC_CONFIG_DESC_SIZ]  __ALIGN_END =
 169:Middlewares/ST/STM32_USB_Device_Library/Class/MSC/Src/usbd_msc.c **** {
 170:Middlewares/ST/STM32_USB_Device_Library/Class/MSC/Src/usbd_msc.c ****   0x09,   /* bLength: Configuation Descriptor size */
 171:Middlewares/ST/STM32_USB_Device_Library/Class/MSC/Src/usbd_msc.c ****   USB_DESC_TYPE_CONFIGURATION,   /* bDescriptorType: Configuration */
 172:Middlewares/ST/STM32_USB_Device_Library/Class/MSC/Src/usbd_msc.c ****   USB_MSC_CONFIG_DESC_SIZ,
 173:Middlewares/ST/STM32_USB_Device_Library/Class/MSC/Src/usbd_msc.c **** 
 174:Middlewares/ST/STM32_USB_Device_Library/Class/MSC/Src/usbd_msc.c ****   0x00,
 175:Middlewares/ST/STM32_USB_Device_Library/Class/MSC/Src/usbd_msc.c ****   0x01,   /* bNumInterfaces: 1 interface */
 176:Middlewares/ST/STM32_USB_Device_Library/Class/MSC/Src/usbd_msc.c ****   0x01,   /* bConfigurationValue: */
 177:Middlewares/ST/STM32_USB_Device_Library/Class/MSC/Src/usbd_msc.c ****   0x04,   /* iConfiguration: */
 178:Middlewares/ST/STM32_USB_Device_Library/Class/MSC/Src/usbd_msc.c ****   0xC0,   /* bmAttributes: */
 179:Middlewares/ST/STM32_USB_Device_Library/Class/MSC/Src/usbd_msc.c ****   0x32,   /* MaxPower 100 mA */
 180:Middlewares/ST/STM32_USB_Device_Library/Class/MSC/Src/usbd_msc.c **** 
 181:Middlewares/ST/STM32_USB_Device_Library/Class/MSC/Src/usbd_msc.c ****   /********************  Mass Storage interface ********************/
 182:Middlewares/ST/STM32_USB_Device_Library/Class/MSC/Src/usbd_msc.c ****   0x09,   /* bLength: Interface Descriptor size */
 183:Middlewares/ST/STM32_USB_Device_Library/Class/MSC/Src/usbd_msc.c ****   0x04,   /* bDescriptorType: */
 184:Middlewares/ST/STM32_USB_Device_Library/Class/MSC/Src/usbd_msc.c ****   0x00,   /* bInterfaceNumber: Number of Interface */
 185:Middlewares/ST/STM32_USB_Device_Library/Class/MSC/Src/usbd_msc.c ****   0x00,   /* bAlternateSetting: Alternate setting */
 186:Middlewares/ST/STM32_USB_Device_Library/Class/MSC/Src/usbd_msc.c ****   0x02,   /* bNumEndpoints*/
 187:Middlewares/ST/STM32_USB_Device_Library/Class/MSC/Src/usbd_msc.c ****   0x08,   /* bInterfaceClass: MSC Class */
 188:Middlewares/ST/STM32_USB_Device_Library/Class/MSC/Src/usbd_msc.c ****   0x06,   /* bInterfaceSubClass : SCSI transparent*/
 189:Middlewares/ST/STM32_USB_Device_Library/Class/MSC/Src/usbd_msc.c ****   0x50,   /* nInterfaceProtocol */
 190:Middlewares/ST/STM32_USB_Device_Library/Class/MSC/Src/usbd_msc.c ****   0x05,          /* iInterface: */
 191:Middlewares/ST/STM32_USB_Device_Library/Class/MSC/Src/usbd_msc.c ****   /********************  Mass Storage Endpoints ********************/
 192:Middlewares/ST/STM32_USB_Device_Library/Class/MSC/Src/usbd_msc.c ****   0x07,   /*Endpoint descriptor length = 7*/
 193:Middlewares/ST/STM32_USB_Device_Library/Class/MSC/Src/usbd_msc.c ****   0x05,   /*Endpoint descriptor type */
 194:Middlewares/ST/STM32_USB_Device_Library/Class/MSC/Src/usbd_msc.c ****   MSC_EPIN_ADDR,   /*Endpoint address (IN, address 1) */
 195:Middlewares/ST/STM32_USB_Device_Library/Class/MSC/Src/usbd_msc.c ****   0x02,   /*Bulk endpoint type */
 196:Middlewares/ST/STM32_USB_Device_Library/Class/MSC/Src/usbd_msc.c ****   LOBYTE(MSC_MAX_FS_PACKET),
 197:Middlewares/ST/STM32_USB_Device_Library/Class/MSC/Src/usbd_msc.c ****   HIBYTE(MSC_MAX_FS_PACKET),
 198:Middlewares/ST/STM32_USB_Device_Library/Class/MSC/Src/usbd_msc.c ****   0x00,   /*Polling interval in milliseconds */
 199:Middlewares/ST/STM32_USB_Device_Library/Class/MSC/Src/usbd_msc.c **** 
 200:Middlewares/ST/STM32_USB_Device_Library/Class/MSC/Src/usbd_msc.c ****   0x07,   /*Endpoint descriptor length = 7 */
 201:Middlewares/ST/STM32_USB_Device_Library/Class/MSC/Src/usbd_msc.c ****   0x05,   /*Endpoint descriptor type */
 202:Middlewares/ST/STM32_USB_Device_Library/Class/MSC/Src/usbd_msc.c ****   MSC_EPOUT_ADDR,   /*Endpoint address (OUT, address 1) */
ARM GAS  C:\Users\Kaa\AppData\Local\Temp\ccSmGFpc.s 			page 5


 203:Middlewares/ST/STM32_USB_Device_Library/Class/MSC/Src/usbd_msc.c ****   0x02,   /*Bulk endpoint type */
 204:Middlewares/ST/STM32_USB_Device_Library/Class/MSC/Src/usbd_msc.c ****   LOBYTE(MSC_MAX_FS_PACKET),
 205:Middlewares/ST/STM32_USB_Device_Library/Class/MSC/Src/usbd_msc.c ****   HIBYTE(MSC_MAX_FS_PACKET),
 206:Middlewares/ST/STM32_USB_Device_Library/Class/MSC/Src/usbd_msc.c ****   0x00     /*Polling interval in milliseconds*/
 207:Middlewares/ST/STM32_USB_Device_Library/Class/MSC/Src/usbd_msc.c **** };
 208:Middlewares/ST/STM32_USB_Device_Library/Class/MSC/Src/usbd_msc.c **** 
 209:Middlewares/ST/STM32_USB_Device_Library/Class/MSC/Src/usbd_msc.c **** __ALIGN_BEGIN uint8_t USBD_MSC_OtherSpeedCfgDesc[USB_MSC_CONFIG_DESC_SIZ]   __ALIGN_END  =
 210:Middlewares/ST/STM32_USB_Device_Library/Class/MSC/Src/usbd_msc.c **** {
 211:Middlewares/ST/STM32_USB_Device_Library/Class/MSC/Src/usbd_msc.c ****   0x09,   /* bLength: Configuation Descriptor size */
 212:Middlewares/ST/STM32_USB_Device_Library/Class/MSC/Src/usbd_msc.c ****   USB_DESC_TYPE_OTHER_SPEED_CONFIGURATION,
 213:Middlewares/ST/STM32_USB_Device_Library/Class/MSC/Src/usbd_msc.c ****   USB_MSC_CONFIG_DESC_SIZ,
 214:Middlewares/ST/STM32_USB_Device_Library/Class/MSC/Src/usbd_msc.c **** 
 215:Middlewares/ST/STM32_USB_Device_Library/Class/MSC/Src/usbd_msc.c ****   0x00,
 216:Middlewares/ST/STM32_USB_Device_Library/Class/MSC/Src/usbd_msc.c ****   0x01,   /* bNumInterfaces: 1 interface */
 217:Middlewares/ST/STM32_USB_Device_Library/Class/MSC/Src/usbd_msc.c ****   0x01,   /* bConfigurationValue: */
 218:Middlewares/ST/STM32_USB_Device_Library/Class/MSC/Src/usbd_msc.c ****   0x04,   /* iConfiguration: */
 219:Middlewares/ST/STM32_USB_Device_Library/Class/MSC/Src/usbd_msc.c ****   0xC0,   /* bmAttributes: */
 220:Middlewares/ST/STM32_USB_Device_Library/Class/MSC/Src/usbd_msc.c ****   0x32,   /* MaxPower 100 mA */
 221:Middlewares/ST/STM32_USB_Device_Library/Class/MSC/Src/usbd_msc.c **** 
 222:Middlewares/ST/STM32_USB_Device_Library/Class/MSC/Src/usbd_msc.c ****   /********************  Mass Storage interface ********************/
 223:Middlewares/ST/STM32_USB_Device_Library/Class/MSC/Src/usbd_msc.c ****   0x09,   /* bLength: Interface Descriptor size */
 224:Middlewares/ST/STM32_USB_Device_Library/Class/MSC/Src/usbd_msc.c ****   0x04,   /* bDescriptorType: */
 225:Middlewares/ST/STM32_USB_Device_Library/Class/MSC/Src/usbd_msc.c ****   0x00,   /* bInterfaceNumber: Number of Interface */
 226:Middlewares/ST/STM32_USB_Device_Library/Class/MSC/Src/usbd_msc.c ****   0x00,   /* bAlternateSetting: Alternate setting */
 227:Middlewares/ST/STM32_USB_Device_Library/Class/MSC/Src/usbd_msc.c ****   0x02,   /* bNumEndpoints*/
 228:Middlewares/ST/STM32_USB_Device_Library/Class/MSC/Src/usbd_msc.c ****   0x08,   /* bInterfaceClass: MSC Class */
 229:Middlewares/ST/STM32_USB_Device_Library/Class/MSC/Src/usbd_msc.c ****   0x06,   /* bInterfaceSubClass : SCSI transparent command set*/
 230:Middlewares/ST/STM32_USB_Device_Library/Class/MSC/Src/usbd_msc.c ****   0x50,   /* nInterfaceProtocol */
 231:Middlewares/ST/STM32_USB_Device_Library/Class/MSC/Src/usbd_msc.c ****   0x05,          /* iInterface: */
 232:Middlewares/ST/STM32_USB_Device_Library/Class/MSC/Src/usbd_msc.c ****   /********************  Mass Storage Endpoints ********************/
 233:Middlewares/ST/STM32_USB_Device_Library/Class/MSC/Src/usbd_msc.c ****   0x07,   /*Endpoint descriptor length = 7*/
 234:Middlewares/ST/STM32_USB_Device_Library/Class/MSC/Src/usbd_msc.c ****   0x05,   /*Endpoint descriptor type */
 235:Middlewares/ST/STM32_USB_Device_Library/Class/MSC/Src/usbd_msc.c ****   MSC_EPIN_ADDR,   /*Endpoint address (IN, address 1) */
 236:Middlewares/ST/STM32_USB_Device_Library/Class/MSC/Src/usbd_msc.c ****   0x02,   /*Bulk endpoint type */
 237:Middlewares/ST/STM32_USB_Device_Library/Class/MSC/Src/usbd_msc.c ****   0x40,
 238:Middlewares/ST/STM32_USB_Device_Library/Class/MSC/Src/usbd_msc.c ****   0x00,
 239:Middlewares/ST/STM32_USB_Device_Library/Class/MSC/Src/usbd_msc.c ****   0x00,   /*Polling interval in milliseconds */
 240:Middlewares/ST/STM32_USB_Device_Library/Class/MSC/Src/usbd_msc.c **** 
 241:Middlewares/ST/STM32_USB_Device_Library/Class/MSC/Src/usbd_msc.c ****   0x07,   /*Endpoint descriptor length = 7 */
 242:Middlewares/ST/STM32_USB_Device_Library/Class/MSC/Src/usbd_msc.c ****   0x05,   /*Endpoint descriptor type */
 243:Middlewares/ST/STM32_USB_Device_Library/Class/MSC/Src/usbd_msc.c ****   MSC_EPOUT_ADDR,   /*Endpoint address (OUT, address 1) */
 244:Middlewares/ST/STM32_USB_Device_Library/Class/MSC/Src/usbd_msc.c ****   0x02,   /*Bulk endpoint type */
 245:Middlewares/ST/STM32_USB_Device_Library/Class/MSC/Src/usbd_msc.c ****   0x40,
 246:Middlewares/ST/STM32_USB_Device_Library/Class/MSC/Src/usbd_msc.c ****   0x00,
 247:Middlewares/ST/STM32_USB_Device_Library/Class/MSC/Src/usbd_msc.c ****   0x00     /*Polling interval in milliseconds*/
 248:Middlewares/ST/STM32_USB_Device_Library/Class/MSC/Src/usbd_msc.c **** };
 249:Middlewares/ST/STM32_USB_Device_Library/Class/MSC/Src/usbd_msc.c **** 
 250:Middlewares/ST/STM32_USB_Device_Library/Class/MSC/Src/usbd_msc.c **** /* USB Standard Device Descriptor */
 251:Middlewares/ST/STM32_USB_Device_Library/Class/MSC/Src/usbd_msc.c **** __ALIGN_BEGIN  uint8_t USBD_MSC_DeviceQualifierDesc[USB_LEN_DEV_QUALIFIER_DESC]  __ALIGN_END =
 252:Middlewares/ST/STM32_USB_Device_Library/Class/MSC/Src/usbd_msc.c **** {
 253:Middlewares/ST/STM32_USB_Device_Library/Class/MSC/Src/usbd_msc.c ****   USB_LEN_DEV_QUALIFIER_DESC,
 254:Middlewares/ST/STM32_USB_Device_Library/Class/MSC/Src/usbd_msc.c ****   USB_DESC_TYPE_DEVICE_QUALIFIER,
 255:Middlewares/ST/STM32_USB_Device_Library/Class/MSC/Src/usbd_msc.c ****   0x00,
 256:Middlewares/ST/STM32_USB_Device_Library/Class/MSC/Src/usbd_msc.c ****   0x02,
 257:Middlewares/ST/STM32_USB_Device_Library/Class/MSC/Src/usbd_msc.c ****   0x00,
 258:Middlewares/ST/STM32_USB_Device_Library/Class/MSC/Src/usbd_msc.c ****   0x00,
 259:Middlewares/ST/STM32_USB_Device_Library/Class/MSC/Src/usbd_msc.c ****   0x00,
ARM GAS  C:\Users\Kaa\AppData\Local\Temp\ccSmGFpc.s 			page 6


 260:Middlewares/ST/STM32_USB_Device_Library/Class/MSC/Src/usbd_msc.c ****   MSC_MAX_FS_PACKET,
 261:Middlewares/ST/STM32_USB_Device_Library/Class/MSC/Src/usbd_msc.c ****   0x01,
 262:Middlewares/ST/STM32_USB_Device_Library/Class/MSC/Src/usbd_msc.c ****   0x00,
 263:Middlewares/ST/STM32_USB_Device_Library/Class/MSC/Src/usbd_msc.c **** };
 264:Middlewares/ST/STM32_USB_Device_Library/Class/MSC/Src/usbd_msc.c **** /**
 265:Middlewares/ST/STM32_USB_Device_Library/Class/MSC/Src/usbd_msc.c ****   * @}
 266:Middlewares/ST/STM32_USB_Device_Library/Class/MSC/Src/usbd_msc.c ****   */
 267:Middlewares/ST/STM32_USB_Device_Library/Class/MSC/Src/usbd_msc.c **** 
 268:Middlewares/ST/STM32_USB_Device_Library/Class/MSC/Src/usbd_msc.c **** 
 269:Middlewares/ST/STM32_USB_Device_Library/Class/MSC/Src/usbd_msc.c **** /** @defgroup MSC_CORE_Private_Functions
 270:Middlewares/ST/STM32_USB_Device_Library/Class/MSC/Src/usbd_msc.c ****   * @{
 271:Middlewares/ST/STM32_USB_Device_Library/Class/MSC/Src/usbd_msc.c ****   */
 272:Middlewares/ST/STM32_USB_Device_Library/Class/MSC/Src/usbd_msc.c **** 
 273:Middlewares/ST/STM32_USB_Device_Library/Class/MSC/Src/usbd_msc.c **** /**
 274:Middlewares/ST/STM32_USB_Device_Library/Class/MSC/Src/usbd_msc.c ****   * @brief  USBD_MSC_Init
 275:Middlewares/ST/STM32_USB_Device_Library/Class/MSC/Src/usbd_msc.c ****   *         Initialize  the mass storage configuration
 276:Middlewares/ST/STM32_USB_Device_Library/Class/MSC/Src/usbd_msc.c ****   * @param  pdev: device instance
 277:Middlewares/ST/STM32_USB_Device_Library/Class/MSC/Src/usbd_msc.c ****   * @param  cfgidx: configuration index
 278:Middlewares/ST/STM32_USB_Device_Library/Class/MSC/Src/usbd_msc.c ****   * @retval status
 279:Middlewares/ST/STM32_USB_Device_Library/Class/MSC/Src/usbd_msc.c ****   */
 280:Middlewares/ST/STM32_USB_Device_Library/Class/MSC/Src/usbd_msc.c **** uint8_t USBD_MSC_Init(USBD_HandleTypeDef *pdev, uint8_t cfgidx)
 281:Middlewares/ST/STM32_USB_Device_Library/Class/MSC/Src/usbd_msc.c **** {
 282:Middlewares/ST/STM32_USB_Device_Library/Class/MSC/Src/usbd_msc.c ****   if (pdev->dev_speed == USBD_SPEED_HIGH)
 283:Middlewares/ST/STM32_USB_Device_Library/Class/MSC/Src/usbd_msc.c ****   {
 284:Middlewares/ST/STM32_USB_Device_Library/Class/MSC/Src/usbd_msc.c ****     /* Open EP OUT */
 285:Middlewares/ST/STM32_USB_Device_Library/Class/MSC/Src/usbd_msc.c ****     USBD_LL_OpenEP(pdev, MSC_EPOUT_ADDR, USBD_EP_TYPE_BULK, MSC_MAX_HS_PACKET);
 286:Middlewares/ST/STM32_USB_Device_Library/Class/MSC/Src/usbd_msc.c ****     pdev->ep_out[MSC_EPOUT_ADDR & 0xFU].is_used = 1U;
 287:Middlewares/ST/STM32_USB_Device_Library/Class/MSC/Src/usbd_msc.c **** 
 288:Middlewares/ST/STM32_USB_Device_Library/Class/MSC/Src/usbd_msc.c ****     /* Open EP IN */
 289:Middlewares/ST/STM32_USB_Device_Library/Class/MSC/Src/usbd_msc.c ****     USBD_LL_OpenEP(pdev, MSC_EPIN_ADDR, USBD_EP_TYPE_BULK, MSC_MAX_HS_PACKET);
 290:Middlewares/ST/STM32_USB_Device_Library/Class/MSC/Src/usbd_msc.c ****     pdev->ep_in[MSC_EPIN_ADDR & 0xFU].is_used = 1U;
 291:Middlewares/ST/STM32_USB_Device_Library/Class/MSC/Src/usbd_msc.c ****   }
 292:Middlewares/ST/STM32_USB_Device_Library/Class/MSC/Src/usbd_msc.c ****   else
 293:Middlewares/ST/STM32_USB_Device_Library/Class/MSC/Src/usbd_msc.c ****   {
 294:Middlewares/ST/STM32_USB_Device_Library/Class/MSC/Src/usbd_msc.c ****     /* Open EP OUT */
 295:Middlewares/ST/STM32_USB_Device_Library/Class/MSC/Src/usbd_msc.c ****     USBD_LL_OpenEP(pdev, MSC_EPOUT_ADDR, USBD_EP_TYPE_BULK, MSC_MAX_FS_PACKET);
 296:Middlewares/ST/STM32_USB_Device_Library/Class/MSC/Src/usbd_msc.c ****     pdev->ep_out[MSC_EPOUT_ADDR & 0xFU].is_used = 1U;
 297:Middlewares/ST/STM32_USB_Device_Library/Class/MSC/Src/usbd_msc.c **** 
 298:Middlewares/ST/STM32_USB_Device_Library/Class/MSC/Src/usbd_msc.c ****     /* Open EP IN */
 299:Middlewares/ST/STM32_USB_Device_Library/Class/MSC/Src/usbd_msc.c ****     USBD_LL_OpenEP(pdev, MSC_EPIN_ADDR, USBD_EP_TYPE_BULK, MSC_MAX_FS_PACKET);
 300:Middlewares/ST/STM32_USB_Device_Library/Class/MSC/Src/usbd_msc.c ****     pdev->ep_in[MSC_EPIN_ADDR & 0xFU].is_used = 1U;
 301:Middlewares/ST/STM32_USB_Device_Library/Class/MSC/Src/usbd_msc.c ****   }
 302:Middlewares/ST/STM32_USB_Device_Library/Class/MSC/Src/usbd_msc.c ****   pdev->pClassData = USBD_malloc(sizeof(USBD_MSC_BOT_HandleTypeDef));
 303:Middlewares/ST/STM32_USB_Device_Library/Class/MSC/Src/usbd_msc.c **** 
 304:Middlewares/ST/STM32_USB_Device_Library/Class/MSC/Src/usbd_msc.c ****   if (pdev->pClassData == NULL)
 305:Middlewares/ST/STM32_USB_Device_Library/Class/MSC/Src/usbd_msc.c ****   {
 306:Middlewares/ST/STM32_USB_Device_Library/Class/MSC/Src/usbd_msc.c ****     return USBD_FAIL;
 307:Middlewares/ST/STM32_USB_Device_Library/Class/MSC/Src/usbd_msc.c ****   }
 308:Middlewares/ST/STM32_USB_Device_Library/Class/MSC/Src/usbd_msc.c **** 
 309:Middlewares/ST/STM32_USB_Device_Library/Class/MSC/Src/usbd_msc.c ****   /* Init the BOT  layer */
 310:Middlewares/ST/STM32_USB_Device_Library/Class/MSC/Src/usbd_msc.c ****   MSC_BOT_Init(pdev);
 311:Middlewares/ST/STM32_USB_Device_Library/Class/MSC/Src/usbd_msc.c **** 
 312:Middlewares/ST/STM32_USB_Device_Library/Class/MSC/Src/usbd_msc.c ****   return USBD_OK;
 313:Middlewares/ST/STM32_USB_Device_Library/Class/MSC/Src/usbd_msc.c **** }
 314:Middlewares/ST/STM32_USB_Device_Library/Class/MSC/Src/usbd_msc.c **** 
 315:Middlewares/ST/STM32_USB_Device_Library/Class/MSC/Src/usbd_msc.c **** /**
 316:Middlewares/ST/STM32_USB_Device_Library/Class/MSC/Src/usbd_msc.c ****   * @brief  USBD_MSC_DeInit
ARM GAS  C:\Users\Kaa\AppData\Local\Temp\ccSmGFpc.s 			page 7


 317:Middlewares/ST/STM32_USB_Device_Library/Class/MSC/Src/usbd_msc.c ****   *         DeInitilaize  the mass storage configuration
 318:Middlewares/ST/STM32_USB_Device_Library/Class/MSC/Src/usbd_msc.c ****   * @param  pdev: device instance
 319:Middlewares/ST/STM32_USB_Device_Library/Class/MSC/Src/usbd_msc.c ****   * @param  cfgidx: configuration index
 320:Middlewares/ST/STM32_USB_Device_Library/Class/MSC/Src/usbd_msc.c ****   * @retval status
 321:Middlewares/ST/STM32_USB_Device_Library/Class/MSC/Src/usbd_msc.c ****   */
 322:Middlewares/ST/STM32_USB_Device_Library/Class/MSC/Src/usbd_msc.c **** uint8_t USBD_MSC_DeInit(USBD_HandleTypeDef *pdev,
 323:Middlewares/ST/STM32_USB_Device_Library/Class/MSC/Src/usbd_msc.c ****                          uint8_t cfgidx)
 324:Middlewares/ST/STM32_USB_Device_Library/Class/MSC/Src/usbd_msc.c **** {
 325:Middlewares/ST/STM32_USB_Device_Library/Class/MSC/Src/usbd_msc.c ****   /* Close MSC EPs */
 326:Middlewares/ST/STM32_USB_Device_Library/Class/MSC/Src/usbd_msc.c ****   USBD_LL_CloseEP(pdev, MSC_EPOUT_ADDR);
 327:Middlewares/ST/STM32_USB_Device_Library/Class/MSC/Src/usbd_msc.c ****   pdev->ep_out[MSC_EPOUT_ADDR & 0xFU].is_used = 0U;
 328:Middlewares/ST/STM32_USB_Device_Library/Class/MSC/Src/usbd_msc.c **** 
 329:Middlewares/ST/STM32_USB_Device_Library/Class/MSC/Src/usbd_msc.c ****   /* Close EP IN */
 330:Middlewares/ST/STM32_USB_Device_Library/Class/MSC/Src/usbd_msc.c ****   USBD_LL_CloseEP(pdev, MSC_EPIN_ADDR);
 331:Middlewares/ST/STM32_USB_Device_Library/Class/MSC/Src/usbd_msc.c ****   pdev->ep_in[MSC_EPIN_ADDR & 0xFU].is_used = 0U;
 332:Middlewares/ST/STM32_USB_Device_Library/Class/MSC/Src/usbd_msc.c **** 
 333:Middlewares/ST/STM32_USB_Device_Library/Class/MSC/Src/usbd_msc.c ****   /* De-Init the BOT layer */
 334:Middlewares/ST/STM32_USB_Device_Library/Class/MSC/Src/usbd_msc.c ****   MSC_BOT_DeInit(pdev);
 335:Middlewares/ST/STM32_USB_Device_Library/Class/MSC/Src/usbd_msc.c **** 
 336:Middlewares/ST/STM32_USB_Device_Library/Class/MSC/Src/usbd_msc.c ****   /* Free MSC Class Resources */
 337:Middlewares/ST/STM32_USB_Device_Library/Class/MSC/Src/usbd_msc.c ****   if (pdev->pClassData != NULL)
 338:Middlewares/ST/STM32_USB_Device_Library/Class/MSC/Src/usbd_msc.c ****   {
 339:Middlewares/ST/STM32_USB_Device_Library/Class/MSC/Src/usbd_msc.c ****     USBD_free(pdev->pClassData);
 340:Middlewares/ST/STM32_USB_Device_Library/Class/MSC/Src/usbd_msc.c ****     pdev->pClassData  = NULL;
 341:Middlewares/ST/STM32_USB_Device_Library/Class/MSC/Src/usbd_msc.c ****   }
 342:Middlewares/ST/STM32_USB_Device_Library/Class/MSC/Src/usbd_msc.c **** 
 343:Middlewares/ST/STM32_USB_Device_Library/Class/MSC/Src/usbd_msc.c ****   return USBD_OK;
 344:Middlewares/ST/STM32_USB_Device_Library/Class/MSC/Src/usbd_msc.c **** }
 345:Middlewares/ST/STM32_USB_Device_Library/Class/MSC/Src/usbd_msc.c **** /**
 346:Middlewares/ST/STM32_USB_Device_Library/Class/MSC/Src/usbd_msc.c **** * @brief  USBD_MSC_Setup
 347:Middlewares/ST/STM32_USB_Device_Library/Class/MSC/Src/usbd_msc.c **** *         Handle the MSC specific requests
 348:Middlewares/ST/STM32_USB_Device_Library/Class/MSC/Src/usbd_msc.c **** * @param  pdev: device instance
 349:Middlewares/ST/STM32_USB_Device_Library/Class/MSC/Src/usbd_msc.c **** * @param  req: USB request
 350:Middlewares/ST/STM32_USB_Device_Library/Class/MSC/Src/usbd_msc.c **** * @retval status
 351:Middlewares/ST/STM32_USB_Device_Library/Class/MSC/Src/usbd_msc.c **** */
 352:Middlewares/ST/STM32_USB_Device_Library/Class/MSC/Src/usbd_msc.c **** uint8_t USBD_MSC_Setup(USBD_HandleTypeDef *pdev, USBD_SetupReqTypedef *req)
 353:Middlewares/ST/STM32_USB_Device_Library/Class/MSC/Src/usbd_msc.c **** {
 354:Middlewares/ST/STM32_USB_Device_Library/Class/MSC/Src/usbd_msc.c ****   USBD_MSC_BOT_HandleTypeDef *hmsc = (USBD_MSC_BOT_HandleTypeDef *) pdev->pClassData;
 355:Middlewares/ST/STM32_USB_Device_Library/Class/MSC/Src/usbd_msc.c ****   uint8_t ret = USBD_OK;
 356:Middlewares/ST/STM32_USB_Device_Library/Class/MSC/Src/usbd_msc.c ****   uint16_t status_info = 0U;
 357:Middlewares/ST/STM32_USB_Device_Library/Class/MSC/Src/usbd_msc.c **** 
 358:Middlewares/ST/STM32_USB_Device_Library/Class/MSC/Src/usbd_msc.c ****   switch (req->bmRequest & USB_REQ_TYPE_MASK)
 359:Middlewares/ST/STM32_USB_Device_Library/Class/MSC/Src/usbd_msc.c ****   {
 360:Middlewares/ST/STM32_USB_Device_Library/Class/MSC/Src/usbd_msc.c ****     /* Class request */
 361:Middlewares/ST/STM32_USB_Device_Library/Class/MSC/Src/usbd_msc.c ****     case USB_REQ_TYPE_CLASS:
 362:Middlewares/ST/STM32_USB_Device_Library/Class/MSC/Src/usbd_msc.c ****       switch (req->bRequest)
 363:Middlewares/ST/STM32_USB_Device_Library/Class/MSC/Src/usbd_msc.c ****       {
 364:Middlewares/ST/STM32_USB_Device_Library/Class/MSC/Src/usbd_msc.c ****         case BOT_GET_MAX_LUN:
 365:Middlewares/ST/STM32_USB_Device_Library/Class/MSC/Src/usbd_msc.c ****           if ((req->wValue  == 0U) && (req->wLength == 1U) &&
 366:Middlewares/ST/STM32_USB_Device_Library/Class/MSC/Src/usbd_msc.c ****               ((req->bmRequest & 0x80U) == 0x80U))
 367:Middlewares/ST/STM32_USB_Device_Library/Class/MSC/Src/usbd_msc.c ****           {
 368:Middlewares/ST/STM32_USB_Device_Library/Class/MSC/Src/usbd_msc.c ****             hmsc->max_lun = (uint32_t)((USBD_StorageTypeDef *)pdev->pUserData)->GetMaxLun();
 369:Middlewares/ST/STM32_USB_Device_Library/Class/MSC/Src/usbd_msc.c ****             USBD_CtlSendData(pdev, (uint8_t *)(void *)&hmsc->max_lun, 1U);
 370:Middlewares/ST/STM32_USB_Device_Library/Class/MSC/Src/usbd_msc.c ****           }
 371:Middlewares/ST/STM32_USB_Device_Library/Class/MSC/Src/usbd_msc.c ****           else
 372:Middlewares/ST/STM32_USB_Device_Library/Class/MSC/Src/usbd_msc.c ****           {
 373:Middlewares/ST/STM32_USB_Device_Library/Class/MSC/Src/usbd_msc.c ****             USBD_CtlError(pdev, req);
ARM GAS  C:\Users\Kaa\AppData\Local\Temp\ccSmGFpc.s 			page 8


 374:Middlewares/ST/STM32_USB_Device_Library/Class/MSC/Src/usbd_msc.c ****             ret = USBD_FAIL;
 375:Middlewares/ST/STM32_USB_Device_Library/Class/MSC/Src/usbd_msc.c ****           }
 376:Middlewares/ST/STM32_USB_Device_Library/Class/MSC/Src/usbd_msc.c ****           break;
 377:Middlewares/ST/STM32_USB_Device_Library/Class/MSC/Src/usbd_msc.c **** 
 378:Middlewares/ST/STM32_USB_Device_Library/Class/MSC/Src/usbd_msc.c ****         case BOT_RESET :
 379:Middlewares/ST/STM32_USB_Device_Library/Class/MSC/Src/usbd_msc.c ****           if ((req->wValue  == 0U) && (req->wLength == 0U) &&
 380:Middlewares/ST/STM32_USB_Device_Library/Class/MSC/Src/usbd_msc.c ****               ((req->bmRequest & 0x80U) != 0x80U))
 381:Middlewares/ST/STM32_USB_Device_Library/Class/MSC/Src/usbd_msc.c ****           {
 382:Middlewares/ST/STM32_USB_Device_Library/Class/MSC/Src/usbd_msc.c ****             MSC_BOT_Reset(pdev);
 383:Middlewares/ST/STM32_USB_Device_Library/Class/MSC/Src/usbd_msc.c ****           }
 384:Middlewares/ST/STM32_USB_Device_Library/Class/MSC/Src/usbd_msc.c ****           else
 385:Middlewares/ST/STM32_USB_Device_Library/Class/MSC/Src/usbd_msc.c ****           {
 386:Middlewares/ST/STM32_USB_Device_Library/Class/MSC/Src/usbd_msc.c ****             USBD_CtlError(pdev, req);
 387:Middlewares/ST/STM32_USB_Device_Library/Class/MSC/Src/usbd_msc.c ****             ret = USBD_FAIL;
 388:Middlewares/ST/STM32_USB_Device_Library/Class/MSC/Src/usbd_msc.c ****           }
 389:Middlewares/ST/STM32_USB_Device_Library/Class/MSC/Src/usbd_msc.c ****           break;
 390:Middlewares/ST/STM32_USB_Device_Library/Class/MSC/Src/usbd_msc.c **** 
 391:Middlewares/ST/STM32_USB_Device_Library/Class/MSC/Src/usbd_msc.c ****         default:
 392:Middlewares/ST/STM32_USB_Device_Library/Class/MSC/Src/usbd_msc.c ****           USBD_CtlError(pdev, req);
 393:Middlewares/ST/STM32_USB_Device_Library/Class/MSC/Src/usbd_msc.c ****           ret = USBD_FAIL;
 394:Middlewares/ST/STM32_USB_Device_Library/Class/MSC/Src/usbd_msc.c ****           break;
 395:Middlewares/ST/STM32_USB_Device_Library/Class/MSC/Src/usbd_msc.c ****       }
 396:Middlewares/ST/STM32_USB_Device_Library/Class/MSC/Src/usbd_msc.c ****       break;
 397:Middlewares/ST/STM32_USB_Device_Library/Class/MSC/Src/usbd_msc.c ****     /* Interface & Endpoint request */
 398:Middlewares/ST/STM32_USB_Device_Library/Class/MSC/Src/usbd_msc.c ****     case USB_REQ_TYPE_STANDARD:
 399:Middlewares/ST/STM32_USB_Device_Library/Class/MSC/Src/usbd_msc.c ****       switch (req->bRequest)
 400:Middlewares/ST/STM32_USB_Device_Library/Class/MSC/Src/usbd_msc.c ****       {
 401:Middlewares/ST/STM32_USB_Device_Library/Class/MSC/Src/usbd_msc.c ****         case USB_REQ_GET_STATUS:
 402:Middlewares/ST/STM32_USB_Device_Library/Class/MSC/Src/usbd_msc.c ****           if (pdev->dev_state == USBD_STATE_CONFIGURED)
 403:Middlewares/ST/STM32_USB_Device_Library/Class/MSC/Src/usbd_msc.c ****           {
 404:Middlewares/ST/STM32_USB_Device_Library/Class/MSC/Src/usbd_msc.c ****             USBD_CtlSendData(pdev, (uint8_t *)(void *)&status_info, 2U);
 405:Middlewares/ST/STM32_USB_Device_Library/Class/MSC/Src/usbd_msc.c ****           }
 406:Middlewares/ST/STM32_USB_Device_Library/Class/MSC/Src/usbd_msc.c ****           else
 407:Middlewares/ST/STM32_USB_Device_Library/Class/MSC/Src/usbd_msc.c ****           {
 408:Middlewares/ST/STM32_USB_Device_Library/Class/MSC/Src/usbd_msc.c ****             USBD_CtlError(pdev, req);
 409:Middlewares/ST/STM32_USB_Device_Library/Class/MSC/Src/usbd_msc.c ****             ret = USBD_FAIL;
 410:Middlewares/ST/STM32_USB_Device_Library/Class/MSC/Src/usbd_msc.c ****           }
 411:Middlewares/ST/STM32_USB_Device_Library/Class/MSC/Src/usbd_msc.c ****           break;
 412:Middlewares/ST/STM32_USB_Device_Library/Class/MSC/Src/usbd_msc.c **** 
 413:Middlewares/ST/STM32_USB_Device_Library/Class/MSC/Src/usbd_msc.c ****         case USB_REQ_GET_INTERFACE:
 414:Middlewares/ST/STM32_USB_Device_Library/Class/MSC/Src/usbd_msc.c ****           if (pdev->dev_state == USBD_STATE_CONFIGURED)
 415:Middlewares/ST/STM32_USB_Device_Library/Class/MSC/Src/usbd_msc.c ****           {
 416:Middlewares/ST/STM32_USB_Device_Library/Class/MSC/Src/usbd_msc.c ****             USBD_CtlSendData(pdev, (uint8_t *)(void *)&hmsc->interface, 1U);
 417:Middlewares/ST/STM32_USB_Device_Library/Class/MSC/Src/usbd_msc.c ****           }
 418:Middlewares/ST/STM32_USB_Device_Library/Class/MSC/Src/usbd_msc.c ****           else
 419:Middlewares/ST/STM32_USB_Device_Library/Class/MSC/Src/usbd_msc.c ****           {
 420:Middlewares/ST/STM32_USB_Device_Library/Class/MSC/Src/usbd_msc.c ****             USBD_CtlError(pdev, req);
 421:Middlewares/ST/STM32_USB_Device_Library/Class/MSC/Src/usbd_msc.c ****             ret = USBD_FAIL;
 422:Middlewares/ST/STM32_USB_Device_Library/Class/MSC/Src/usbd_msc.c ****           }
 423:Middlewares/ST/STM32_USB_Device_Library/Class/MSC/Src/usbd_msc.c ****           break;
 424:Middlewares/ST/STM32_USB_Device_Library/Class/MSC/Src/usbd_msc.c **** 
 425:Middlewares/ST/STM32_USB_Device_Library/Class/MSC/Src/usbd_msc.c ****         case USB_REQ_SET_INTERFACE:
 426:Middlewares/ST/STM32_USB_Device_Library/Class/MSC/Src/usbd_msc.c ****           if (pdev->dev_state == USBD_STATE_CONFIGURED)
 427:Middlewares/ST/STM32_USB_Device_Library/Class/MSC/Src/usbd_msc.c ****           {
 428:Middlewares/ST/STM32_USB_Device_Library/Class/MSC/Src/usbd_msc.c ****             hmsc->interface = (uint8_t)(req->wValue);
 429:Middlewares/ST/STM32_USB_Device_Library/Class/MSC/Src/usbd_msc.c ****           }
 430:Middlewares/ST/STM32_USB_Device_Library/Class/MSC/Src/usbd_msc.c ****           else
ARM GAS  C:\Users\Kaa\AppData\Local\Temp\ccSmGFpc.s 			page 9


 431:Middlewares/ST/STM32_USB_Device_Library/Class/MSC/Src/usbd_msc.c ****           {
 432:Middlewares/ST/STM32_USB_Device_Library/Class/MSC/Src/usbd_msc.c ****             USBD_CtlError(pdev, req);
 433:Middlewares/ST/STM32_USB_Device_Library/Class/MSC/Src/usbd_msc.c ****             ret = USBD_FAIL;
 434:Middlewares/ST/STM32_USB_Device_Library/Class/MSC/Src/usbd_msc.c ****           }
 435:Middlewares/ST/STM32_USB_Device_Library/Class/MSC/Src/usbd_msc.c ****           break;
 436:Middlewares/ST/STM32_USB_Device_Library/Class/MSC/Src/usbd_msc.c **** 
 437:Middlewares/ST/STM32_USB_Device_Library/Class/MSC/Src/usbd_msc.c ****         case USB_REQ_CLEAR_FEATURE:
 438:Middlewares/ST/STM32_USB_Device_Library/Class/MSC/Src/usbd_msc.c **** 
 439:Middlewares/ST/STM32_USB_Device_Library/Class/MSC/Src/usbd_msc.c ****           /* Flush the FIFO and Clear the stall status */
 440:Middlewares/ST/STM32_USB_Device_Library/Class/MSC/Src/usbd_msc.c ****           USBD_LL_FlushEP(pdev, (uint8_t)req->wIndex);
 441:Middlewares/ST/STM32_USB_Device_Library/Class/MSC/Src/usbd_msc.c **** 
 442:Middlewares/ST/STM32_USB_Device_Library/Class/MSC/Src/usbd_msc.c ****           /* Reactivate the EP */
 443:Middlewares/ST/STM32_USB_Device_Library/Class/MSC/Src/usbd_msc.c ****           USBD_LL_CloseEP(pdev, (uint8_t)req->wIndex);
 444:Middlewares/ST/STM32_USB_Device_Library/Class/MSC/Src/usbd_msc.c ****           if ((((uint8_t)req->wIndex) & 0x80U) == 0x80U)
 445:Middlewares/ST/STM32_USB_Device_Library/Class/MSC/Src/usbd_msc.c ****           {
 446:Middlewares/ST/STM32_USB_Device_Library/Class/MSC/Src/usbd_msc.c ****             pdev->ep_in[(uint8_t)req->wIndex & 0xFU].is_used = 0U;
 447:Middlewares/ST/STM32_USB_Device_Library/Class/MSC/Src/usbd_msc.c ****             if (pdev->dev_speed == USBD_SPEED_HIGH)
 448:Middlewares/ST/STM32_USB_Device_Library/Class/MSC/Src/usbd_msc.c ****             {
 449:Middlewares/ST/STM32_USB_Device_Library/Class/MSC/Src/usbd_msc.c ****               /* Open EP IN */
 450:Middlewares/ST/STM32_USB_Device_Library/Class/MSC/Src/usbd_msc.c ****               USBD_LL_OpenEP(pdev, MSC_EPIN_ADDR, USBD_EP_TYPE_BULK,
 451:Middlewares/ST/STM32_USB_Device_Library/Class/MSC/Src/usbd_msc.c ****                              MSC_MAX_HS_PACKET);
 452:Middlewares/ST/STM32_USB_Device_Library/Class/MSC/Src/usbd_msc.c ****             }
 453:Middlewares/ST/STM32_USB_Device_Library/Class/MSC/Src/usbd_msc.c ****             else
 454:Middlewares/ST/STM32_USB_Device_Library/Class/MSC/Src/usbd_msc.c ****             {
 455:Middlewares/ST/STM32_USB_Device_Library/Class/MSC/Src/usbd_msc.c ****               /* Open EP IN */
 456:Middlewares/ST/STM32_USB_Device_Library/Class/MSC/Src/usbd_msc.c ****               USBD_LL_OpenEP(pdev, MSC_EPIN_ADDR, USBD_EP_TYPE_BULK,
 457:Middlewares/ST/STM32_USB_Device_Library/Class/MSC/Src/usbd_msc.c ****                              MSC_MAX_FS_PACKET);
 458:Middlewares/ST/STM32_USB_Device_Library/Class/MSC/Src/usbd_msc.c ****             }
 459:Middlewares/ST/STM32_USB_Device_Library/Class/MSC/Src/usbd_msc.c ****             pdev->ep_in[MSC_EPIN_ADDR & 0xFU].is_used = 1U;
 460:Middlewares/ST/STM32_USB_Device_Library/Class/MSC/Src/usbd_msc.c ****           }
 461:Middlewares/ST/STM32_USB_Device_Library/Class/MSC/Src/usbd_msc.c ****           else
 462:Middlewares/ST/STM32_USB_Device_Library/Class/MSC/Src/usbd_msc.c ****           {
 463:Middlewares/ST/STM32_USB_Device_Library/Class/MSC/Src/usbd_msc.c ****             pdev->ep_out[(uint8_t)req->wIndex & 0xFU].is_used = 0U;
 464:Middlewares/ST/STM32_USB_Device_Library/Class/MSC/Src/usbd_msc.c ****             if (pdev->dev_speed == USBD_SPEED_HIGH)
 465:Middlewares/ST/STM32_USB_Device_Library/Class/MSC/Src/usbd_msc.c ****             {
 466:Middlewares/ST/STM32_USB_Device_Library/Class/MSC/Src/usbd_msc.c ****               /* Open EP OUT */
 467:Middlewares/ST/STM32_USB_Device_Library/Class/MSC/Src/usbd_msc.c ****               USBD_LL_OpenEP(pdev, MSC_EPOUT_ADDR, USBD_EP_TYPE_BULK,
 468:Middlewares/ST/STM32_USB_Device_Library/Class/MSC/Src/usbd_msc.c ****                              MSC_MAX_HS_PACKET);
 469:Middlewares/ST/STM32_USB_Device_Library/Class/MSC/Src/usbd_msc.c ****             }
 470:Middlewares/ST/STM32_USB_Device_Library/Class/MSC/Src/usbd_msc.c ****             else
 471:Middlewares/ST/STM32_USB_Device_Library/Class/MSC/Src/usbd_msc.c ****             {
 472:Middlewares/ST/STM32_USB_Device_Library/Class/MSC/Src/usbd_msc.c ****               /* Open EP OUT */
 473:Middlewares/ST/STM32_USB_Device_Library/Class/MSC/Src/usbd_msc.c ****               USBD_LL_OpenEP(pdev, MSC_EPOUT_ADDR, USBD_EP_TYPE_BULK,
 474:Middlewares/ST/STM32_USB_Device_Library/Class/MSC/Src/usbd_msc.c ****                              MSC_MAX_FS_PACKET);
 475:Middlewares/ST/STM32_USB_Device_Library/Class/MSC/Src/usbd_msc.c ****             }
 476:Middlewares/ST/STM32_USB_Device_Library/Class/MSC/Src/usbd_msc.c ****             pdev->ep_out[MSC_EPOUT_ADDR & 0xFU].is_used = 1U;
 477:Middlewares/ST/STM32_USB_Device_Library/Class/MSC/Src/usbd_msc.c ****           }
 478:Middlewares/ST/STM32_USB_Device_Library/Class/MSC/Src/usbd_msc.c **** 
 479:Middlewares/ST/STM32_USB_Device_Library/Class/MSC/Src/usbd_msc.c ****           /* Handle BOT error */
 480:Middlewares/ST/STM32_USB_Device_Library/Class/MSC/Src/usbd_msc.c ****           MSC_BOT_CplClrFeature(pdev, (uint8_t)req->wIndex);
 481:Middlewares/ST/STM32_USB_Device_Library/Class/MSC/Src/usbd_msc.c ****           break;
 482:Middlewares/ST/STM32_USB_Device_Library/Class/MSC/Src/usbd_msc.c **** 
 483:Middlewares/ST/STM32_USB_Device_Library/Class/MSC/Src/usbd_msc.c ****         default:
 484:Middlewares/ST/STM32_USB_Device_Library/Class/MSC/Src/usbd_msc.c ****           USBD_CtlError(pdev, req);
 485:Middlewares/ST/STM32_USB_Device_Library/Class/MSC/Src/usbd_msc.c ****           ret = USBD_FAIL;
 486:Middlewares/ST/STM32_USB_Device_Library/Class/MSC/Src/usbd_msc.c ****           break;
 487:Middlewares/ST/STM32_USB_Device_Library/Class/MSC/Src/usbd_msc.c ****       }
ARM GAS  C:\Users\Kaa\AppData\Local\Temp\ccSmGFpc.s 			page 10


 488:Middlewares/ST/STM32_USB_Device_Library/Class/MSC/Src/usbd_msc.c ****       break;
 489:Middlewares/ST/STM32_USB_Device_Library/Class/MSC/Src/usbd_msc.c **** 
 490:Middlewares/ST/STM32_USB_Device_Library/Class/MSC/Src/usbd_msc.c ****     default:
 491:Middlewares/ST/STM32_USB_Device_Library/Class/MSC/Src/usbd_msc.c ****       USBD_CtlError(pdev, req);
 492:Middlewares/ST/STM32_USB_Device_Library/Class/MSC/Src/usbd_msc.c ****       ret = USBD_FAIL;
 493:Middlewares/ST/STM32_USB_Device_Library/Class/MSC/Src/usbd_msc.c ****       break;
 494:Middlewares/ST/STM32_USB_Device_Library/Class/MSC/Src/usbd_msc.c ****   }
 495:Middlewares/ST/STM32_USB_Device_Library/Class/MSC/Src/usbd_msc.c **** 
 496:Middlewares/ST/STM32_USB_Device_Library/Class/MSC/Src/usbd_msc.c ****   return ret;
 497:Middlewares/ST/STM32_USB_Device_Library/Class/MSC/Src/usbd_msc.c **** }
 498:Middlewares/ST/STM32_USB_Device_Library/Class/MSC/Src/usbd_msc.c **** 
 499:Middlewares/ST/STM32_USB_Device_Library/Class/MSC/Src/usbd_msc.c **** /**
 500:Middlewares/ST/STM32_USB_Device_Library/Class/MSC/Src/usbd_msc.c **** * @brief  USBD_MSC_DataIn
 501:Middlewares/ST/STM32_USB_Device_Library/Class/MSC/Src/usbd_msc.c **** *         handle data IN Stage
 502:Middlewares/ST/STM32_USB_Device_Library/Class/MSC/Src/usbd_msc.c **** * @param  pdev: device instance
 503:Middlewares/ST/STM32_USB_Device_Library/Class/MSC/Src/usbd_msc.c **** * @param  epnum: endpoint index
 504:Middlewares/ST/STM32_USB_Device_Library/Class/MSC/Src/usbd_msc.c **** * @retval status
 505:Middlewares/ST/STM32_USB_Device_Library/Class/MSC/Src/usbd_msc.c **** */
 506:Middlewares/ST/STM32_USB_Device_Library/Class/MSC/Src/usbd_msc.c **** uint8_t USBD_MSC_DataIn(USBD_HandleTypeDef *pdev, uint8_t epnum)
 507:Middlewares/ST/STM32_USB_Device_Library/Class/MSC/Src/usbd_msc.c **** {
 508:Middlewares/ST/STM32_USB_Device_Library/Class/MSC/Src/usbd_msc.c ****   MSC_BOT_DataIn(pdev, epnum);
 509:Middlewares/ST/STM32_USB_Device_Library/Class/MSC/Src/usbd_msc.c **** 
 510:Middlewares/ST/STM32_USB_Device_Library/Class/MSC/Src/usbd_msc.c ****   return USBD_OK;
 511:Middlewares/ST/STM32_USB_Device_Library/Class/MSC/Src/usbd_msc.c **** }
 512:Middlewares/ST/STM32_USB_Device_Library/Class/MSC/Src/usbd_msc.c **** 
 513:Middlewares/ST/STM32_USB_Device_Library/Class/MSC/Src/usbd_msc.c **** /**
 514:Middlewares/ST/STM32_USB_Device_Library/Class/MSC/Src/usbd_msc.c **** * @brief  USBD_MSC_DataOut
 515:Middlewares/ST/STM32_USB_Device_Library/Class/MSC/Src/usbd_msc.c **** *         handle data OUT Stage
 516:Middlewares/ST/STM32_USB_Device_Library/Class/MSC/Src/usbd_msc.c **** * @param  pdev: device instance
 517:Middlewares/ST/STM32_USB_Device_Library/Class/MSC/Src/usbd_msc.c **** * @param  epnum: endpoint index
 518:Middlewares/ST/STM32_USB_Device_Library/Class/MSC/Src/usbd_msc.c **** * @retval status
 519:Middlewares/ST/STM32_USB_Device_Library/Class/MSC/Src/usbd_msc.c **** */
 520:Middlewares/ST/STM32_USB_Device_Library/Class/MSC/Src/usbd_msc.c **** uint8_t USBD_MSC_DataOut(USBD_HandleTypeDef *pdev, uint8_t epnum)
 521:Middlewares/ST/STM32_USB_Device_Library/Class/MSC/Src/usbd_msc.c **** {
 522:Middlewares/ST/STM32_USB_Device_Library/Class/MSC/Src/usbd_msc.c ****   MSC_BOT_DataOut(pdev, epnum);
 523:Middlewares/ST/STM32_USB_Device_Library/Class/MSC/Src/usbd_msc.c **** 
 524:Middlewares/ST/STM32_USB_Device_Library/Class/MSC/Src/usbd_msc.c ****   return USBD_OK;
 525:Middlewares/ST/STM32_USB_Device_Library/Class/MSC/Src/usbd_msc.c **** }
 526:Middlewares/ST/STM32_USB_Device_Library/Class/MSC/Src/usbd_msc.c **** 
 527:Middlewares/ST/STM32_USB_Device_Library/Class/MSC/Src/usbd_msc.c **** /**
 528:Middlewares/ST/STM32_USB_Device_Library/Class/MSC/Src/usbd_msc.c **** * @brief  USBD_MSC_GetHSCfgDesc
 529:Middlewares/ST/STM32_USB_Device_Library/Class/MSC/Src/usbd_msc.c **** *         return configuration descriptor
 530:Middlewares/ST/STM32_USB_Device_Library/Class/MSC/Src/usbd_msc.c **** * @param  length : pointer data length
 531:Middlewares/ST/STM32_USB_Device_Library/Class/MSC/Src/usbd_msc.c **** * @retval pointer to descriptor buffer
 532:Middlewares/ST/STM32_USB_Device_Library/Class/MSC/Src/usbd_msc.c **** */
 533:Middlewares/ST/STM32_USB_Device_Library/Class/MSC/Src/usbd_msc.c **** uint8_t *USBD_MSC_GetHSCfgDesc(uint16_t *length)
 534:Middlewares/ST/STM32_USB_Device_Library/Class/MSC/Src/usbd_msc.c **** {
  28              		.loc 1 534 1 view -0
  29              		.cfi_startproc
  30              		@ args = 0, pretend = 0, frame = 0
  31              		@ frame_needed = 0, uses_anonymous_args = 0
  32              		@ link register save eliminated.
 535:Middlewares/ST/STM32_USB_Device_Library/Class/MSC/Src/usbd_msc.c ****   *length = sizeof(USBD_MSC_CfgHSDesc);
  33              		.loc 1 535 3 view .LVU1
  34              		.loc 1 535 11 is_stmt 0 view .LVU2
  35 0000 2023     		movs	r3, #32
  36 0002 0380     		strh	r3, [r0]	@ movhi
ARM GAS  C:\Users\Kaa\AppData\Local\Temp\ccSmGFpc.s 			page 11


 536:Middlewares/ST/STM32_USB_Device_Library/Class/MSC/Src/usbd_msc.c **** 
 537:Middlewares/ST/STM32_USB_Device_Library/Class/MSC/Src/usbd_msc.c ****   return USBD_MSC_CfgHSDesc;
  37              		.loc 1 537 3 is_stmt 1 view .LVU3
 538:Middlewares/ST/STM32_USB_Device_Library/Class/MSC/Src/usbd_msc.c **** }
  38              		.loc 1 538 1 is_stmt 0 view .LVU4
  39 0004 0048     		ldr	r0, .L2
  40              	.LVL1:
  41              		.loc 1 538 1 view .LVU5
  42 0006 7047     		bx	lr
  43              	.L3:
  44              		.align	2
  45              	.L2:
  46 0008 00000000 		.word	.LANCHOR0
  47              		.cfi_endproc
  48              	.LFE406:
  50              		.section	.text.USBD_MSC_GetFSCfgDesc,"ax",%progbits
  51              		.align	1
  52              		.global	USBD_MSC_GetFSCfgDesc
  53              		.syntax unified
  54              		.thumb
  55              		.thumb_func
  56              		.fpu softvfp
  58              	USBD_MSC_GetFSCfgDesc:
  59              	.LVL2:
  60              	.LFB407:
 539:Middlewares/ST/STM32_USB_Device_Library/Class/MSC/Src/usbd_msc.c **** 
 540:Middlewares/ST/STM32_USB_Device_Library/Class/MSC/Src/usbd_msc.c **** /**
 541:Middlewares/ST/STM32_USB_Device_Library/Class/MSC/Src/usbd_msc.c **** * @brief  USBD_MSC_GetFSCfgDesc
 542:Middlewares/ST/STM32_USB_Device_Library/Class/MSC/Src/usbd_msc.c **** *         return configuration descriptor
 543:Middlewares/ST/STM32_USB_Device_Library/Class/MSC/Src/usbd_msc.c **** * @param  length : pointer data length
 544:Middlewares/ST/STM32_USB_Device_Library/Class/MSC/Src/usbd_msc.c **** * @retval pointer to descriptor buffer
 545:Middlewares/ST/STM32_USB_Device_Library/Class/MSC/Src/usbd_msc.c **** */
 546:Middlewares/ST/STM32_USB_Device_Library/Class/MSC/Src/usbd_msc.c **** uint8_t *USBD_MSC_GetFSCfgDesc(uint16_t *length)
 547:Middlewares/ST/STM32_USB_Device_Library/Class/MSC/Src/usbd_msc.c **** {
  61              		.loc 1 547 1 is_stmt 1 view -0
  62              		.cfi_startproc
  63              		@ args = 0, pretend = 0, frame = 0
  64              		@ frame_needed = 0, uses_anonymous_args = 0
  65              		@ link register save eliminated.
 548:Middlewares/ST/STM32_USB_Device_Library/Class/MSC/Src/usbd_msc.c ****   *length = sizeof(USBD_MSC_CfgFSDesc);
  66              		.loc 1 548 3 view .LVU7
  67              		.loc 1 548 11 is_stmt 0 view .LVU8
  68 0000 2023     		movs	r3, #32
  69 0002 0380     		strh	r3, [r0]	@ movhi
 549:Middlewares/ST/STM32_USB_Device_Library/Class/MSC/Src/usbd_msc.c **** 
 550:Middlewares/ST/STM32_USB_Device_Library/Class/MSC/Src/usbd_msc.c ****   return USBD_MSC_CfgFSDesc;
  70              		.loc 1 550 3 is_stmt 1 view .LVU9
 551:Middlewares/ST/STM32_USB_Device_Library/Class/MSC/Src/usbd_msc.c **** }
  71              		.loc 1 551 1 is_stmt 0 view .LVU10
  72 0004 0048     		ldr	r0, .L5
  73              	.LVL3:
  74              		.loc 1 551 1 view .LVU11
  75 0006 7047     		bx	lr
  76              	.L6:
  77              		.align	2
  78              	.L5:
  79 0008 00000000 		.word	.LANCHOR1
ARM GAS  C:\Users\Kaa\AppData\Local\Temp\ccSmGFpc.s 			page 12


  80              		.cfi_endproc
  81              	.LFE407:
  83              		.section	.text.USBD_MSC_GetOtherSpeedCfgDesc,"ax",%progbits
  84              		.align	1
  85              		.global	USBD_MSC_GetOtherSpeedCfgDesc
  86              		.syntax unified
  87              		.thumb
  88              		.thumb_func
  89              		.fpu softvfp
  91              	USBD_MSC_GetOtherSpeedCfgDesc:
  92              	.LVL4:
  93              	.LFB408:
 552:Middlewares/ST/STM32_USB_Device_Library/Class/MSC/Src/usbd_msc.c **** 
 553:Middlewares/ST/STM32_USB_Device_Library/Class/MSC/Src/usbd_msc.c **** /**
 554:Middlewares/ST/STM32_USB_Device_Library/Class/MSC/Src/usbd_msc.c **** * @brief  USBD_MSC_GetOtherSpeedCfgDesc
 555:Middlewares/ST/STM32_USB_Device_Library/Class/MSC/Src/usbd_msc.c **** *         return other speed configuration descriptor
 556:Middlewares/ST/STM32_USB_Device_Library/Class/MSC/Src/usbd_msc.c **** * @param  length : pointer data length
 557:Middlewares/ST/STM32_USB_Device_Library/Class/MSC/Src/usbd_msc.c **** * @retval pointer to descriptor buffer
 558:Middlewares/ST/STM32_USB_Device_Library/Class/MSC/Src/usbd_msc.c **** */
 559:Middlewares/ST/STM32_USB_Device_Library/Class/MSC/Src/usbd_msc.c **** uint8_t *USBD_MSC_GetOtherSpeedCfgDesc(uint16_t *length)
 560:Middlewares/ST/STM32_USB_Device_Library/Class/MSC/Src/usbd_msc.c **** {
  94              		.loc 1 560 1 is_stmt 1 view -0
  95              		.cfi_startproc
  96              		@ args = 0, pretend = 0, frame = 0
  97              		@ frame_needed = 0, uses_anonymous_args = 0
  98              		@ link register save eliminated.
 561:Middlewares/ST/STM32_USB_Device_Library/Class/MSC/Src/usbd_msc.c ****   *length = sizeof(USBD_MSC_OtherSpeedCfgDesc);
  99              		.loc 1 561 3 view .LVU13
 100              		.loc 1 561 11 is_stmt 0 view .LVU14
 101 0000 2023     		movs	r3, #32
 102 0002 0380     		strh	r3, [r0]	@ movhi
 562:Middlewares/ST/STM32_USB_Device_Library/Class/MSC/Src/usbd_msc.c **** 
 563:Middlewares/ST/STM32_USB_Device_Library/Class/MSC/Src/usbd_msc.c ****   return USBD_MSC_OtherSpeedCfgDesc;
 103              		.loc 1 563 3 is_stmt 1 view .LVU15
 564:Middlewares/ST/STM32_USB_Device_Library/Class/MSC/Src/usbd_msc.c **** }
 104              		.loc 1 564 1 is_stmt 0 view .LVU16
 105 0004 0048     		ldr	r0, .L8
 106              	.LVL5:
 107              		.loc 1 564 1 view .LVU17
 108 0006 7047     		bx	lr
 109              	.L9:
 110              		.align	2
 111              	.L8:
 112 0008 00000000 		.word	.LANCHOR2
 113              		.cfi_endproc
 114              	.LFE408:
 116              		.section	.text.USBD_MSC_GetDeviceQualifierDescriptor,"ax",%progbits
 117              		.align	1
 118              		.global	USBD_MSC_GetDeviceQualifierDescriptor
 119              		.syntax unified
 120              		.thumb
 121              		.thumb_func
 122              		.fpu softvfp
 124              	USBD_MSC_GetDeviceQualifierDescriptor:
 125              	.LVL6:
 126              	.LFB409:
 565:Middlewares/ST/STM32_USB_Device_Library/Class/MSC/Src/usbd_msc.c **** /**
ARM GAS  C:\Users\Kaa\AppData\Local\Temp\ccSmGFpc.s 			page 13


 566:Middlewares/ST/STM32_USB_Device_Library/Class/MSC/Src/usbd_msc.c **** * @brief  DeviceQualifierDescriptor
 567:Middlewares/ST/STM32_USB_Device_Library/Class/MSC/Src/usbd_msc.c **** *         return Device Qualifier descriptor
 568:Middlewares/ST/STM32_USB_Device_Library/Class/MSC/Src/usbd_msc.c **** * @param  length : pointer data length
 569:Middlewares/ST/STM32_USB_Device_Library/Class/MSC/Src/usbd_msc.c **** * @retval pointer to descriptor buffer
 570:Middlewares/ST/STM32_USB_Device_Library/Class/MSC/Src/usbd_msc.c **** */
 571:Middlewares/ST/STM32_USB_Device_Library/Class/MSC/Src/usbd_msc.c **** uint8_t *USBD_MSC_GetDeviceQualifierDescriptor(uint16_t *length)
 572:Middlewares/ST/STM32_USB_Device_Library/Class/MSC/Src/usbd_msc.c **** {
 127              		.loc 1 572 1 is_stmt 1 view -0
 128              		.cfi_startproc
 129              		@ args = 0, pretend = 0, frame = 0
 130              		@ frame_needed = 0, uses_anonymous_args = 0
 131              		@ link register save eliminated.
 573:Middlewares/ST/STM32_USB_Device_Library/Class/MSC/Src/usbd_msc.c ****   *length = sizeof(USBD_MSC_DeviceQualifierDesc);
 132              		.loc 1 573 3 view .LVU19
 133              		.loc 1 573 11 is_stmt 0 view .LVU20
 134 0000 0A23     		movs	r3, #10
 135 0002 0380     		strh	r3, [r0]	@ movhi
 574:Middlewares/ST/STM32_USB_Device_Library/Class/MSC/Src/usbd_msc.c **** 
 575:Middlewares/ST/STM32_USB_Device_Library/Class/MSC/Src/usbd_msc.c ****   return USBD_MSC_DeviceQualifierDesc;
 136              		.loc 1 575 3 is_stmt 1 view .LVU21
 576:Middlewares/ST/STM32_USB_Device_Library/Class/MSC/Src/usbd_msc.c **** }
 137              		.loc 1 576 1 is_stmt 0 view .LVU22
 138 0004 0048     		ldr	r0, .L11
 139              	.LVL7:
 140              		.loc 1 576 1 view .LVU23
 141 0006 7047     		bx	lr
 142              	.L12:
 143              		.align	2
 144              	.L11:
 145 0008 00000000 		.word	.LANCHOR3
 146              		.cfi_endproc
 147              	.LFE409:
 149              		.section	.text.USBD_MSC_Init,"ax",%progbits
 150              		.align	1
 151              		.global	USBD_MSC_Init
 152              		.syntax unified
 153              		.thumb
 154              		.thumb_func
 155              		.fpu softvfp
 157              	USBD_MSC_Init:
 158              	.LVL8:
 159              	.LFB401:
 281:Middlewares/ST/STM32_USB_Device_Library/Class/MSC/Src/usbd_msc.c ****   if (pdev->dev_speed == USBD_SPEED_HIGH)
 160              		.loc 1 281 1 is_stmt 1 view -0
 161              		.cfi_startproc
 162              		@ args = 0, pretend = 0, frame = 0
 163              		@ frame_needed = 0, uses_anonymous_args = 0
 281:Middlewares/ST/STM32_USB_Device_Library/Class/MSC/Src/usbd_msc.c ****   if (pdev->dev_speed == USBD_SPEED_HIGH)
 164              		.loc 1 281 1 is_stmt 0 view .LVU25
 165 0000 38B5     		push	{r3, r4, r5, lr}
 166              	.LCFI0:
 167              		.cfi_def_cfa_offset 16
 168              		.cfi_offset 3, -16
 169              		.cfi_offset 4, -12
 170              		.cfi_offset 5, -8
 171              		.cfi_offset 14, -4
 172 0002 0446     		mov	r4, r0
ARM GAS  C:\Users\Kaa\AppData\Local\Temp\ccSmGFpc.s 			page 14


 282:Middlewares/ST/STM32_USB_Device_Library/Class/MSC/Src/usbd_msc.c ****   {
 173              		.loc 1 282 3 is_stmt 1 view .LVU26
 282:Middlewares/ST/STM32_USB_Device_Library/Class/MSC/Src/usbd_msc.c ****   {
 174              		.loc 1 282 11 is_stmt 0 view .LVU27
 175 0004 037C     		ldrb	r3, [r0, #16]	@ zero_extendqisi2
 282:Middlewares/ST/STM32_USB_Device_Library/Class/MSC/Src/usbd_msc.c ****   {
 176              		.loc 1 282 6 view .LVU28
 177 0006 E3B9     		cbnz	r3, .L14
 285:Middlewares/ST/STM32_USB_Device_Library/Class/MSC/Src/usbd_msc.c ****     pdev->ep_out[MSC_EPOUT_ADDR & 0xFU].is_used = 1U;
 178              		.loc 1 285 5 is_stmt 1 view .LVU29
 179 0008 4FF40073 		mov	r3, #512
 180 000c 0222     		movs	r2, #2
 181 000e 0121     		movs	r1, #1
 182              	.LVL9:
 285:Middlewares/ST/STM32_USB_Device_Library/Class/MSC/Src/usbd_msc.c ****     pdev->ep_out[MSC_EPOUT_ADDR & 0xFU].is_used = 1U;
 183              		.loc 1 285 5 is_stmt 0 view .LVU30
 184 0010 FFF7FEFF 		bl	USBD_LL_OpenEP
 185              	.LVL10:
 286:Middlewares/ST/STM32_USB_Device_Library/Class/MSC/Src/usbd_msc.c **** 
 186              		.loc 1 286 5 is_stmt 1 view .LVU31
 286:Middlewares/ST/STM32_USB_Device_Library/Class/MSC/Src/usbd_msc.c **** 
 187              		.loc 1 286 49 is_stmt 0 view .LVU32
 188 0014 0125     		movs	r5, #1
 189 0016 C4F86C51 		str	r5, [r4, #364]
 289:Middlewares/ST/STM32_USB_Device_Library/Class/MSC/Src/usbd_msc.c ****     pdev->ep_in[MSC_EPIN_ADDR & 0xFU].is_used = 1U;
 190              		.loc 1 289 5 is_stmt 1 view .LVU33
 191 001a 4FF40073 		mov	r3, #512
 192 001e 0222     		movs	r2, #2
 193 0020 8121     		movs	r1, #129
 194 0022 2046     		mov	r0, r4
 195 0024 FFF7FEFF 		bl	USBD_LL_OpenEP
 196              	.LVL11:
 290:Middlewares/ST/STM32_USB_Device_Library/Class/MSC/Src/usbd_msc.c ****   }
 197              		.loc 1 290 5 view .LVU34
 290:Middlewares/ST/STM32_USB_Device_Library/Class/MSC/Src/usbd_msc.c ****   }
 198              		.loc 1 290 47 is_stmt 0 view .LVU35
 199 0028 E562     		str	r5, [r4, #44]
 200              	.L15:
 302:Middlewares/ST/STM32_USB_Device_Library/Class/MSC/Src/usbd_msc.c **** 
 201              		.loc 1 302 3 is_stmt 1 view .LVU36
 302:Middlewares/ST/STM32_USB_Device_Library/Class/MSC/Src/usbd_msc.c **** 
 202              		.loc 1 302 22 is_stmt 0 view .LVU37
 203 002a 4FF41B70 		mov	r0, #620
 204 002e FFF7FEFF 		bl	USBD_static_malloc
 205              	.LVL12:
 302:Middlewares/ST/STM32_USB_Device_Library/Class/MSC/Src/usbd_msc.c **** 
 206              		.loc 1 302 20 view .LVU38
 207 0032 C4F8B802 		str	r0, [r4, #696]
 304:Middlewares/ST/STM32_USB_Device_Library/Class/MSC/Src/usbd_msc.c ****   {
 208              		.loc 1 304 3 is_stmt 1 view .LVU39
 304:Middlewares/ST/STM32_USB_Device_Library/Class/MSC/Src/usbd_msc.c ****   {
 209              		.loc 1 304 6 is_stmt 0 view .LVU40
 210 0036 A0B1     		cbz	r0, .L17
 310:Middlewares/ST/STM32_USB_Device_Library/Class/MSC/Src/usbd_msc.c **** 
 211              		.loc 1 310 3 is_stmt 1 view .LVU41
 212 0038 2046     		mov	r0, r4
 213 003a FFF7FEFF 		bl	MSC_BOT_Init
ARM GAS  C:\Users\Kaa\AppData\Local\Temp\ccSmGFpc.s 			page 15


 214              	.LVL13:
 312:Middlewares/ST/STM32_USB_Device_Library/Class/MSC/Src/usbd_msc.c **** }
 215              		.loc 1 312 3 view .LVU42
 312:Middlewares/ST/STM32_USB_Device_Library/Class/MSC/Src/usbd_msc.c **** }
 216              		.loc 1 312 10 is_stmt 0 view .LVU43
 217 003e 0020     		movs	r0, #0
 218              	.L16:
 313:Middlewares/ST/STM32_USB_Device_Library/Class/MSC/Src/usbd_msc.c **** 
 219              		.loc 1 313 1 view .LVU44
 220 0040 38BD     		pop	{r3, r4, r5, pc}
 221              	.LVL14:
 222              	.L14:
 295:Middlewares/ST/STM32_USB_Device_Library/Class/MSC/Src/usbd_msc.c ****     pdev->ep_out[MSC_EPOUT_ADDR & 0xFU].is_used = 1U;
 223              		.loc 1 295 5 is_stmt 1 view .LVU45
 224 0042 4023     		movs	r3, #64
 225 0044 0222     		movs	r2, #2
 226 0046 0121     		movs	r1, #1
 227              	.LVL15:
 295:Middlewares/ST/STM32_USB_Device_Library/Class/MSC/Src/usbd_msc.c ****     pdev->ep_out[MSC_EPOUT_ADDR & 0xFU].is_used = 1U;
 228              		.loc 1 295 5 is_stmt 0 view .LVU46
 229 0048 FFF7FEFF 		bl	USBD_LL_OpenEP
 230              	.LVL16:
 296:Middlewares/ST/STM32_USB_Device_Library/Class/MSC/Src/usbd_msc.c **** 
 231              		.loc 1 296 5 is_stmt 1 view .LVU47
 296:Middlewares/ST/STM32_USB_Device_Library/Class/MSC/Src/usbd_msc.c **** 
 232              		.loc 1 296 49 is_stmt 0 view .LVU48
 233 004c 0125     		movs	r5, #1
 234 004e C4F86C51 		str	r5, [r4, #364]
 299:Middlewares/ST/STM32_USB_Device_Library/Class/MSC/Src/usbd_msc.c ****     pdev->ep_in[MSC_EPIN_ADDR & 0xFU].is_used = 1U;
 235              		.loc 1 299 5 is_stmt 1 view .LVU49
 236 0052 4023     		movs	r3, #64
 237 0054 0222     		movs	r2, #2
 238 0056 8121     		movs	r1, #129
 239 0058 2046     		mov	r0, r4
 240 005a FFF7FEFF 		bl	USBD_LL_OpenEP
 241              	.LVL17:
 300:Middlewares/ST/STM32_USB_Device_Library/Class/MSC/Src/usbd_msc.c ****   }
 242              		.loc 1 300 5 view .LVU50
 300:Middlewares/ST/STM32_USB_Device_Library/Class/MSC/Src/usbd_msc.c ****   }
 243              		.loc 1 300 47 is_stmt 0 view .LVU51
 244 005e E562     		str	r5, [r4, #44]
 245 0060 E3E7     		b	.L15
 246              	.L17:
 306:Middlewares/ST/STM32_USB_Device_Library/Class/MSC/Src/usbd_msc.c ****   }
 247              		.loc 1 306 12 view .LVU52
 248 0062 0220     		movs	r0, #2
 249 0064 ECE7     		b	.L16
 250              		.cfi_endproc
 251              	.LFE401:
 253              		.section	.text.USBD_MSC_DeInit,"ax",%progbits
 254              		.align	1
 255              		.global	USBD_MSC_DeInit
 256              		.syntax unified
 257              		.thumb
 258              		.thumb_func
 259              		.fpu softvfp
 261              	USBD_MSC_DeInit:
ARM GAS  C:\Users\Kaa\AppData\Local\Temp\ccSmGFpc.s 			page 16


 262              	.LVL18:
 263              	.LFB402:
 324:Middlewares/ST/STM32_USB_Device_Library/Class/MSC/Src/usbd_msc.c ****   /* Close MSC EPs */
 264              		.loc 1 324 1 is_stmt 1 view -0
 265              		.cfi_startproc
 266              		@ args = 0, pretend = 0, frame = 0
 267              		@ frame_needed = 0, uses_anonymous_args = 0
 324:Middlewares/ST/STM32_USB_Device_Library/Class/MSC/Src/usbd_msc.c ****   /* Close MSC EPs */
 268              		.loc 1 324 1 is_stmt 0 view .LVU54
 269 0000 38B5     		push	{r3, r4, r5, lr}
 270              	.LCFI1:
 271              		.cfi_def_cfa_offset 16
 272              		.cfi_offset 3, -16
 273              		.cfi_offset 4, -12
 274              		.cfi_offset 5, -8
 275              		.cfi_offset 14, -4
 276 0002 0446     		mov	r4, r0
 326:Middlewares/ST/STM32_USB_Device_Library/Class/MSC/Src/usbd_msc.c ****   pdev->ep_out[MSC_EPOUT_ADDR & 0xFU].is_used = 0U;
 277              		.loc 1 326 3 is_stmt 1 view .LVU55
 278 0004 0121     		movs	r1, #1
 279              	.LVL19:
 326:Middlewares/ST/STM32_USB_Device_Library/Class/MSC/Src/usbd_msc.c ****   pdev->ep_out[MSC_EPOUT_ADDR & 0xFU].is_used = 0U;
 280              		.loc 1 326 3 is_stmt 0 view .LVU56
 281 0006 FFF7FEFF 		bl	USBD_LL_CloseEP
 282              	.LVL20:
 327:Middlewares/ST/STM32_USB_Device_Library/Class/MSC/Src/usbd_msc.c **** 
 283              		.loc 1 327 3 is_stmt 1 view .LVU57
 327:Middlewares/ST/STM32_USB_Device_Library/Class/MSC/Src/usbd_msc.c **** 
 284              		.loc 1 327 47 is_stmt 0 view .LVU58
 285 000a 0025     		movs	r5, #0
 286 000c C4F86C51 		str	r5, [r4, #364]
 330:Middlewares/ST/STM32_USB_Device_Library/Class/MSC/Src/usbd_msc.c ****   pdev->ep_in[MSC_EPIN_ADDR & 0xFU].is_used = 0U;
 287              		.loc 1 330 3 is_stmt 1 view .LVU59
 288 0010 8121     		movs	r1, #129
 289 0012 2046     		mov	r0, r4
 290 0014 FFF7FEFF 		bl	USBD_LL_CloseEP
 291              	.LVL21:
 331:Middlewares/ST/STM32_USB_Device_Library/Class/MSC/Src/usbd_msc.c **** 
 292              		.loc 1 331 3 view .LVU60
 331:Middlewares/ST/STM32_USB_Device_Library/Class/MSC/Src/usbd_msc.c **** 
 293              		.loc 1 331 45 is_stmt 0 view .LVU61
 294 0018 E562     		str	r5, [r4, #44]
 334:Middlewares/ST/STM32_USB_Device_Library/Class/MSC/Src/usbd_msc.c **** 
 295              		.loc 1 334 3 is_stmt 1 view .LVU62
 296 001a 2046     		mov	r0, r4
 297 001c FFF7FEFF 		bl	MSC_BOT_DeInit
 298              	.LVL22:
 337:Middlewares/ST/STM32_USB_Device_Library/Class/MSC/Src/usbd_msc.c ****   {
 299              		.loc 1 337 3 view .LVU63
 337:Middlewares/ST/STM32_USB_Device_Library/Class/MSC/Src/usbd_msc.c ****   {
 300              		.loc 1 337 11 is_stmt 0 view .LVU64
 301 0020 D4F8B802 		ldr	r0, [r4, #696]
 337:Middlewares/ST/STM32_USB_Device_Library/Class/MSC/Src/usbd_msc.c ****   {
 302              		.loc 1 337 6 view .LVU65
 303 0024 18B1     		cbz	r0, .L20
 339:Middlewares/ST/STM32_USB_Device_Library/Class/MSC/Src/usbd_msc.c ****     pdev->pClassData  = NULL;
 304              		.loc 1 339 5 is_stmt 1 view .LVU66
ARM GAS  C:\Users\Kaa\AppData\Local\Temp\ccSmGFpc.s 			page 17


 305 0026 FFF7FEFF 		bl	USBD_static_free
 306              	.LVL23:
 340:Middlewares/ST/STM32_USB_Device_Library/Class/MSC/Src/usbd_msc.c ****   }
 307              		.loc 1 340 5 view .LVU67
 340:Middlewares/ST/STM32_USB_Device_Library/Class/MSC/Src/usbd_msc.c ****   }
 308              		.loc 1 340 23 is_stmt 0 view .LVU68
 309 002a C4F8B852 		str	r5, [r4, #696]
 310              	.L20:
 343:Middlewares/ST/STM32_USB_Device_Library/Class/MSC/Src/usbd_msc.c **** }
 311              		.loc 1 343 3 is_stmt 1 view .LVU69
 344:Middlewares/ST/STM32_USB_Device_Library/Class/MSC/Src/usbd_msc.c **** /**
 312              		.loc 1 344 1 is_stmt 0 view .LVU70
 313 002e 0020     		movs	r0, #0
 314 0030 38BD     		pop	{r3, r4, r5, pc}
 344:Middlewares/ST/STM32_USB_Device_Library/Class/MSC/Src/usbd_msc.c **** /**
 315              		.loc 1 344 1 view .LVU71
 316              		.cfi_endproc
 317              	.LFE402:
 319              		.section	.text.USBD_MSC_Setup,"ax",%progbits
 320              		.align	1
 321              		.global	USBD_MSC_Setup
 322              		.syntax unified
 323              		.thumb
 324              		.thumb_func
 325              		.fpu softvfp
 327              	USBD_MSC_Setup:
 328              	.LVL24:
 329              	.LFB403:
 353:Middlewares/ST/STM32_USB_Device_Library/Class/MSC/Src/usbd_msc.c ****   USBD_MSC_BOT_HandleTypeDef *hmsc = (USBD_MSC_BOT_HandleTypeDef *) pdev->pClassData;
 330              		.loc 1 353 1 is_stmt 1 view -0
 331              		.cfi_startproc
 332              		@ args = 0, pretend = 0, frame = 8
 333              		@ frame_needed = 0, uses_anonymous_args = 0
 353:Middlewares/ST/STM32_USB_Device_Library/Class/MSC/Src/usbd_msc.c ****   USBD_MSC_BOT_HandleTypeDef *hmsc = (USBD_MSC_BOT_HandleTypeDef *) pdev->pClassData;
 334              		.loc 1 353 1 is_stmt 0 view .LVU73
 335 0000 70B5     		push	{r4, r5, r6, lr}
 336              	.LCFI2:
 337              		.cfi_def_cfa_offset 16
 338              		.cfi_offset 4, -16
 339              		.cfi_offset 5, -12
 340              		.cfi_offset 6, -8
 341              		.cfi_offset 14, -4
 342 0002 82B0     		sub	sp, sp, #8
 343              	.LCFI3:
 344              		.cfi_def_cfa_offset 24
 345 0004 0546     		mov	r5, r0
 346 0006 0C46     		mov	r4, r1
 354:Middlewares/ST/STM32_USB_Device_Library/Class/MSC/Src/usbd_msc.c ****   uint8_t ret = USBD_OK;
 347              		.loc 1 354 3 is_stmt 1 view .LVU74
 354:Middlewares/ST/STM32_USB_Device_Library/Class/MSC/Src/usbd_msc.c ****   uint8_t ret = USBD_OK;
 348              		.loc 1 354 31 is_stmt 0 view .LVU75
 349 0008 D0F8B862 		ldr	r6, [r0, #696]
 350              	.LVL25:
 355:Middlewares/ST/STM32_USB_Device_Library/Class/MSC/Src/usbd_msc.c ****   uint16_t status_info = 0U;
 351              		.loc 1 355 3 is_stmt 1 view .LVU76
 356:Middlewares/ST/STM32_USB_Device_Library/Class/MSC/Src/usbd_msc.c **** 
 352              		.loc 1 356 3 view .LVU77
ARM GAS  C:\Users\Kaa\AppData\Local\Temp\ccSmGFpc.s 			page 18


 356:Middlewares/ST/STM32_USB_Device_Library/Class/MSC/Src/usbd_msc.c **** 
 353              		.loc 1 356 12 is_stmt 0 view .LVU78
 354 000c 0023     		movs	r3, #0
 355 000e ADF80630 		strh	r3, [sp, #6]	@ movhi
 358:Middlewares/ST/STM32_USB_Device_Library/Class/MSC/Src/usbd_msc.c ****   {
 356              		.loc 1 358 3 is_stmt 1 view .LVU79
 358:Middlewares/ST/STM32_USB_Device_Library/Class/MSC/Src/usbd_msc.c ****   {
 357              		.loc 1 358 14 is_stmt 0 view .LVU80
 358 0012 0B78     		ldrb	r3, [r1]	@ zero_extendqisi2
 358:Middlewares/ST/STM32_USB_Device_Library/Class/MSC/Src/usbd_msc.c ****   {
 359              		.loc 1 358 3 view .LVU81
 360 0014 13F06002 		ands	r2, r3, #96
 361 0018 36D0     		beq	.L23
 362 001a 202A     		cmp	r2, #32
 363 001c 40F0B480 		bne	.L24
 362:Middlewares/ST/STM32_USB_Device_Library/Class/MSC/Src/usbd_msc.c ****       {
 364              		.loc 1 362 7 is_stmt 1 view .LVU82
 362:Middlewares/ST/STM32_USB_Device_Library/Class/MSC/Src/usbd_msc.c ****       {
 365              		.loc 1 362 18 is_stmt 0 view .LVU83
 366 0020 4A78     		ldrb	r2, [r1, #1]	@ zero_extendqisi2
 367 0022 FE2A     		cmp	r2, #254
 368 0024 05D0     		beq	.L25
 369 0026 FF2A     		cmp	r2, #255
 370 0028 1DD0     		beq	.L26
 392:Middlewares/ST/STM32_USB_Device_Library/Class/MSC/Src/usbd_msc.c ****           ret = USBD_FAIL;
 371              		.loc 1 392 11 is_stmt 1 view .LVU84
 372 002a FFF7FEFF 		bl	USBD_CtlError
 373              	.LVL26:
 393:Middlewares/ST/STM32_USB_Device_Library/Class/MSC/Src/usbd_msc.c ****           break;
 374              		.loc 1 393 11 view .LVU85
 394:Middlewares/ST/STM32_USB_Device_Library/Class/MSC/Src/usbd_msc.c ****       }
 375              		.loc 1 394 11 view .LVU86
 393:Middlewares/ST/STM32_USB_Device_Library/Class/MSC/Src/usbd_msc.c ****           break;
 376              		.loc 1 393 15 is_stmt 0 view .LVU87
 377 002e 0220     		movs	r0, #2
 394:Middlewares/ST/STM32_USB_Device_Library/Class/MSC/Src/usbd_msc.c ****       }
 378              		.loc 1 394 11 view .LVU88
 379 0030 ADE0     		b	.L29
 380              	.LVL27:
 381              	.L25:
 365:Middlewares/ST/STM32_USB_Device_Library/Class/MSC/Src/usbd_msc.c ****               ((req->bmRequest & 0x80U) == 0x80U))
 382              		.loc 1 365 11 is_stmt 1 view .LVU89
 365:Middlewares/ST/STM32_USB_Device_Library/Class/MSC/Src/usbd_msc.c ****               ((req->bmRequest & 0x80U) == 0x80U))
 383              		.loc 1 365 19 is_stmt 0 view .LVU90
 384 0032 4A88     		ldrh	r2, [r1, #2]
 365:Middlewares/ST/STM32_USB_Device_Library/Class/MSC/Src/usbd_msc.c ****               ((req->bmRequest & 0x80U) == 0x80U))
 385              		.loc 1 365 14 view .LVU91
 386 0034 12B9     		cbnz	r2, .L28
 365:Middlewares/ST/STM32_USB_Device_Library/Class/MSC/Src/usbd_msc.c ****               ((req->bmRequest & 0x80U) == 0x80U))
 387              		.loc 1 365 43 discriminator 1 view .LVU92
 388 0036 CA88     		ldrh	r2, [r1, #6]
 365:Middlewares/ST/STM32_USB_Device_Library/Class/MSC/Src/usbd_msc.c ****               ((req->bmRequest & 0x80U) == 0x80U))
 389              		.loc 1 365 36 discriminator 1 view .LVU93
 390 0038 012A     		cmp	r2, #1
 391 003a 05D0     		beq	.L48
 392              	.L28:
 373:Middlewares/ST/STM32_USB_Device_Library/Class/MSC/Src/usbd_msc.c ****             ret = USBD_FAIL;
ARM GAS  C:\Users\Kaa\AppData\Local\Temp\ccSmGFpc.s 			page 19


 393              		.loc 1 373 13 is_stmt 1 view .LVU94
 394 003c 2146     		mov	r1, r4
 395              	.LVL28:
 373:Middlewares/ST/STM32_USB_Device_Library/Class/MSC/Src/usbd_msc.c ****             ret = USBD_FAIL;
 396              		.loc 1 373 13 is_stmt 0 view .LVU95
 397 003e 2846     		mov	r0, r5
 398              	.LVL29:
 373:Middlewares/ST/STM32_USB_Device_Library/Class/MSC/Src/usbd_msc.c ****             ret = USBD_FAIL;
 399              		.loc 1 373 13 view .LVU96
 400 0040 FFF7FEFF 		bl	USBD_CtlError
 401              	.LVL30:
 374:Middlewares/ST/STM32_USB_Device_Library/Class/MSC/Src/usbd_msc.c ****           }
 402              		.loc 1 374 13 is_stmt 1 view .LVU97
 374:Middlewares/ST/STM32_USB_Device_Library/Class/MSC/Src/usbd_msc.c ****           }
 403              		.loc 1 374 17 is_stmt 0 view .LVU98
 404 0044 0220     		movs	r0, #2
 405 0046 A2E0     		b	.L29
 406              	.LVL31:
 407              	.L48:
 365:Middlewares/ST/STM32_USB_Device_Library/Class/MSC/Src/usbd_msc.c ****               ((req->bmRequest & 0x80U) == 0x80U))
 408              		.loc 1 365 60 discriminator 2 view .LVU99
 409 0048 13F0800F 		tst	r3, #128
 410 004c F6D0     		beq	.L28
 368:Middlewares/ST/STM32_USB_Device_Library/Class/MSC/Src/usbd_msc.c ****             USBD_CtlSendData(pdev, (uint8_t *)(void *)&hmsc->max_lun, 1U);
 411              		.loc 1 368 13 is_stmt 1 view .LVU100
 368:Middlewares/ST/STM32_USB_Device_Library/Class/MSC/Src/usbd_msc.c ****             USBD_CtlSendData(pdev, (uint8_t *)(void *)&hmsc->max_lun, 1U);
 412              		.loc 1 368 67 is_stmt 0 view .LVU101
 413 004e D0F8BC32 		ldr	r3, [r0, #700]
 368:Middlewares/ST/STM32_USB_Device_Library/Class/MSC/Src/usbd_msc.c ****             USBD_CtlSendData(pdev, (uint8_t *)(void *)&hmsc->max_lun, 1U);
 414              		.loc 1 368 79 view .LVU102
 415 0052 9B69     		ldr	r3, [r3, #24]
 368:Middlewares/ST/STM32_USB_Device_Library/Class/MSC/Src/usbd_msc.c ****             USBD_CtlSendData(pdev, (uint8_t *)(void *)&hmsc->max_lun, 1U);
 416              		.loc 1 368 40 view .LVU103
 417 0054 9847     		blx	r3
 418              	.LVL32:
 368:Middlewares/ST/STM32_USB_Device_Library/Class/MSC/Src/usbd_msc.c ****             USBD_CtlSendData(pdev, (uint8_t *)(void *)&hmsc->max_lun, 1U);
 419              		.loc 1 368 27 view .LVU104
 420 0056 3060     		str	r0, [r6]
 369:Middlewares/ST/STM32_USB_Device_Library/Class/MSC/Src/usbd_msc.c ****           }
 421              		.loc 1 369 13 is_stmt 1 view .LVU105
 422 0058 0122     		movs	r2, #1
 423 005a 3146     		mov	r1, r6
 424 005c 2846     		mov	r0, r5
 425 005e FFF7FEFF 		bl	USBD_CtlSendData
 426              	.LVL33:
 355:Middlewares/ST/STM32_USB_Device_Library/Class/MSC/Src/usbd_msc.c ****   uint16_t status_info = 0U;
 427              		.loc 1 355 11 is_stmt 0 view .LVU106
 428 0062 0020     		movs	r0, #0
 369:Middlewares/ST/STM32_USB_Device_Library/Class/MSC/Src/usbd_msc.c ****           }
 429              		.loc 1 369 13 view .LVU107
 430 0064 93E0     		b	.L29
 431              	.LVL34:
 432              	.L26:
 379:Middlewares/ST/STM32_USB_Device_Library/Class/MSC/Src/usbd_msc.c ****               ((req->bmRequest & 0x80U) != 0x80U))
 433              		.loc 1 379 11 is_stmt 1 view .LVU108
 379:Middlewares/ST/STM32_USB_Device_Library/Class/MSC/Src/usbd_msc.c ****               ((req->bmRequest & 0x80U) != 0x80U))
 434              		.loc 1 379 19 is_stmt 0 view .LVU109
ARM GAS  C:\Users\Kaa\AppData\Local\Temp\ccSmGFpc.s 			page 20


 435 0066 4A88     		ldrh	r2, [r1, #2]
 379:Middlewares/ST/STM32_USB_Device_Library/Class/MSC/Src/usbd_msc.c ****               ((req->bmRequest & 0x80U) != 0x80U))
 436              		.loc 1 379 14 view .LVU110
 437 0068 42B9     		cbnz	r2, .L30
 379:Middlewares/ST/STM32_USB_Device_Library/Class/MSC/Src/usbd_msc.c ****               ((req->bmRequest & 0x80U) != 0x80U))
 438              		.loc 1 379 43 discriminator 1 view .LVU111
 439 006a CA88     		ldrh	r2, [r1, #6]
 379:Middlewares/ST/STM32_USB_Device_Library/Class/MSC/Src/usbd_msc.c ****               ((req->bmRequest & 0x80U) != 0x80U))
 440              		.loc 1 379 36 discriminator 1 view .LVU112
 441 006c 32B9     		cbnz	r2, .L30
 379:Middlewares/ST/STM32_USB_Device_Library/Class/MSC/Src/usbd_msc.c ****               ((req->bmRequest & 0x80U) != 0x80U))
 442              		.loc 1 379 60 discriminator 2 view .LVU113
 443 006e 13F0800F 		tst	r3, #128
 444 0072 03D1     		bne	.L30
 382:Middlewares/ST/STM32_USB_Device_Library/Class/MSC/Src/usbd_msc.c ****           }
 445              		.loc 1 382 13 is_stmt 1 view .LVU114
 446 0074 FFF7FEFF 		bl	MSC_BOT_Reset
 447              	.LVL35:
 355:Middlewares/ST/STM32_USB_Device_Library/Class/MSC/Src/usbd_msc.c ****   uint16_t status_info = 0U;
 448              		.loc 1 355 11 is_stmt 0 view .LVU115
 449 0078 0020     		movs	r0, #0
 382:Middlewares/ST/STM32_USB_Device_Library/Class/MSC/Src/usbd_msc.c ****           }
 450              		.loc 1 382 13 view .LVU116
 451 007a 88E0     		b	.L29
 452              	.LVL36:
 453              	.L30:
 386:Middlewares/ST/STM32_USB_Device_Library/Class/MSC/Src/usbd_msc.c ****             ret = USBD_FAIL;
 454              		.loc 1 386 13 is_stmt 1 view .LVU117
 455 007c 2146     		mov	r1, r4
 456              	.LVL37:
 386:Middlewares/ST/STM32_USB_Device_Library/Class/MSC/Src/usbd_msc.c ****             ret = USBD_FAIL;
 457              		.loc 1 386 13 is_stmt 0 view .LVU118
 458 007e 2846     		mov	r0, r5
 459              	.LVL38:
 386:Middlewares/ST/STM32_USB_Device_Library/Class/MSC/Src/usbd_msc.c ****             ret = USBD_FAIL;
 460              		.loc 1 386 13 view .LVU119
 461 0080 FFF7FEFF 		bl	USBD_CtlError
 462              	.LVL39:
 387:Middlewares/ST/STM32_USB_Device_Library/Class/MSC/Src/usbd_msc.c ****           }
 463              		.loc 1 387 13 is_stmt 1 view .LVU120
 387:Middlewares/ST/STM32_USB_Device_Library/Class/MSC/Src/usbd_msc.c ****           }
 464              		.loc 1 387 17 is_stmt 0 view .LVU121
 465 0084 0220     		movs	r0, #2
 466 0086 82E0     		b	.L29
 467              	.LVL40:
 468              	.L23:
 399:Middlewares/ST/STM32_USB_Device_Library/Class/MSC/Src/usbd_msc.c ****       {
 469              		.loc 1 399 7 is_stmt 1 view .LVU122
 399:Middlewares/ST/STM32_USB_Device_Library/Class/MSC/Src/usbd_msc.c ****       {
 470              		.loc 1 399 18 is_stmt 0 view .LVU123
 471 0088 4B78     		ldrb	r3, [r1, #1]	@ zero_extendqisi2
 472 008a 0B2B     		cmp	r3, #11
 473 008c 78D8     		bhi	.L31
 474 008e DFE803F0 		tbb	[pc, r3]
 475              	.L33:
 476 0092 06       		.byte	(.L36-.L33)/2
 477 0093 2F       		.byte	(.L35-.L33)/2
ARM GAS  C:\Users\Kaa\AppData\Local\Temp\ccSmGFpc.s 			page 21


 478 0094 77       		.byte	(.L31-.L33)/2
 479 0095 77       		.byte	(.L31-.L33)/2
 480 0096 77       		.byte	(.L31-.L33)/2
 481 0097 77       		.byte	(.L31-.L33)/2
 482 0098 77       		.byte	(.L31-.L33)/2
 483 0099 77       		.byte	(.L31-.L33)/2
 484 009a 77       		.byte	(.L31-.L33)/2
 485 009b 77       		.byte	(.L31-.L33)/2
 486 009c 15       		.byte	(.L34-.L33)/2
 487 009d 23       		.byte	(.L32-.L33)/2
 488              		.p2align 1
 489              	.L36:
 402:Middlewares/ST/STM32_USB_Device_Library/Class/MSC/Src/usbd_msc.c ****           {
 490              		.loc 1 402 11 is_stmt 1 view .LVU124
 402:Middlewares/ST/STM32_USB_Device_Library/Class/MSC/Src/usbd_msc.c ****           {
 491              		.loc 1 402 19 is_stmt 0 view .LVU125
 492 009e 90F89C32 		ldrb	r3, [r0, #668]	@ zero_extendqisi2
 402:Middlewares/ST/STM32_USB_Device_Library/Class/MSC/Src/usbd_msc.c ****           {
 493              		.loc 1 402 14 view .LVU126
 494 00a2 032B     		cmp	r3, #3
 495 00a4 03D0     		beq	.L49
 408:Middlewares/ST/STM32_USB_Device_Library/Class/MSC/Src/usbd_msc.c ****             ret = USBD_FAIL;
 496              		.loc 1 408 13 is_stmt 1 view .LVU127
 497 00a6 FFF7FEFF 		bl	USBD_CtlError
 498              	.LVL41:
 409:Middlewares/ST/STM32_USB_Device_Library/Class/MSC/Src/usbd_msc.c ****           }
 499              		.loc 1 409 13 view .LVU128
 409:Middlewares/ST/STM32_USB_Device_Library/Class/MSC/Src/usbd_msc.c ****           }
 500              		.loc 1 409 17 is_stmt 0 view .LVU129
 501 00aa 0220     		movs	r0, #2
 502 00ac 6FE0     		b	.L29
 503              	.LVL42:
 504              	.L49:
 404:Middlewares/ST/STM32_USB_Device_Library/Class/MSC/Src/usbd_msc.c ****           }
 505              		.loc 1 404 13 is_stmt 1 view .LVU130
 506 00ae 0222     		movs	r2, #2
 507 00b0 0DF10601 		add	r1, sp, #6
 508              	.LVL43:
 404:Middlewares/ST/STM32_USB_Device_Library/Class/MSC/Src/usbd_msc.c ****           }
 509              		.loc 1 404 13 is_stmt 0 view .LVU131
 510 00b4 FFF7FEFF 		bl	USBD_CtlSendData
 511              	.LVL44:
 355:Middlewares/ST/STM32_USB_Device_Library/Class/MSC/Src/usbd_msc.c ****   uint16_t status_info = 0U;
 512              		.loc 1 355 11 view .LVU132
 513 00b8 0020     		movs	r0, #0
 514 00ba 68E0     		b	.L29
 515              	.LVL45:
 516              	.L34:
 414:Middlewares/ST/STM32_USB_Device_Library/Class/MSC/Src/usbd_msc.c ****           {
 517              		.loc 1 414 11 is_stmt 1 view .LVU133
 414:Middlewares/ST/STM32_USB_Device_Library/Class/MSC/Src/usbd_msc.c ****           {
 518              		.loc 1 414 19 is_stmt 0 view .LVU134
 519 00bc 90F89C32 		ldrb	r3, [r0, #668]	@ zero_extendqisi2
 414:Middlewares/ST/STM32_USB_Device_Library/Class/MSC/Src/usbd_msc.c ****           {
 520              		.loc 1 414 14 view .LVU135
 521 00c0 032B     		cmp	r3, #3
 522 00c2 03D0     		beq	.L50
ARM GAS  C:\Users\Kaa\AppData\Local\Temp\ccSmGFpc.s 			page 22


 420:Middlewares/ST/STM32_USB_Device_Library/Class/MSC/Src/usbd_msc.c ****             ret = USBD_FAIL;
 523              		.loc 1 420 13 is_stmt 1 view .LVU136
 524 00c4 FFF7FEFF 		bl	USBD_CtlError
 525              	.LVL46:
 421:Middlewares/ST/STM32_USB_Device_Library/Class/MSC/Src/usbd_msc.c ****           }
 526              		.loc 1 421 13 view .LVU137
 421:Middlewares/ST/STM32_USB_Device_Library/Class/MSC/Src/usbd_msc.c ****           }
 527              		.loc 1 421 17 is_stmt 0 view .LVU138
 528 00c8 0220     		movs	r0, #2
 529 00ca 60E0     		b	.L29
 530              	.LVL47:
 531              	.L50:
 416:Middlewares/ST/STM32_USB_Device_Library/Class/MSC/Src/usbd_msc.c ****           }
 532              		.loc 1 416 13 is_stmt 1 view .LVU139
 533 00cc 0122     		movs	r2, #1
 534 00ce 311D     		adds	r1, r6, #4
 535              	.LVL48:
 416:Middlewares/ST/STM32_USB_Device_Library/Class/MSC/Src/usbd_msc.c ****           }
 536              		.loc 1 416 13 is_stmt 0 view .LVU140
 537 00d0 FFF7FEFF 		bl	USBD_CtlSendData
 538              	.LVL49:
 355:Middlewares/ST/STM32_USB_Device_Library/Class/MSC/Src/usbd_msc.c ****   uint16_t status_info = 0U;
 539              		.loc 1 355 11 view .LVU141
 540 00d4 0020     		movs	r0, #0
 541 00d6 5AE0     		b	.L29
 542              	.LVL50:
 543              	.L32:
 426:Middlewares/ST/STM32_USB_Device_Library/Class/MSC/Src/usbd_msc.c ****           {
 544              		.loc 1 426 11 is_stmt 1 view .LVU142
 426:Middlewares/ST/STM32_USB_Device_Library/Class/MSC/Src/usbd_msc.c ****           {
 545              		.loc 1 426 19 is_stmt 0 view .LVU143
 546 00d8 90F89C32 		ldrb	r3, [r0, #668]	@ zero_extendqisi2
 426:Middlewares/ST/STM32_USB_Device_Library/Class/MSC/Src/usbd_msc.c ****           {
 547              		.loc 1 426 14 view .LVU144
 548 00dc 032B     		cmp	r3, #3
 549 00de 03D1     		bne	.L39
 428:Middlewares/ST/STM32_USB_Device_Library/Class/MSC/Src/usbd_msc.c ****           }
 550              		.loc 1 428 13 is_stmt 1 view .LVU145
 428:Middlewares/ST/STM32_USB_Device_Library/Class/MSC/Src/usbd_msc.c ****           }
 551              		.loc 1 428 31 is_stmt 0 view .LVU146
 552 00e0 8B78     		ldrb	r3, [r1, #2]	@ zero_extendqisi2
 428:Middlewares/ST/STM32_USB_Device_Library/Class/MSC/Src/usbd_msc.c ****           }
 553              		.loc 1 428 29 view .LVU147
 554 00e2 7360     		str	r3, [r6, #4]
 355:Middlewares/ST/STM32_USB_Device_Library/Class/MSC/Src/usbd_msc.c ****   uint16_t status_info = 0U;
 555              		.loc 1 355 11 view .LVU148
 556 00e4 0020     		movs	r0, #0
 557              	.LVL51:
 355:Middlewares/ST/STM32_USB_Device_Library/Class/MSC/Src/usbd_msc.c ****   uint16_t status_info = 0U;
 558              		.loc 1 355 11 view .LVU149
 559 00e6 52E0     		b	.L29
 560              	.LVL52:
 561              	.L39:
 432:Middlewares/ST/STM32_USB_Device_Library/Class/MSC/Src/usbd_msc.c ****             ret = USBD_FAIL;
 562              		.loc 1 432 13 is_stmt 1 view .LVU150
 563 00e8 FFF7FEFF 		bl	USBD_CtlError
 564              	.LVL53:
ARM GAS  C:\Users\Kaa\AppData\Local\Temp\ccSmGFpc.s 			page 23


 433:Middlewares/ST/STM32_USB_Device_Library/Class/MSC/Src/usbd_msc.c ****           }
 565              		.loc 1 433 13 view .LVU151
 433:Middlewares/ST/STM32_USB_Device_Library/Class/MSC/Src/usbd_msc.c ****           }
 566              		.loc 1 433 17 is_stmt 0 view .LVU152
 567 00ec 0220     		movs	r0, #2
 568 00ee 4EE0     		b	.L29
 569              	.LVL54:
 570              	.L35:
 440:Middlewares/ST/STM32_USB_Device_Library/Class/MSC/Src/usbd_msc.c **** 
 571              		.loc 1 440 11 is_stmt 1 view .LVU153
 572 00f0 0979     		ldrb	r1, [r1, #4]	@ zero_extendqisi2
 573              	.LVL55:
 440:Middlewares/ST/STM32_USB_Device_Library/Class/MSC/Src/usbd_msc.c **** 
 574              		.loc 1 440 11 is_stmt 0 view .LVU154
 575 00f2 FFF7FEFF 		bl	USBD_LL_FlushEP
 576              	.LVL56:
 443:Middlewares/ST/STM32_USB_Device_Library/Class/MSC/Src/usbd_msc.c ****           if ((((uint8_t)req->wIndex) & 0x80U) == 0x80U)
 577              		.loc 1 443 11 is_stmt 1 view .LVU155
 578 00f6 2179     		ldrb	r1, [r4, #4]	@ zero_extendqisi2
 579 00f8 2846     		mov	r0, r5
 580 00fa FFF7FEFF 		bl	USBD_LL_CloseEP
 581              	.LVL57:
 444:Middlewares/ST/STM32_USB_Device_Library/Class/MSC/Src/usbd_msc.c ****           {
 582              		.loc 1 444 11 view .LVU156
 444:Middlewares/ST/STM32_USB_Device_Library/Class/MSC/Src/usbd_msc.c ****           {
 583              		.loc 1 444 29 is_stmt 0 view .LVU157
 584 00fe A388     		ldrh	r3, [r4, #4]
 444:Middlewares/ST/STM32_USB_Device_Library/Class/MSC/Src/usbd_msc.c ****           {
 585              		.loc 1 444 14 view .LVU158
 586 0100 13F0800F 		tst	r3, #128
 587 0104 1AD1     		bne	.L51
 463:Middlewares/ST/STM32_USB_Device_Library/Class/MSC/Src/usbd_msc.c ****             if (pdev->dev_speed == USBD_SPEED_HIGH)
 588              		.loc 1 463 13 is_stmt 1 view .LVU159
 463:Middlewares/ST/STM32_USB_Device_Library/Class/MSC/Src/usbd_msc.c ****             if (pdev->dev_speed == USBD_SPEED_HIGH)
 589              		.loc 1 463 47 is_stmt 0 view .LVU160
 590 0106 03F00F03 		and	r3, r3, #15
 463:Middlewares/ST/STM32_USB_Device_Library/Class/MSC/Src/usbd_msc.c ****             if (pdev->dev_speed == USBD_SPEED_HIGH)
 591              		.loc 1 463 63 view .LVU161
 592 010a 03EB8303 		add	r3, r3, r3, lsl #2
 593 010e 9A00     		lsls	r2, r3, #2
 594 0110 2A44     		add	r2, r2, r5
 595 0112 0023     		movs	r3, #0
 596 0114 C2F85831 		str	r3, [r2, #344]
 464:Middlewares/ST/STM32_USB_Device_Library/Class/MSC/Src/usbd_msc.c ****             {
 597              		.loc 1 464 13 is_stmt 1 view .LVU162
 464:Middlewares/ST/STM32_USB_Device_Library/Class/MSC/Src/usbd_msc.c ****             {
 598              		.loc 1 464 21 is_stmt 0 view .LVU163
 599 0118 2B7C     		ldrb	r3, [r5, #16]	@ zero_extendqisi2
 464:Middlewares/ST/STM32_USB_Device_Library/Class/MSC/Src/usbd_msc.c ****             {
 600              		.loc 1 464 16 view .LVU164
 601 011a 53BB     		cbnz	r3, .L44
 467:Middlewares/ST/STM32_USB_Device_Library/Class/MSC/Src/usbd_msc.c ****                              MSC_MAX_HS_PACKET);
 602              		.loc 1 467 15 is_stmt 1 view .LVU165
 603 011c 4FF40073 		mov	r3, #512
 604 0120 0222     		movs	r2, #2
 605 0122 0121     		movs	r1, #1
 606 0124 2846     		mov	r0, r5
ARM GAS  C:\Users\Kaa\AppData\Local\Temp\ccSmGFpc.s 			page 24


 607 0126 FFF7FEFF 		bl	USBD_LL_OpenEP
 608              	.LVL58:
 609              	.L45:
 476:Middlewares/ST/STM32_USB_Device_Library/Class/MSC/Src/usbd_msc.c ****           }
 610              		.loc 1 476 13 view .LVU166
 476:Middlewares/ST/STM32_USB_Device_Library/Class/MSC/Src/usbd_msc.c ****           }
 611              		.loc 1 476 57 is_stmt 0 view .LVU167
 612 012a 0123     		movs	r3, #1
 613 012c C5F86C31 		str	r3, [r5, #364]
 614              	.L43:
 480:Middlewares/ST/STM32_USB_Device_Library/Class/MSC/Src/usbd_msc.c ****           break;
 615              		.loc 1 480 11 is_stmt 1 view .LVU168
 616 0130 2179     		ldrb	r1, [r4, #4]	@ zero_extendqisi2
 617 0132 2846     		mov	r0, r5
 618 0134 FFF7FEFF 		bl	MSC_BOT_CplClrFeature
 619              	.LVL59:
 481:Middlewares/ST/STM32_USB_Device_Library/Class/MSC/Src/usbd_msc.c **** 
 620              		.loc 1 481 11 view .LVU169
 355:Middlewares/ST/STM32_USB_Device_Library/Class/MSC/Src/usbd_msc.c ****   uint16_t status_info = 0U;
 621              		.loc 1 355 11 is_stmt 0 view .LVU170
 622 0138 0020     		movs	r0, #0
 481:Middlewares/ST/STM32_USB_Device_Library/Class/MSC/Src/usbd_msc.c **** 
 623              		.loc 1 481 11 view .LVU171
 624 013a 28E0     		b	.L29
 625              	.L51:
 446:Middlewares/ST/STM32_USB_Device_Library/Class/MSC/Src/usbd_msc.c ****             if (pdev->dev_speed == USBD_SPEED_HIGH)
 626              		.loc 1 446 13 is_stmt 1 view .LVU172
 446:Middlewares/ST/STM32_USB_Device_Library/Class/MSC/Src/usbd_msc.c ****             if (pdev->dev_speed == USBD_SPEED_HIGH)
 627              		.loc 1 446 46 is_stmt 0 view .LVU173
 628 013c 03F00F03 		and	r3, r3, #15
 446:Middlewares/ST/STM32_USB_Device_Library/Class/MSC/Src/usbd_msc.c ****             if (pdev->dev_speed == USBD_SPEED_HIGH)
 629              		.loc 1 446 62 view .LVU174
 630 0140 03EB8303 		add	r3, r3, r3, lsl #2
 631 0144 9A00     		lsls	r2, r3, #2
 632 0146 2A44     		add	r2, r2, r5
 633 0148 0023     		movs	r3, #0
 634 014a 9361     		str	r3, [r2, #24]
 447:Middlewares/ST/STM32_USB_Device_Library/Class/MSC/Src/usbd_msc.c ****             {
 635              		.loc 1 447 13 is_stmt 1 view .LVU175
 447:Middlewares/ST/STM32_USB_Device_Library/Class/MSC/Src/usbd_msc.c ****             {
 636              		.loc 1 447 21 is_stmt 0 view .LVU176
 637 014c 2B7C     		ldrb	r3, [r5, #16]	@ zero_extendqisi2
 447:Middlewares/ST/STM32_USB_Device_Library/Class/MSC/Src/usbd_msc.c ****             {
 638              		.loc 1 447 16 view .LVU177
 639 014e 4BB9     		cbnz	r3, .L41
 450:Middlewares/ST/STM32_USB_Device_Library/Class/MSC/Src/usbd_msc.c ****                              MSC_MAX_HS_PACKET);
 640              		.loc 1 450 15 is_stmt 1 view .LVU178
 641 0150 4FF40073 		mov	r3, #512
 642 0154 0222     		movs	r2, #2
 643 0156 8121     		movs	r1, #129
 644 0158 2846     		mov	r0, r5
 645 015a FFF7FEFF 		bl	USBD_LL_OpenEP
 646              	.LVL60:
 647              	.L42:
 459:Middlewares/ST/STM32_USB_Device_Library/Class/MSC/Src/usbd_msc.c ****           }
 648              		.loc 1 459 13 view .LVU179
 459:Middlewares/ST/STM32_USB_Device_Library/Class/MSC/Src/usbd_msc.c ****           }
ARM GAS  C:\Users\Kaa\AppData\Local\Temp\ccSmGFpc.s 			page 25


 649              		.loc 1 459 55 is_stmt 0 view .LVU180
 650 015e 0123     		movs	r3, #1
 651 0160 EB62     		str	r3, [r5, #44]
 652 0162 E5E7     		b	.L43
 653              	.L41:
 456:Middlewares/ST/STM32_USB_Device_Library/Class/MSC/Src/usbd_msc.c ****                              MSC_MAX_FS_PACKET);
 654              		.loc 1 456 15 is_stmt 1 view .LVU181
 655 0164 4023     		movs	r3, #64
 656 0166 0222     		movs	r2, #2
 657 0168 8121     		movs	r1, #129
 658 016a 2846     		mov	r0, r5
 659 016c FFF7FEFF 		bl	USBD_LL_OpenEP
 660              	.LVL61:
 661 0170 F5E7     		b	.L42
 662              	.L44:
 473:Middlewares/ST/STM32_USB_Device_Library/Class/MSC/Src/usbd_msc.c ****                              MSC_MAX_FS_PACKET);
 663              		.loc 1 473 15 view .LVU182
 664 0172 4023     		movs	r3, #64
 665 0174 0222     		movs	r2, #2
 666 0176 0121     		movs	r1, #1
 667 0178 2846     		mov	r0, r5
 668 017a FFF7FEFF 		bl	USBD_LL_OpenEP
 669              	.LVL62:
 670 017e D4E7     		b	.L45
 671              	.LVL63:
 672              	.L31:
 484:Middlewares/ST/STM32_USB_Device_Library/Class/MSC/Src/usbd_msc.c ****           ret = USBD_FAIL;
 673              		.loc 1 484 11 view .LVU183
 674 0180 FFF7FEFF 		bl	USBD_CtlError
 675              	.LVL64:
 485:Middlewares/ST/STM32_USB_Device_Library/Class/MSC/Src/usbd_msc.c ****           break;
 676              		.loc 1 485 11 view .LVU184
 486:Middlewares/ST/STM32_USB_Device_Library/Class/MSC/Src/usbd_msc.c ****       }
 677              		.loc 1 486 11 view .LVU185
 485:Middlewares/ST/STM32_USB_Device_Library/Class/MSC/Src/usbd_msc.c ****           break;
 678              		.loc 1 485 15 is_stmt 0 view .LVU186
 679 0184 0220     		movs	r0, #2
 486:Middlewares/ST/STM32_USB_Device_Library/Class/MSC/Src/usbd_msc.c ****       }
 680              		.loc 1 486 11 view .LVU187
 681 0186 02E0     		b	.L29
 682              	.LVL65:
 683              	.L24:
 491:Middlewares/ST/STM32_USB_Device_Library/Class/MSC/Src/usbd_msc.c ****       ret = USBD_FAIL;
 684              		.loc 1 491 7 is_stmt 1 view .LVU188
 685 0188 FFF7FEFF 		bl	USBD_CtlError
 686              	.LVL66:
 492:Middlewares/ST/STM32_USB_Device_Library/Class/MSC/Src/usbd_msc.c ****       break;
 687              		.loc 1 492 7 view .LVU189
 493:Middlewares/ST/STM32_USB_Device_Library/Class/MSC/Src/usbd_msc.c ****   }
 688              		.loc 1 493 7 view .LVU190
 492:Middlewares/ST/STM32_USB_Device_Library/Class/MSC/Src/usbd_msc.c ****       break;
 689              		.loc 1 492 11 is_stmt 0 view .LVU191
 690 018c 0220     		movs	r0, #2
 691              	.LVL67:
 692              	.L29:
 496:Middlewares/ST/STM32_USB_Device_Library/Class/MSC/Src/usbd_msc.c **** }
 693              		.loc 1 496 3 is_stmt 1 view .LVU192
ARM GAS  C:\Users\Kaa\AppData\Local\Temp\ccSmGFpc.s 			page 26


 497:Middlewares/ST/STM32_USB_Device_Library/Class/MSC/Src/usbd_msc.c **** 
 694              		.loc 1 497 1 is_stmt 0 view .LVU193
 695 018e 02B0     		add	sp, sp, #8
 696              	.LCFI4:
 697              		.cfi_def_cfa_offset 16
 698              		@ sp needed
 699 0190 70BD     		pop	{r4, r5, r6, pc}
 497:Middlewares/ST/STM32_USB_Device_Library/Class/MSC/Src/usbd_msc.c **** 
 700              		.loc 1 497 1 view .LVU194
 701              		.cfi_endproc
 702              	.LFE403:
 704              		.section	.text.USBD_MSC_DataIn,"ax",%progbits
 705              		.align	1
 706              		.global	USBD_MSC_DataIn
 707              		.syntax unified
 708              		.thumb
 709              		.thumb_func
 710              		.fpu softvfp
 712              	USBD_MSC_DataIn:
 713              	.LVL68:
 714              	.LFB404:
 507:Middlewares/ST/STM32_USB_Device_Library/Class/MSC/Src/usbd_msc.c ****   MSC_BOT_DataIn(pdev, epnum);
 715              		.loc 1 507 1 is_stmt 1 view -0
 716              		.cfi_startproc
 717              		@ args = 0, pretend = 0, frame = 0
 718              		@ frame_needed = 0, uses_anonymous_args = 0
 507:Middlewares/ST/STM32_USB_Device_Library/Class/MSC/Src/usbd_msc.c ****   MSC_BOT_DataIn(pdev, epnum);
 719              		.loc 1 507 1 is_stmt 0 view .LVU196
 720 0000 08B5     		push	{r3, lr}
 721              	.LCFI5:
 722              		.cfi_def_cfa_offset 8
 723              		.cfi_offset 3, -8
 724              		.cfi_offset 14, -4
 508:Middlewares/ST/STM32_USB_Device_Library/Class/MSC/Src/usbd_msc.c **** 
 725              		.loc 1 508 3 is_stmt 1 view .LVU197
 726 0002 FFF7FEFF 		bl	MSC_BOT_DataIn
 727              	.LVL69:
 510:Middlewares/ST/STM32_USB_Device_Library/Class/MSC/Src/usbd_msc.c **** }
 728              		.loc 1 510 3 view .LVU198
 511:Middlewares/ST/STM32_USB_Device_Library/Class/MSC/Src/usbd_msc.c **** 
 729              		.loc 1 511 1 is_stmt 0 view .LVU199
 730 0006 0020     		movs	r0, #0
 731 0008 08BD     		pop	{r3, pc}
 732              		.cfi_endproc
 733              	.LFE404:
 735              		.section	.text.USBD_MSC_DataOut,"ax",%progbits
 736              		.align	1
 737              		.global	USBD_MSC_DataOut
 738              		.syntax unified
 739              		.thumb
 740              		.thumb_func
 741              		.fpu softvfp
 743              	USBD_MSC_DataOut:
 744              	.LVL70:
 745              	.LFB405:
 521:Middlewares/ST/STM32_USB_Device_Library/Class/MSC/Src/usbd_msc.c ****   MSC_BOT_DataOut(pdev, epnum);
 746              		.loc 1 521 1 is_stmt 1 view -0
ARM GAS  C:\Users\Kaa\AppData\Local\Temp\ccSmGFpc.s 			page 27


 747              		.cfi_startproc
 748              		@ args = 0, pretend = 0, frame = 0
 749              		@ frame_needed = 0, uses_anonymous_args = 0
 521:Middlewares/ST/STM32_USB_Device_Library/Class/MSC/Src/usbd_msc.c ****   MSC_BOT_DataOut(pdev, epnum);
 750              		.loc 1 521 1 is_stmt 0 view .LVU201
 751 0000 08B5     		push	{r3, lr}
 752              	.LCFI6:
 753              		.cfi_def_cfa_offset 8
 754              		.cfi_offset 3, -8
 755              		.cfi_offset 14, -4
 522:Middlewares/ST/STM32_USB_Device_Library/Class/MSC/Src/usbd_msc.c **** 
 756              		.loc 1 522 3 is_stmt 1 view .LVU202
 757 0002 FFF7FEFF 		bl	MSC_BOT_DataOut
 758              	.LVL71:
 524:Middlewares/ST/STM32_USB_Device_Library/Class/MSC/Src/usbd_msc.c **** }
 759              		.loc 1 524 3 view .LVU203
 525:Middlewares/ST/STM32_USB_Device_Library/Class/MSC/Src/usbd_msc.c **** 
 760              		.loc 1 525 1 is_stmt 0 view .LVU204
 761 0006 0020     		movs	r0, #0
 762 0008 08BD     		pop	{r3, pc}
 763              		.cfi_endproc
 764              	.LFE405:
 766              		.section	.text.USBD_MSC_RegisterStorage,"ax",%progbits
 767              		.align	1
 768              		.global	USBD_MSC_RegisterStorage
 769              		.syntax unified
 770              		.thumb
 771              		.thumb_func
 772              		.fpu softvfp
 774              	USBD_MSC_RegisterStorage:
 775              	.LVL72:
 776              	.LFB410:
 577:Middlewares/ST/STM32_USB_Device_Library/Class/MSC/Src/usbd_msc.c **** 
 578:Middlewares/ST/STM32_USB_Device_Library/Class/MSC/Src/usbd_msc.c **** /**
 579:Middlewares/ST/STM32_USB_Device_Library/Class/MSC/Src/usbd_msc.c **** * @brief  USBD_MSC_RegisterStorage
 580:Middlewares/ST/STM32_USB_Device_Library/Class/MSC/Src/usbd_msc.c **** * @param  fops: storage callback
 581:Middlewares/ST/STM32_USB_Device_Library/Class/MSC/Src/usbd_msc.c **** * @retval status
 582:Middlewares/ST/STM32_USB_Device_Library/Class/MSC/Src/usbd_msc.c **** */
 583:Middlewares/ST/STM32_USB_Device_Library/Class/MSC/Src/usbd_msc.c **** uint8_t USBD_MSC_RegisterStorage(USBD_HandleTypeDef *pdev,
 584:Middlewares/ST/STM32_USB_Device_Library/Class/MSC/Src/usbd_msc.c ****                                  USBD_StorageTypeDef *fops)
 585:Middlewares/ST/STM32_USB_Device_Library/Class/MSC/Src/usbd_msc.c **** {
 777              		.loc 1 585 1 is_stmt 1 view -0
 778              		.cfi_startproc
 779              		@ args = 0, pretend = 0, frame = 0
 780              		@ frame_needed = 0, uses_anonymous_args = 0
 781              		@ link register save eliminated.
 586:Middlewares/ST/STM32_USB_Device_Library/Class/MSC/Src/usbd_msc.c ****   if (fops != NULL)
 782              		.loc 1 586 3 view .LVU206
 783              		.loc 1 586 6 is_stmt 0 view .LVU207
 784 0000 09B1     		cbz	r1, .L57
 587:Middlewares/ST/STM32_USB_Device_Library/Class/MSC/Src/usbd_msc.c ****   {
 588:Middlewares/ST/STM32_USB_Device_Library/Class/MSC/Src/usbd_msc.c ****     pdev->pUserData = fops;
 785              		.loc 1 588 5 is_stmt 1 view .LVU208
 786              		.loc 1 588 21 is_stmt 0 view .LVU209
 787 0002 C0F8BC12 		str	r1, [r0, #700]
 788              	.L57:
 589:Middlewares/ST/STM32_USB_Device_Library/Class/MSC/Src/usbd_msc.c ****   }
ARM GAS  C:\Users\Kaa\AppData\Local\Temp\ccSmGFpc.s 			page 28


 590:Middlewares/ST/STM32_USB_Device_Library/Class/MSC/Src/usbd_msc.c **** 
 591:Middlewares/ST/STM32_USB_Device_Library/Class/MSC/Src/usbd_msc.c ****   return USBD_OK;
 789              		.loc 1 591 3 is_stmt 1 view .LVU210
 592:Middlewares/ST/STM32_USB_Device_Library/Class/MSC/Src/usbd_msc.c **** }
 790              		.loc 1 592 1 is_stmt 0 view .LVU211
 791 0006 0020     		movs	r0, #0
 792              	.LVL73:
 793              		.loc 1 592 1 view .LVU212
 794 0008 7047     		bx	lr
 795              		.cfi_endproc
 796              	.LFE410:
 798              		.global	USBD_MSC_DeviceQualifierDesc
 799              		.global	USBD_MSC_OtherSpeedCfgDesc
 800              		.global	USBD_MSC_CfgFSDesc
 801              		.global	USBD_MSC_CfgHSDesc
 802              		.global	USBD_MSC
 803              		.section	.data.USBD_MSC,"aw"
 804              		.align	2
 807              	USBD_MSC:
 808 0000 00000000 		.word	USBD_MSC_Init
 809 0004 00000000 		.word	USBD_MSC_DeInit
 810 0008 00000000 		.word	USBD_MSC_Setup
 811 000c 00000000 		.word	0
 812 0010 00000000 		.word	0
 813 0014 00000000 		.word	USBD_MSC_DataIn
 814 0018 00000000 		.word	USBD_MSC_DataOut
 815 001c 00000000 		.word	0
 816 0020 00000000 		.word	0
 817 0024 00000000 		.word	0
 818 0028 00000000 		.word	USBD_MSC_GetHSCfgDesc
 819 002c 00000000 		.word	USBD_MSC_GetFSCfgDesc
 820 0030 00000000 		.word	USBD_MSC_GetOtherSpeedCfgDesc
 821 0034 00000000 		.word	USBD_MSC_GetDeviceQualifierDescriptor
 822              		.section	.data.USBD_MSC_CfgFSDesc,"aw"
 823              		.align	2
 824              		.set	.LANCHOR1,. + 0
 827              	USBD_MSC_CfgFSDesc:
 828 0000 09       		.byte	9
 829 0001 02       		.byte	2
 830 0002 20       		.byte	32
 831 0003 00       		.byte	0
 832 0004 01       		.byte	1
 833 0005 01       		.byte	1
 834 0006 04       		.byte	4
 835 0007 C0       		.byte	-64
 836 0008 32       		.byte	50
 837 0009 09       		.byte	9
 838 000a 04       		.byte	4
 839 000b 00       		.byte	0
 840 000c 00       		.byte	0
 841 000d 02       		.byte	2
 842 000e 08       		.byte	8
 843 000f 06       		.byte	6
 844 0010 50       		.byte	80
 845 0011 05       		.byte	5
 846 0012 07       		.byte	7
 847 0013 05       		.byte	5
ARM GAS  C:\Users\Kaa\AppData\Local\Temp\ccSmGFpc.s 			page 29


 848 0014 81       		.byte	-127
 849 0015 02       		.byte	2
 850 0016 40       		.byte	64
 851 0017 00       		.byte	0
 852 0018 00       		.byte	0
 853 0019 07       		.byte	7
 854 001a 05       		.byte	5
 855 001b 01       		.byte	1
 856 001c 02       		.byte	2
 857 001d 40       		.byte	64
 858 001e 00       		.byte	0
 859 001f 00       		.byte	0
 860              		.section	.data.USBD_MSC_CfgHSDesc,"aw"
 861              		.align	2
 862              		.set	.LANCHOR0,. + 0
 865              	USBD_MSC_CfgHSDesc:
 866 0000 09       		.byte	9
 867 0001 02       		.byte	2
 868 0002 20       		.byte	32
 869 0003 00       		.byte	0
 870 0004 01       		.byte	1
 871 0005 01       		.byte	1
 872 0006 04       		.byte	4
 873 0007 C0       		.byte	-64
 874 0008 32       		.byte	50
 875 0009 09       		.byte	9
 876 000a 04       		.byte	4
 877 000b 00       		.byte	0
 878 000c 00       		.byte	0
 879 000d 02       		.byte	2
 880 000e 08       		.byte	8
 881 000f 06       		.byte	6
 882 0010 50       		.byte	80
 883 0011 05       		.byte	5
 884 0012 07       		.byte	7
 885 0013 05       		.byte	5
 886 0014 81       		.byte	-127
 887 0015 02       		.byte	2
 888 0016 00       		.byte	0
 889 0017 02       		.byte	2
 890 0018 00       		.byte	0
 891 0019 07       		.byte	7
 892 001a 05       		.byte	5
 893 001b 01       		.byte	1
 894 001c 02       		.byte	2
 895 001d 00       		.byte	0
 896 001e 02       		.byte	2
 897 001f 00       		.byte	0
 898              		.section	.data.USBD_MSC_DeviceQualifierDesc,"aw"
 899              		.align	2
 900              		.set	.LANCHOR3,. + 0
 903              	USBD_MSC_DeviceQualifierDesc:
 904 0000 0A       		.byte	10
 905 0001 06       		.byte	6
 906 0002 00       		.byte	0
 907 0003 02       		.byte	2
 908 0004 00       		.byte	0
ARM GAS  C:\Users\Kaa\AppData\Local\Temp\ccSmGFpc.s 			page 30


 909 0005 00       		.byte	0
 910 0006 00       		.byte	0
 911 0007 40       		.byte	64
 912 0008 01       		.byte	1
 913 0009 00       		.byte	0
 914              		.section	.data.USBD_MSC_OtherSpeedCfgDesc,"aw"
 915              		.align	2
 916              		.set	.LANCHOR2,. + 0
 919              	USBD_MSC_OtherSpeedCfgDesc:
 920 0000 09       		.byte	9
 921 0001 07       		.byte	7
 922 0002 20       		.byte	32
 923 0003 00       		.byte	0
 924 0004 01       		.byte	1
 925 0005 01       		.byte	1
 926 0006 04       		.byte	4
 927 0007 C0       		.byte	-64
 928 0008 32       		.byte	50
 929 0009 09       		.byte	9
 930 000a 04       		.byte	4
 931 000b 00       		.byte	0
 932 000c 00       		.byte	0
 933 000d 02       		.byte	2
 934 000e 08       		.byte	8
 935 000f 06       		.byte	6
 936 0010 50       		.byte	80
 937 0011 05       		.byte	5
 938 0012 07       		.byte	7
 939 0013 05       		.byte	5
 940 0014 81       		.byte	-127
 941 0015 02       		.byte	2
 942 0016 40       		.byte	64
 943 0017 00       		.byte	0
 944 0018 00       		.byte	0
 945 0019 07       		.byte	7
 946 001a 05       		.byte	5
 947 001b 01       		.byte	1
 948 001c 02       		.byte	2
 949 001d 40       		.byte	64
 950 001e 00       		.byte	0
 951 001f 00       		.byte	0
 952              		.text
 953              	.Letext0:
 954              		.file 2 "c:\\arm_tool\\gcc\\arm-none-eabi\\include\\machine\\_default_types.h"
 955              		.file 3 "c:\\arm_tool\\gcc\\arm-none-eabi\\include\\sys\\lock.h"
 956              		.file 4 "c:\\arm_tool\\gcc\\arm-none-eabi\\include\\sys\\_types.h"
 957              		.file 5 "c:\\arm_tool\\gcc\\lib\\gcc\\arm-none-eabi\\8.2.1\\include\\stddef.h"
 958              		.file 6 "c:\\arm_tool\\gcc\\arm-none-eabi\\include\\sys\\reent.h"
 959              		.file 7 "c:\\arm_tool\\gcc\\arm-none-eabi\\include\\sys\\_stdint.h"
 960              		.file 8 "c:\\arm_tool\\gcc\\arm-none-eabi\\include\\stdlib.h"
 961              		.file 9 "Drivers/CMSIS/Include/core_cm3.h"
 962              		.file 10 "Drivers/CMSIS/Device/ST/STM32F1xx/Include/system_stm32f1xx.h"
 963              		.file 11 "Drivers/STM32F1xx_HAL_Driver/Inc/stm32f1xx_hal.h"
 964              		.file 12 "Core/Inc/main.h"
 965              		.file 13 "Middlewares/ST/STM32_USB_Device_Library/Core/Inc/usbd_def.h"
 966              		.file 14 "Middlewares/ST/STM32_USB_Device_Library/Class/MSC/Inc/usbd_msc_bot.h"
 967              		.file 15 "Middlewares/ST/STM32_USB_Device_Library/Class/MSC/Inc/usbd_msc_scsi.h"
ARM GAS  C:\Users\Kaa\AppData\Local\Temp\ccSmGFpc.s 			page 31


 968              		.file 16 "Middlewares/ST/STM32_USB_Device_Library/Class/MSC/Inc/usbd_msc.h"
 969              		.file 17 "Drivers/STM32F1xx_HAL_Driver/Inc/stm32f1xx_ll_dma.h"
 970              		.file 18 "Middlewares/ST/STM32_USB_Device_Library/Core/Inc/usbd_ctlreq.h"
 971              		.file 19 "Middlewares/ST/STM32_USB_Device_Library/Core/Inc/usbd_ioreq.h"
 972              		.file 20 "Middlewares/ST/STM32_USB_Device_Library/Core/Inc/usbd_core.h"
 973              		.file 21 "USB_DEVICE/Target/usbd_conf.h"
ARM GAS  C:\Users\Kaa\AppData\Local\Temp\ccSmGFpc.s 			page 32

