ARM GAS  C:\Users\Kaa\AppData\Local\Temp\ccJ6fgag.s 			page 1


   1              		.cpu cortex-m3
   2              		.eabi_attribute 20, 1
   3              		.eabi_attribute 21, 1
   4              		.eabi_attribute 23, 3
   5              		.eabi_attribute 24, 1
   6              		.eabi_attribute 25, 1
   7              		.eabi_attribute 26, 1
   8              		.eabi_attribute 30, 1
   9              		.eabi_attribute 34, 1
  10              		.eabi_attribute 18, 4
  11              		.file	"usbd_desc.c"
  12              		.text
  13              	.Ltext0:
  14              		.cfi_sections	.debug_frame
  15              		.section	.text.USBD_FS_DeviceDescriptor,"ax",%progbits
  16              		.align	1
  17              		.global	USBD_FS_DeviceDescriptor
  18              		.arch armv7-m
  19              		.syntax unified
  20              		.thumb
  21              		.thumb_func
  22              		.fpu softvfp
  24              	USBD_FS_DeviceDescriptor:
  25              	.LVL0:
  26              	.LFB401:
  27              		.file 1 "USB_DEVICE/App/usbd_desc.c"
   1:USB_DEVICE/App/usbd_desc.c **** /* USER CODE BEGIN Header */
   2:USB_DEVICE/App/usbd_desc.c **** /**
   3:USB_DEVICE/App/usbd_desc.c ****   ******************************************************************************
   4:USB_DEVICE/App/usbd_desc.c ****   * @file           : App/usbd_desc.c
   5:USB_DEVICE/App/usbd_desc.c ****   * @version        : v2.0_Cube
   6:USB_DEVICE/App/usbd_desc.c ****   * @brief          : This file implements the USB device descriptors.
   7:USB_DEVICE/App/usbd_desc.c ****   ******************************************************************************
   8:USB_DEVICE/App/usbd_desc.c ****   * @attention
   9:USB_DEVICE/App/usbd_desc.c ****   *
  10:USB_DEVICE/App/usbd_desc.c ****   * Copyright (c) 2023 STMicroelectronics.
  11:USB_DEVICE/App/usbd_desc.c ****   * All rights reserved.
  12:USB_DEVICE/App/usbd_desc.c ****   *
  13:USB_DEVICE/App/usbd_desc.c ****   * This software is licensed under terms that can be found in the LICENSE file
  14:USB_DEVICE/App/usbd_desc.c ****   * in the root directory of this software component.
  15:USB_DEVICE/App/usbd_desc.c ****   * If no LICENSE file comes with this software, it is provided AS-IS.
  16:USB_DEVICE/App/usbd_desc.c ****   *
  17:USB_DEVICE/App/usbd_desc.c ****   ******************************************************************************
  18:USB_DEVICE/App/usbd_desc.c ****   */
  19:USB_DEVICE/App/usbd_desc.c **** /* USER CODE END Header */
  20:USB_DEVICE/App/usbd_desc.c **** 
  21:USB_DEVICE/App/usbd_desc.c **** /* Includes ------------------------------------------------------------------*/
  22:USB_DEVICE/App/usbd_desc.c **** #include "usbd_core.h"
  23:USB_DEVICE/App/usbd_desc.c **** #include "usbd_desc.h"
  24:USB_DEVICE/App/usbd_desc.c **** #include "usbd_conf.h"
  25:USB_DEVICE/App/usbd_desc.c **** 
  26:USB_DEVICE/App/usbd_desc.c **** /* USER CODE BEGIN INCLUDE */
  27:USB_DEVICE/App/usbd_desc.c **** 
  28:USB_DEVICE/App/usbd_desc.c **** /* USER CODE END INCLUDE */
  29:USB_DEVICE/App/usbd_desc.c **** 
  30:USB_DEVICE/App/usbd_desc.c **** /* Private typedef -----------------------------------------------------------*/
  31:USB_DEVICE/App/usbd_desc.c **** /* Private define ------------------------------------------------------------*/
ARM GAS  C:\Users\Kaa\AppData\Local\Temp\ccJ6fgag.s 			page 2


  32:USB_DEVICE/App/usbd_desc.c **** /* Private macro -------------------------------------------------------------*/
  33:USB_DEVICE/App/usbd_desc.c **** 
  34:USB_DEVICE/App/usbd_desc.c **** /* USER CODE BEGIN PV */
  35:USB_DEVICE/App/usbd_desc.c **** /* Private variables ---------------------------------------------------------*/
  36:USB_DEVICE/App/usbd_desc.c **** 
  37:USB_DEVICE/App/usbd_desc.c **** /* USER CODE END PV */
  38:USB_DEVICE/App/usbd_desc.c **** 
  39:USB_DEVICE/App/usbd_desc.c **** /** @addtogroup STM32_USB_OTG_DEVICE_LIBRARY
  40:USB_DEVICE/App/usbd_desc.c ****   * @{
  41:USB_DEVICE/App/usbd_desc.c ****   */
  42:USB_DEVICE/App/usbd_desc.c **** 
  43:USB_DEVICE/App/usbd_desc.c **** /** @addtogroup USBD_DESC
  44:USB_DEVICE/App/usbd_desc.c ****   * @{
  45:USB_DEVICE/App/usbd_desc.c ****   */
  46:USB_DEVICE/App/usbd_desc.c **** 
  47:USB_DEVICE/App/usbd_desc.c **** /** @defgroup USBD_DESC_Private_TypesDefinitions USBD_DESC_Private_TypesDefinitions
  48:USB_DEVICE/App/usbd_desc.c ****   * @brief Private types.
  49:USB_DEVICE/App/usbd_desc.c ****   * @{
  50:USB_DEVICE/App/usbd_desc.c ****   */
  51:USB_DEVICE/App/usbd_desc.c **** 
  52:USB_DEVICE/App/usbd_desc.c **** /* USER CODE BEGIN PRIVATE_TYPES */
  53:USB_DEVICE/App/usbd_desc.c **** 
  54:USB_DEVICE/App/usbd_desc.c **** /* USER CODE END PRIVATE_TYPES */
  55:USB_DEVICE/App/usbd_desc.c **** 
  56:USB_DEVICE/App/usbd_desc.c **** /**
  57:USB_DEVICE/App/usbd_desc.c ****   * @}
  58:USB_DEVICE/App/usbd_desc.c ****   */
  59:USB_DEVICE/App/usbd_desc.c **** 
  60:USB_DEVICE/App/usbd_desc.c **** /** @defgroup USBD_DESC_Private_Defines USBD_DESC_Private_Defines
  61:USB_DEVICE/App/usbd_desc.c ****   * @brief Private defines.
  62:USB_DEVICE/App/usbd_desc.c ****   * @{
  63:USB_DEVICE/App/usbd_desc.c ****   */
  64:USB_DEVICE/App/usbd_desc.c **** 
  65:USB_DEVICE/App/usbd_desc.c **** #define USBD_VID     1155
  66:USB_DEVICE/App/usbd_desc.c **** #define USBD_LANGID_STRING     1033
  67:USB_DEVICE/App/usbd_desc.c **** #define USBD_MANUFACTURER_STRING     "Z80 RAW Memory"
  68:USB_DEVICE/App/usbd_desc.c **** #define USBD_PID_FS     22336
  69:USB_DEVICE/App/usbd_desc.c **** #define USBD_PRODUCT_STRING_FS     "STM32 Virtual ComPort"
  70:USB_DEVICE/App/usbd_desc.c **** #define USBD_CONFIGURATION_STRING_FS     "CDC Config"
  71:USB_DEVICE/App/usbd_desc.c **** #define USBD_INTERFACE_STRING_FS     "CDC Interface"
  72:USB_DEVICE/App/usbd_desc.c **** 
  73:USB_DEVICE/App/usbd_desc.c **** /* USER CODE BEGIN PRIVATE_DEFINES */
  74:USB_DEVICE/App/usbd_desc.c **** 
  75:USB_DEVICE/App/usbd_desc.c **** /* USER CODE END PRIVATE_DEFINES */
  76:USB_DEVICE/App/usbd_desc.c **** 
  77:USB_DEVICE/App/usbd_desc.c **** /**
  78:USB_DEVICE/App/usbd_desc.c ****   * @}
  79:USB_DEVICE/App/usbd_desc.c ****   */
  80:USB_DEVICE/App/usbd_desc.c **** 
  81:USB_DEVICE/App/usbd_desc.c **** /* USER CODE BEGIN 0 */
  82:USB_DEVICE/App/usbd_desc.c **** 
  83:USB_DEVICE/App/usbd_desc.c **** /* USER CODE END 0 */
  84:USB_DEVICE/App/usbd_desc.c **** 
  85:USB_DEVICE/App/usbd_desc.c **** /** @defgroup USBD_DESC_Private_Macros USBD_DESC_Private_Macros
  86:USB_DEVICE/App/usbd_desc.c ****   * @brief Private macros.
  87:USB_DEVICE/App/usbd_desc.c ****   * @{
  88:USB_DEVICE/App/usbd_desc.c ****   */
ARM GAS  C:\Users\Kaa\AppData\Local\Temp\ccJ6fgag.s 			page 3


  89:USB_DEVICE/App/usbd_desc.c **** 
  90:USB_DEVICE/App/usbd_desc.c **** /* USER CODE BEGIN PRIVATE_MACRO */
  91:USB_DEVICE/App/usbd_desc.c **** 
  92:USB_DEVICE/App/usbd_desc.c **** /* USER CODE END PRIVATE_MACRO */
  93:USB_DEVICE/App/usbd_desc.c **** 
  94:USB_DEVICE/App/usbd_desc.c **** /**
  95:USB_DEVICE/App/usbd_desc.c ****   * @}
  96:USB_DEVICE/App/usbd_desc.c ****   */
  97:USB_DEVICE/App/usbd_desc.c **** 
  98:USB_DEVICE/App/usbd_desc.c **** /** @defgroup USBD_DESC_Private_FunctionPrototypes USBD_DESC_Private_FunctionPrototypes
  99:USB_DEVICE/App/usbd_desc.c ****   * @brief Private functions declaration.
 100:USB_DEVICE/App/usbd_desc.c ****   * @{
 101:USB_DEVICE/App/usbd_desc.c ****   */
 102:USB_DEVICE/App/usbd_desc.c **** 
 103:USB_DEVICE/App/usbd_desc.c **** static void Get_SerialNum(void);
 104:USB_DEVICE/App/usbd_desc.c **** static void IntToUnicode(uint32_t value, uint8_t * pbuf, uint8_t len);
 105:USB_DEVICE/App/usbd_desc.c **** 
 106:USB_DEVICE/App/usbd_desc.c **** /**
 107:USB_DEVICE/App/usbd_desc.c ****   * @}
 108:USB_DEVICE/App/usbd_desc.c ****   */
 109:USB_DEVICE/App/usbd_desc.c **** 
 110:USB_DEVICE/App/usbd_desc.c **** /** @defgroup USBD_DESC_Private_FunctionPrototypes USBD_DESC_Private_FunctionPrototypes
 111:USB_DEVICE/App/usbd_desc.c ****   * @brief Private functions declaration for FS.
 112:USB_DEVICE/App/usbd_desc.c ****   * @{
 113:USB_DEVICE/App/usbd_desc.c ****   */
 114:USB_DEVICE/App/usbd_desc.c **** 
 115:USB_DEVICE/App/usbd_desc.c **** uint8_t * USBD_FS_DeviceDescriptor(USBD_SpeedTypeDef speed, uint16_t *length);
 116:USB_DEVICE/App/usbd_desc.c **** uint8_t * USBD_FS_LangIDStrDescriptor(USBD_SpeedTypeDef speed, uint16_t *length);
 117:USB_DEVICE/App/usbd_desc.c **** uint8_t * USBD_FS_ManufacturerStrDescriptor(USBD_SpeedTypeDef speed, uint16_t *length);
 118:USB_DEVICE/App/usbd_desc.c **** uint8_t * USBD_FS_ProductStrDescriptor(USBD_SpeedTypeDef speed, uint16_t *length);
 119:USB_DEVICE/App/usbd_desc.c **** uint8_t * USBD_FS_SerialStrDescriptor(USBD_SpeedTypeDef speed, uint16_t *length);
 120:USB_DEVICE/App/usbd_desc.c **** uint8_t * USBD_FS_ConfigStrDescriptor(USBD_SpeedTypeDef speed, uint16_t *length);
 121:USB_DEVICE/App/usbd_desc.c **** uint8_t * USBD_FS_InterfaceStrDescriptor(USBD_SpeedTypeDef speed, uint16_t *length);
 122:USB_DEVICE/App/usbd_desc.c **** 
 123:USB_DEVICE/App/usbd_desc.c **** /**
 124:USB_DEVICE/App/usbd_desc.c ****   * @}
 125:USB_DEVICE/App/usbd_desc.c ****   */
 126:USB_DEVICE/App/usbd_desc.c **** 
 127:USB_DEVICE/App/usbd_desc.c **** /** @defgroup USBD_DESC_Private_Variables USBD_DESC_Private_Variables
 128:USB_DEVICE/App/usbd_desc.c ****   * @brief Private variables.
 129:USB_DEVICE/App/usbd_desc.c ****   * @{
 130:USB_DEVICE/App/usbd_desc.c ****   */
 131:USB_DEVICE/App/usbd_desc.c **** 
 132:USB_DEVICE/App/usbd_desc.c **** USBD_DescriptorsTypeDef FS_Desc =
 133:USB_DEVICE/App/usbd_desc.c **** {
 134:USB_DEVICE/App/usbd_desc.c ****   USBD_FS_DeviceDescriptor
 135:USB_DEVICE/App/usbd_desc.c **** , USBD_FS_LangIDStrDescriptor
 136:USB_DEVICE/App/usbd_desc.c **** , USBD_FS_ManufacturerStrDescriptor
 137:USB_DEVICE/App/usbd_desc.c **** , USBD_FS_ProductStrDescriptor
 138:USB_DEVICE/App/usbd_desc.c **** , USBD_FS_SerialStrDescriptor
 139:USB_DEVICE/App/usbd_desc.c **** , USBD_FS_ConfigStrDescriptor
 140:USB_DEVICE/App/usbd_desc.c **** , USBD_FS_InterfaceStrDescriptor
 141:USB_DEVICE/App/usbd_desc.c **** };
 142:USB_DEVICE/App/usbd_desc.c **** 
 143:USB_DEVICE/App/usbd_desc.c **** #if defined ( __ICCARM__ ) /* IAR Compiler */
 144:USB_DEVICE/App/usbd_desc.c ****   #pragma data_alignment=4
 145:USB_DEVICE/App/usbd_desc.c **** #endif /* defined ( __ICCARM__ ) */
ARM GAS  C:\Users\Kaa\AppData\Local\Temp\ccJ6fgag.s 			page 4


 146:USB_DEVICE/App/usbd_desc.c **** /** USB standard device descriptor. */
 147:USB_DEVICE/App/usbd_desc.c **** __ALIGN_BEGIN uint8_t USBD_FS_DeviceDesc[USB_LEN_DEV_DESC] __ALIGN_END =
 148:USB_DEVICE/App/usbd_desc.c **** {
 149:USB_DEVICE/App/usbd_desc.c ****   0x12,                       /*bLength */
 150:USB_DEVICE/App/usbd_desc.c ****   USB_DESC_TYPE_DEVICE,       /*bDescriptorType*/
 151:USB_DEVICE/App/usbd_desc.c ****   0x00,                       /*bcdUSB */
 152:USB_DEVICE/App/usbd_desc.c ****   0x02,
 153:USB_DEVICE/App/usbd_desc.c ****   0x02,                       /*bDeviceClass*/
 154:USB_DEVICE/App/usbd_desc.c ****   0x02,                       /*bDeviceSubClass*/
 155:USB_DEVICE/App/usbd_desc.c ****   0x00,                       /*bDeviceProtocol*/
 156:USB_DEVICE/App/usbd_desc.c ****   USB_MAX_EP0_SIZE,           /*bMaxPacketSize*/
 157:USB_DEVICE/App/usbd_desc.c ****   LOBYTE(USBD_VID),           /*idVendor*/
 158:USB_DEVICE/App/usbd_desc.c ****   HIBYTE(USBD_VID),           /*idVendor*/
 159:USB_DEVICE/App/usbd_desc.c ****   LOBYTE(USBD_PID_FS),        /*idProduct*/
 160:USB_DEVICE/App/usbd_desc.c ****   HIBYTE(USBD_PID_FS),        /*idProduct*/
 161:USB_DEVICE/App/usbd_desc.c ****   0x00,                       /*bcdDevice rel. 2.00*/
 162:USB_DEVICE/App/usbd_desc.c ****   0x02,
 163:USB_DEVICE/App/usbd_desc.c ****   USBD_IDX_MFC_STR,           /*Index of manufacturer  string*/
 164:USB_DEVICE/App/usbd_desc.c ****   USBD_IDX_PRODUCT_STR,       /*Index of product string*/
 165:USB_DEVICE/App/usbd_desc.c ****   USBD_IDX_SERIAL_STR,        /*Index of serial number string*/
 166:USB_DEVICE/App/usbd_desc.c ****   USBD_MAX_NUM_CONFIGURATION  /*bNumConfigurations*/
 167:USB_DEVICE/App/usbd_desc.c **** };
 168:USB_DEVICE/App/usbd_desc.c **** 
 169:USB_DEVICE/App/usbd_desc.c **** /* USB_DeviceDescriptor */
 170:USB_DEVICE/App/usbd_desc.c **** 
 171:USB_DEVICE/App/usbd_desc.c **** /**
 172:USB_DEVICE/App/usbd_desc.c ****   * @}
 173:USB_DEVICE/App/usbd_desc.c ****   */
 174:USB_DEVICE/App/usbd_desc.c **** 
 175:USB_DEVICE/App/usbd_desc.c **** /** @defgroup USBD_DESC_Private_Variables USBD_DESC_Private_Variables
 176:USB_DEVICE/App/usbd_desc.c ****   * @brief Private variables.
 177:USB_DEVICE/App/usbd_desc.c ****   * @{
 178:USB_DEVICE/App/usbd_desc.c ****   */
 179:USB_DEVICE/App/usbd_desc.c **** 
 180:USB_DEVICE/App/usbd_desc.c **** #if defined ( __ICCARM__ ) /* IAR Compiler */
 181:USB_DEVICE/App/usbd_desc.c ****   #pragma data_alignment=4
 182:USB_DEVICE/App/usbd_desc.c **** #endif /* defined ( __ICCARM__ ) */
 183:USB_DEVICE/App/usbd_desc.c **** 
 184:USB_DEVICE/App/usbd_desc.c **** /** USB lang identifier descriptor. */
 185:USB_DEVICE/App/usbd_desc.c **** __ALIGN_BEGIN uint8_t USBD_LangIDDesc[USB_LEN_LANGID_STR_DESC] __ALIGN_END =
 186:USB_DEVICE/App/usbd_desc.c **** {
 187:USB_DEVICE/App/usbd_desc.c ****      USB_LEN_LANGID_STR_DESC,
 188:USB_DEVICE/App/usbd_desc.c ****      USB_DESC_TYPE_STRING,
 189:USB_DEVICE/App/usbd_desc.c ****      LOBYTE(USBD_LANGID_STRING),
 190:USB_DEVICE/App/usbd_desc.c ****      HIBYTE(USBD_LANGID_STRING)
 191:USB_DEVICE/App/usbd_desc.c **** };
 192:USB_DEVICE/App/usbd_desc.c **** 
 193:USB_DEVICE/App/usbd_desc.c **** #if defined ( __ICCARM__ ) /* IAR Compiler */
 194:USB_DEVICE/App/usbd_desc.c ****   #pragma data_alignment=4
 195:USB_DEVICE/App/usbd_desc.c **** #endif /* defined ( __ICCARM__ ) */
 196:USB_DEVICE/App/usbd_desc.c **** /* Internal string descriptor. */
 197:USB_DEVICE/App/usbd_desc.c **** __ALIGN_BEGIN uint8_t USBD_StrDesc[USBD_MAX_STR_DESC_SIZ] __ALIGN_END;
 198:USB_DEVICE/App/usbd_desc.c **** 
 199:USB_DEVICE/App/usbd_desc.c **** #if defined ( __ICCARM__ ) /*!< IAR Compiler */
 200:USB_DEVICE/App/usbd_desc.c ****   #pragma data_alignment=4
 201:USB_DEVICE/App/usbd_desc.c **** #endif
 202:USB_DEVICE/App/usbd_desc.c **** __ALIGN_BEGIN uint8_t USBD_StringSerial[USB_SIZ_STRING_SERIAL] __ALIGN_END = {
ARM GAS  C:\Users\Kaa\AppData\Local\Temp\ccJ6fgag.s 			page 5


 203:USB_DEVICE/App/usbd_desc.c ****   USB_SIZ_STRING_SERIAL,
 204:USB_DEVICE/App/usbd_desc.c ****   USB_DESC_TYPE_STRING,
 205:USB_DEVICE/App/usbd_desc.c **** };
 206:USB_DEVICE/App/usbd_desc.c **** 
 207:USB_DEVICE/App/usbd_desc.c **** /**
 208:USB_DEVICE/App/usbd_desc.c ****   * @}
 209:USB_DEVICE/App/usbd_desc.c ****   */
 210:USB_DEVICE/App/usbd_desc.c **** 
 211:USB_DEVICE/App/usbd_desc.c **** /** @defgroup USBD_DESC_Private_Functions USBD_DESC_Private_Functions
 212:USB_DEVICE/App/usbd_desc.c ****   * @brief Private functions.
 213:USB_DEVICE/App/usbd_desc.c ****   * @{
 214:USB_DEVICE/App/usbd_desc.c ****   */
 215:USB_DEVICE/App/usbd_desc.c **** 
 216:USB_DEVICE/App/usbd_desc.c **** /**
 217:USB_DEVICE/App/usbd_desc.c ****   * @brief  Return the device descriptor
 218:USB_DEVICE/App/usbd_desc.c ****   * @param  speed : Current device speed
 219:USB_DEVICE/App/usbd_desc.c ****   * @param  length : Pointer to data length variable
 220:USB_DEVICE/App/usbd_desc.c ****   * @retval Pointer to descriptor buffer
 221:USB_DEVICE/App/usbd_desc.c ****   */
 222:USB_DEVICE/App/usbd_desc.c **** uint8_t * USBD_FS_DeviceDescriptor(USBD_SpeedTypeDef speed, uint16_t *length)
 223:USB_DEVICE/App/usbd_desc.c **** {
  28              		.loc 1 223 1 view -0
  29              		.cfi_startproc
  30              		@ args = 0, pretend = 0, frame = 0
  31              		@ frame_needed = 0, uses_anonymous_args = 0
  32              		@ link register save eliminated.
 224:USB_DEVICE/App/usbd_desc.c ****   UNUSED(speed);
  33              		.loc 1 224 3 view .LVU1
 225:USB_DEVICE/App/usbd_desc.c ****   *length = sizeof(USBD_FS_DeviceDesc);
  34              		.loc 1 225 3 view .LVU2
  35              		.loc 1 225 11 is_stmt 0 view .LVU3
  36 0000 1223     		movs	r3, #18
  37 0002 0B80     		strh	r3, [r1]	@ movhi
 226:USB_DEVICE/App/usbd_desc.c ****   return USBD_FS_DeviceDesc;
  38              		.loc 1 226 3 is_stmt 1 view .LVU4
 227:USB_DEVICE/App/usbd_desc.c **** }
  39              		.loc 1 227 1 is_stmt 0 view .LVU5
  40 0004 0048     		ldr	r0, .L2
  41              	.LVL1:
  42              		.loc 1 227 1 view .LVU6
  43 0006 7047     		bx	lr
  44              	.L3:
  45              		.align	2
  46              	.L2:
  47 0008 00000000 		.word	.LANCHOR0
  48              		.cfi_endproc
  49              	.LFE401:
  51              		.section	.text.USBD_FS_LangIDStrDescriptor,"ax",%progbits
  52              		.align	1
  53              		.global	USBD_FS_LangIDStrDescriptor
  54              		.syntax unified
  55              		.thumb
  56              		.thumb_func
  57              		.fpu softvfp
  59              	USBD_FS_LangIDStrDescriptor:
  60              	.LVL2:
  61              	.LFB402:
ARM GAS  C:\Users\Kaa\AppData\Local\Temp\ccJ6fgag.s 			page 6


 228:USB_DEVICE/App/usbd_desc.c **** 
 229:USB_DEVICE/App/usbd_desc.c **** /**
 230:USB_DEVICE/App/usbd_desc.c ****   * @brief  Return the LangID string descriptor
 231:USB_DEVICE/App/usbd_desc.c ****   * @param  speed : Current device speed
 232:USB_DEVICE/App/usbd_desc.c ****   * @param  length : Pointer to data length variable
 233:USB_DEVICE/App/usbd_desc.c ****   * @retval Pointer to descriptor buffer
 234:USB_DEVICE/App/usbd_desc.c ****   */
 235:USB_DEVICE/App/usbd_desc.c **** uint8_t * USBD_FS_LangIDStrDescriptor(USBD_SpeedTypeDef speed, uint16_t *length)
 236:USB_DEVICE/App/usbd_desc.c **** {
  62              		.loc 1 236 1 is_stmt 1 view -0
  63              		.cfi_startproc
  64              		@ args = 0, pretend = 0, frame = 0
  65              		@ frame_needed = 0, uses_anonymous_args = 0
  66              		@ link register save eliminated.
 237:USB_DEVICE/App/usbd_desc.c ****   UNUSED(speed);
  67              		.loc 1 237 3 view .LVU8
 238:USB_DEVICE/App/usbd_desc.c ****   *length = sizeof(USBD_LangIDDesc);
  68              		.loc 1 238 3 view .LVU9
  69              		.loc 1 238 11 is_stmt 0 view .LVU10
  70 0000 0423     		movs	r3, #4
  71 0002 0B80     		strh	r3, [r1]	@ movhi
 239:USB_DEVICE/App/usbd_desc.c ****   return USBD_LangIDDesc;
  72              		.loc 1 239 3 is_stmt 1 view .LVU11
 240:USB_DEVICE/App/usbd_desc.c **** }
  73              		.loc 1 240 1 is_stmt 0 view .LVU12
  74 0004 0048     		ldr	r0, .L5
  75              	.LVL3:
  76              		.loc 1 240 1 view .LVU13
  77 0006 7047     		bx	lr
  78              	.L6:
  79              		.align	2
  80              	.L5:
  81 0008 00000000 		.word	.LANCHOR1
  82              		.cfi_endproc
  83              	.LFE402:
  85              		.section	.text.IntToUnicode,"ax",%progbits
  86              		.align	1
  87              		.syntax unified
  88              		.thumb
  89              		.thumb_func
  90              		.fpu softvfp
  92              	IntToUnicode:
  93              	.LVL4:
  94              	.LFB409:
 241:USB_DEVICE/App/usbd_desc.c **** 
 242:USB_DEVICE/App/usbd_desc.c **** /**
 243:USB_DEVICE/App/usbd_desc.c ****   * @brief  Return the product string descriptor
 244:USB_DEVICE/App/usbd_desc.c ****   * @param  speed : Current device speed
 245:USB_DEVICE/App/usbd_desc.c ****   * @param  length : Pointer to data length variable
 246:USB_DEVICE/App/usbd_desc.c ****   * @retval Pointer to descriptor buffer
 247:USB_DEVICE/App/usbd_desc.c ****   */
 248:USB_DEVICE/App/usbd_desc.c **** uint8_t * USBD_FS_ProductStrDescriptor(USBD_SpeedTypeDef speed, uint16_t *length)
 249:USB_DEVICE/App/usbd_desc.c **** {
 250:USB_DEVICE/App/usbd_desc.c ****   if(speed == 0)
 251:USB_DEVICE/App/usbd_desc.c ****   {
 252:USB_DEVICE/App/usbd_desc.c ****     USBD_GetString((uint8_t *)USBD_PRODUCT_STRING_FS, USBD_StrDesc, length);
 253:USB_DEVICE/App/usbd_desc.c ****   }
ARM GAS  C:\Users\Kaa\AppData\Local\Temp\ccJ6fgag.s 			page 7


 254:USB_DEVICE/App/usbd_desc.c ****   else
 255:USB_DEVICE/App/usbd_desc.c ****   {
 256:USB_DEVICE/App/usbd_desc.c ****     USBD_GetString((uint8_t *)USBD_PRODUCT_STRING_FS, USBD_StrDesc, length);
 257:USB_DEVICE/App/usbd_desc.c ****   }
 258:USB_DEVICE/App/usbd_desc.c ****   return USBD_StrDesc;
 259:USB_DEVICE/App/usbd_desc.c **** }
 260:USB_DEVICE/App/usbd_desc.c **** 
 261:USB_DEVICE/App/usbd_desc.c **** /**
 262:USB_DEVICE/App/usbd_desc.c ****   * @brief  Return the manufacturer string descriptor
 263:USB_DEVICE/App/usbd_desc.c ****   * @param  speed : Current device speed
 264:USB_DEVICE/App/usbd_desc.c ****   * @param  length : Pointer to data length variable
 265:USB_DEVICE/App/usbd_desc.c ****   * @retval Pointer to descriptor buffer
 266:USB_DEVICE/App/usbd_desc.c ****   */
 267:USB_DEVICE/App/usbd_desc.c **** uint8_t * USBD_FS_ManufacturerStrDescriptor(USBD_SpeedTypeDef speed, uint16_t *length)
 268:USB_DEVICE/App/usbd_desc.c **** {
 269:USB_DEVICE/App/usbd_desc.c ****   UNUSED(speed);
 270:USB_DEVICE/App/usbd_desc.c ****   USBD_GetString((uint8_t *)USBD_MANUFACTURER_STRING, USBD_StrDesc, length);
 271:USB_DEVICE/App/usbd_desc.c ****   return USBD_StrDesc;
 272:USB_DEVICE/App/usbd_desc.c **** }
 273:USB_DEVICE/App/usbd_desc.c **** 
 274:USB_DEVICE/App/usbd_desc.c **** /**
 275:USB_DEVICE/App/usbd_desc.c ****   * @brief  Return the serial number string descriptor
 276:USB_DEVICE/App/usbd_desc.c ****   * @param  speed : Current device speed
 277:USB_DEVICE/App/usbd_desc.c ****   * @param  length : Pointer to data length variable
 278:USB_DEVICE/App/usbd_desc.c ****   * @retval Pointer to descriptor buffer
 279:USB_DEVICE/App/usbd_desc.c ****   */
 280:USB_DEVICE/App/usbd_desc.c **** uint8_t * USBD_FS_SerialStrDescriptor(USBD_SpeedTypeDef speed, uint16_t *length)
 281:USB_DEVICE/App/usbd_desc.c **** {
 282:USB_DEVICE/App/usbd_desc.c ****   UNUSED(speed);
 283:USB_DEVICE/App/usbd_desc.c ****   *length = USB_SIZ_STRING_SERIAL;
 284:USB_DEVICE/App/usbd_desc.c **** 
 285:USB_DEVICE/App/usbd_desc.c ****   /* Update the serial number string descriptor with the data from the unique
 286:USB_DEVICE/App/usbd_desc.c ****    * ID */
 287:USB_DEVICE/App/usbd_desc.c ****   Get_SerialNum();
 288:USB_DEVICE/App/usbd_desc.c ****   /* USER CODE BEGIN USBD_FS_SerialStrDescriptor */
 289:USB_DEVICE/App/usbd_desc.c **** 
 290:USB_DEVICE/App/usbd_desc.c ****   /* USER CODE END USBD_FS_SerialStrDescriptor */
 291:USB_DEVICE/App/usbd_desc.c ****   return (uint8_t *) USBD_StringSerial;
 292:USB_DEVICE/App/usbd_desc.c **** }
 293:USB_DEVICE/App/usbd_desc.c **** 
 294:USB_DEVICE/App/usbd_desc.c **** /**
 295:USB_DEVICE/App/usbd_desc.c ****   * @brief  Return the configuration string descriptor
 296:USB_DEVICE/App/usbd_desc.c ****   * @param  speed : Current device speed
 297:USB_DEVICE/App/usbd_desc.c ****   * @param  length : Pointer to data length variable
 298:USB_DEVICE/App/usbd_desc.c ****   * @retval Pointer to descriptor buffer
 299:USB_DEVICE/App/usbd_desc.c ****   */
 300:USB_DEVICE/App/usbd_desc.c **** uint8_t * USBD_FS_ConfigStrDescriptor(USBD_SpeedTypeDef speed, uint16_t *length)
 301:USB_DEVICE/App/usbd_desc.c **** {
 302:USB_DEVICE/App/usbd_desc.c ****   if(speed == USBD_SPEED_HIGH)
 303:USB_DEVICE/App/usbd_desc.c ****   {
 304:USB_DEVICE/App/usbd_desc.c ****     USBD_GetString((uint8_t *)USBD_CONFIGURATION_STRING_FS, USBD_StrDesc, length);
 305:USB_DEVICE/App/usbd_desc.c ****   }
 306:USB_DEVICE/App/usbd_desc.c ****   else
 307:USB_DEVICE/App/usbd_desc.c ****   {
 308:USB_DEVICE/App/usbd_desc.c ****     USBD_GetString((uint8_t *)USBD_CONFIGURATION_STRING_FS, USBD_StrDesc, length);
 309:USB_DEVICE/App/usbd_desc.c ****   }
 310:USB_DEVICE/App/usbd_desc.c ****   return USBD_StrDesc;
ARM GAS  C:\Users\Kaa\AppData\Local\Temp\ccJ6fgag.s 			page 8


 311:USB_DEVICE/App/usbd_desc.c **** }
 312:USB_DEVICE/App/usbd_desc.c **** 
 313:USB_DEVICE/App/usbd_desc.c **** /**
 314:USB_DEVICE/App/usbd_desc.c ****   * @brief  Return the interface string descriptor
 315:USB_DEVICE/App/usbd_desc.c ****   * @param  speed : Current device speed
 316:USB_DEVICE/App/usbd_desc.c ****   * @param  length : Pointer to data length variable
 317:USB_DEVICE/App/usbd_desc.c ****   * @retval Pointer to descriptor buffer
 318:USB_DEVICE/App/usbd_desc.c ****   */
 319:USB_DEVICE/App/usbd_desc.c **** uint8_t * USBD_FS_InterfaceStrDescriptor(USBD_SpeedTypeDef speed, uint16_t *length)
 320:USB_DEVICE/App/usbd_desc.c **** {
 321:USB_DEVICE/App/usbd_desc.c ****   if(speed == 0)
 322:USB_DEVICE/App/usbd_desc.c ****   {
 323:USB_DEVICE/App/usbd_desc.c ****     USBD_GetString((uint8_t *)USBD_INTERFACE_STRING_FS, USBD_StrDesc, length);
 324:USB_DEVICE/App/usbd_desc.c ****   }
 325:USB_DEVICE/App/usbd_desc.c ****   else
 326:USB_DEVICE/App/usbd_desc.c ****   {
 327:USB_DEVICE/App/usbd_desc.c ****     USBD_GetString((uint8_t *)USBD_INTERFACE_STRING_FS, USBD_StrDesc, length);
 328:USB_DEVICE/App/usbd_desc.c ****   }
 329:USB_DEVICE/App/usbd_desc.c ****   return USBD_StrDesc;
 330:USB_DEVICE/App/usbd_desc.c **** }
 331:USB_DEVICE/App/usbd_desc.c **** 
 332:USB_DEVICE/App/usbd_desc.c **** /**
 333:USB_DEVICE/App/usbd_desc.c ****   * @brief  Create the serial number string descriptor
 334:USB_DEVICE/App/usbd_desc.c ****   * @param  None
 335:USB_DEVICE/App/usbd_desc.c ****   * @retval None
 336:USB_DEVICE/App/usbd_desc.c ****   */
 337:USB_DEVICE/App/usbd_desc.c **** static void Get_SerialNum(void)
 338:USB_DEVICE/App/usbd_desc.c **** {
 339:USB_DEVICE/App/usbd_desc.c ****   uint32_t deviceserial0;
 340:USB_DEVICE/App/usbd_desc.c ****   uint32_t deviceserial1;
 341:USB_DEVICE/App/usbd_desc.c ****   uint32_t deviceserial2;
 342:USB_DEVICE/App/usbd_desc.c **** 
 343:USB_DEVICE/App/usbd_desc.c ****   deviceserial0 = *(uint32_t *) DEVICE_ID1;
 344:USB_DEVICE/App/usbd_desc.c ****   deviceserial1 = *(uint32_t *) DEVICE_ID2;
 345:USB_DEVICE/App/usbd_desc.c ****   deviceserial2 = *(uint32_t *) DEVICE_ID3;
 346:USB_DEVICE/App/usbd_desc.c **** 
 347:USB_DEVICE/App/usbd_desc.c ****   deviceserial0 += deviceserial2;
 348:USB_DEVICE/App/usbd_desc.c **** 
 349:USB_DEVICE/App/usbd_desc.c ****   if (deviceserial0 != 0)
 350:USB_DEVICE/App/usbd_desc.c ****   {
 351:USB_DEVICE/App/usbd_desc.c ****     IntToUnicode(deviceserial0, &USBD_StringSerial[2], 8);
 352:USB_DEVICE/App/usbd_desc.c ****     IntToUnicode(deviceserial1, &USBD_StringSerial[18], 4);
 353:USB_DEVICE/App/usbd_desc.c ****   }
 354:USB_DEVICE/App/usbd_desc.c **** }
 355:USB_DEVICE/App/usbd_desc.c **** 
 356:USB_DEVICE/App/usbd_desc.c **** /**
 357:USB_DEVICE/App/usbd_desc.c ****   * @brief  Convert Hex 32Bits value into char
 358:USB_DEVICE/App/usbd_desc.c ****   * @param  value: value to convert
 359:USB_DEVICE/App/usbd_desc.c ****   * @param  pbuf: pointer to the buffer
 360:USB_DEVICE/App/usbd_desc.c ****   * @param  len: buffer length
 361:USB_DEVICE/App/usbd_desc.c ****   * @retval None
 362:USB_DEVICE/App/usbd_desc.c ****   */
 363:USB_DEVICE/App/usbd_desc.c **** static void IntToUnicode(uint32_t value, uint8_t * pbuf, uint8_t len)
 364:USB_DEVICE/App/usbd_desc.c **** {
  95              		.loc 1 364 1 is_stmt 1 view -0
  96              		.cfi_startproc
  97              		@ args = 0, pretend = 0, frame = 0
ARM GAS  C:\Users\Kaa\AppData\Local\Temp\ccJ6fgag.s 			page 9


  98              		@ frame_needed = 0, uses_anonymous_args = 0
  99              		@ link register save eliminated.
 365:USB_DEVICE/App/usbd_desc.c ****   uint8_t idx = 0;
 100              		.loc 1 365 3 view .LVU15
 366:USB_DEVICE/App/usbd_desc.c **** 
 367:USB_DEVICE/App/usbd_desc.c ****   for (idx = 0; idx < len; idx++)
 101              		.loc 1 367 3 view .LVU16
 102              		.loc 1 367 12 is_stmt 0 view .LVU17
 103 0000 0023     		movs	r3, #0
 104              	.LVL5:
 105              		.loc 1 367 3 view .LVU18
 106 0002 9342     		cmp	r3, r2
 107 0004 16D2     		bcs	.L15
 364:USB_DEVICE/App/usbd_desc.c ****   uint8_t idx = 0;
 108              		.loc 1 364 1 view .LVU19
 109 0006 30B4     		push	{r4, r5}
 110              	.LCFI0:
 111              		.cfi_def_cfa_offset 8
 112              		.cfi_offset 4, -8
 113              		.cfi_offset 5, -4
 114 0008 0BE0     		b	.L11
 115              	.L9:
 368:USB_DEVICE/App/usbd_desc.c ****   {
 369:USB_DEVICE/App/usbd_desc.c ****     if (((value >> 28)) < 0xA)
 370:USB_DEVICE/App/usbd_desc.c ****     {
 371:USB_DEVICE/App/usbd_desc.c ****       pbuf[2 * idx] = (value >> 28) + '0';
 372:USB_DEVICE/App/usbd_desc.c ****     }
 373:USB_DEVICE/App/usbd_desc.c ****     else
 374:USB_DEVICE/App/usbd_desc.c ****     {
 375:USB_DEVICE/App/usbd_desc.c ****       pbuf[2 * idx] = (value >> 28) + 'A' - 10;
 116              		.loc 1 375 7 is_stmt 1 view .LVU20
 117              		.loc 1 375 43 is_stmt 0 view .LVU21
 118 000a 3734     		adds	r4, r4, #55
 119              		.loc 1 375 21 view .LVU22
 120 000c 01F81340 		strb	r4, [r1, r3, lsl #1]
 121              	.L10:
 376:USB_DEVICE/App/usbd_desc.c ****     }
 377:USB_DEVICE/App/usbd_desc.c **** 
 378:USB_DEVICE/App/usbd_desc.c ****     value = value << 4;
 122              		.loc 1 378 5 is_stmt 1 discriminator 2 view .LVU23
 123              		.loc 1 378 11 is_stmt 0 discriminator 2 view .LVU24
 124 0010 0001     		lsls	r0, r0, #4
 125              	.LVL6:
 379:USB_DEVICE/App/usbd_desc.c **** 
 380:USB_DEVICE/App/usbd_desc.c ****     pbuf[2 * idx + 1] = 0;
 126              		.loc 1 380 5 is_stmt 1 discriminator 2 view .LVU25
 127              		.loc 1 380 12 is_stmt 0 discriminator 2 view .LVU26
 128 0012 5C00     		lsls	r4, r3, #1
 129              		.loc 1 380 9 discriminator 2 view .LVU27
 130 0014 0134     		adds	r4, r4, #1
 131              		.loc 1 380 23 discriminator 2 view .LVU28
 132 0016 0025     		movs	r5, #0
 133 0018 0D55     		strb	r5, [r1, r4]
 367:USB_DEVICE/App/usbd_desc.c ****   {
 134              		.loc 1 367 31 discriminator 2 view .LVU29
 135 001a 0133     		adds	r3, r3, #1
 136              	.LVL7:
ARM GAS  C:\Users\Kaa\AppData\Local\Temp\ccJ6fgag.s 			page 10


 367:USB_DEVICE/App/usbd_desc.c ****   {
 137              		.loc 1 367 31 discriminator 2 view .LVU30
 138 001c DBB2     		uxtb	r3, r3
 139              	.LVL8:
 367:USB_DEVICE/App/usbd_desc.c ****   {
 140              		.loc 1 367 3 discriminator 2 view .LVU31
 141 001e 9342     		cmp	r3, r2
 142 0020 06D2     		bcs	.L16
 143              	.L11:
 369:USB_DEVICE/App/usbd_desc.c ****     {
 144              		.loc 1 369 5 is_stmt 1 view .LVU32
 369:USB_DEVICE/App/usbd_desc.c ****     {
 145              		.loc 1 369 17 is_stmt 0 view .LVU33
 146 0022 040F     		lsrs	r4, r0, #28
 369:USB_DEVICE/App/usbd_desc.c ****     {
 147              		.loc 1 369 8 view .LVU34
 148 0024 092C     		cmp	r4, #9
 149 0026 F0D8     		bhi	.L9
 371:USB_DEVICE/App/usbd_desc.c ****     }
 150              		.loc 1 371 7 is_stmt 1 view .LVU35
 371:USB_DEVICE/App/usbd_desc.c ****     }
 151              		.loc 1 371 37 is_stmt 0 view .LVU36
 152 0028 3034     		adds	r4, r4, #48
 371:USB_DEVICE/App/usbd_desc.c ****     }
 153              		.loc 1 371 21 view .LVU37
 154 002a 01F81340 		strb	r4, [r1, r3, lsl #1]
 155 002e EFE7     		b	.L10
 156              	.L16:
 381:USB_DEVICE/App/usbd_desc.c ****   }
 382:USB_DEVICE/App/usbd_desc.c **** }
 157              		.loc 1 382 1 view .LVU38
 158 0030 30BC     		pop	{r4, r5}
 159              	.LCFI1:
 160              		.cfi_restore 5
 161              		.cfi_restore 4
 162              		.cfi_def_cfa_offset 0
 163 0032 7047     		bx	lr
 164              	.L15:
 165              		.loc 1 382 1 view .LVU39
 166 0034 7047     		bx	lr
 167              		.cfi_endproc
 168              	.LFE409:
 170              		.section	.text.Get_SerialNum,"ax",%progbits
 171              		.align	1
 172              		.syntax unified
 173              		.thumb
 174              		.thumb_func
 175              		.fpu softvfp
 177              	Get_SerialNum:
 178              	.LFB408:
 338:USB_DEVICE/App/usbd_desc.c ****   uint32_t deviceserial0;
 179              		.loc 1 338 1 is_stmt 1 view -0
 180              		.cfi_startproc
 181              		@ args = 0, pretend = 0, frame = 0
 182              		@ frame_needed = 0, uses_anonymous_args = 0
 183 0000 38B5     		push	{r3, r4, r5, lr}
 184              	.LCFI2:
ARM GAS  C:\Users\Kaa\AppData\Local\Temp\ccJ6fgag.s 			page 11


 185              		.cfi_def_cfa_offset 16
 186              		.cfi_offset 3, -16
 187              		.cfi_offset 4, -12
 188              		.cfi_offset 5, -8
 189              		.cfi_offset 14, -4
 339:USB_DEVICE/App/usbd_desc.c ****   uint32_t deviceserial1;
 190              		.loc 1 339 3 view .LVU41
 340:USB_DEVICE/App/usbd_desc.c ****   uint32_t deviceserial2;
 191              		.loc 1 340 3 view .LVU42
 341:USB_DEVICE/App/usbd_desc.c **** 
 192              		.loc 1 341 3 view .LVU43
 343:USB_DEVICE/App/usbd_desc.c ****   deviceserial1 = *(uint32_t *) DEVICE_ID2;
 193              		.loc 1 343 3 view .LVU44
 343:USB_DEVICE/App/usbd_desc.c ****   deviceserial1 = *(uint32_t *) DEVICE_ID2;
 194              		.loc 1 343 17 is_stmt 0 view .LVU45
 195 0002 0A4B     		ldr	r3, .L21
 196 0004 1868     		ldr	r0, [r3]
 197              	.LVL9:
 344:USB_DEVICE/App/usbd_desc.c ****   deviceserial2 = *(uint32_t *) DEVICE_ID3;
 198              		.loc 1 344 3 is_stmt 1 view .LVU46
 344:USB_DEVICE/App/usbd_desc.c ****   deviceserial2 = *(uint32_t *) DEVICE_ID3;
 199              		.loc 1 344 17 is_stmt 0 view .LVU47
 200 0006 0433     		adds	r3, r3, #4
 201 0008 1C68     		ldr	r4, [r3]
 202              	.LVL10:
 345:USB_DEVICE/App/usbd_desc.c **** 
 203              		.loc 1 345 3 is_stmt 1 view .LVU48
 345:USB_DEVICE/App/usbd_desc.c **** 
 204              		.loc 1 345 17 is_stmt 0 view .LVU49
 205 000a 0433     		adds	r3, r3, #4
 206 000c 1B68     		ldr	r3, [r3]
 207              	.LVL11:
 347:USB_DEVICE/App/usbd_desc.c **** 
 208              		.loc 1 347 3 is_stmt 1 view .LVU50
 349:USB_DEVICE/App/usbd_desc.c ****   {
 209              		.loc 1 349 3 view .LVU51
 349:USB_DEVICE/App/usbd_desc.c ****   {
 210              		.loc 1 349 6 is_stmt 0 view .LVU52
 211 000e C018     		adds	r0, r0, r3
 212              	.LVL12:
 349:USB_DEVICE/App/usbd_desc.c ****   {
 213              		.loc 1 349 6 view .LVU53
 214 0010 00D1     		bne	.L20
 215              	.LVL13:
 216              	.L17:
 354:USB_DEVICE/App/usbd_desc.c **** 
 217              		.loc 1 354 1 view .LVU54
 218 0012 38BD     		pop	{r3, r4, r5, pc}
 219              	.LVL14:
 220              	.L20:
 351:USB_DEVICE/App/usbd_desc.c ****     IntToUnicode(deviceserial1, &USBD_StringSerial[18], 4);
 221              		.loc 1 351 5 is_stmt 1 view .LVU55
 222 0014 064D     		ldr	r5, .L21+4
 223 0016 0822     		movs	r2, #8
 224 0018 A91C     		adds	r1, r5, #2
 225 001a FFF7FEFF 		bl	IntToUnicode
 226              	.LVL15:
ARM GAS  C:\Users\Kaa\AppData\Local\Temp\ccJ6fgag.s 			page 12


 352:USB_DEVICE/App/usbd_desc.c ****   }
 227              		.loc 1 352 5 view .LVU56
 228 001e 0422     		movs	r2, #4
 229 0020 05F11201 		add	r1, r5, #18
 230 0024 2046     		mov	r0, r4
 231 0026 FFF7FEFF 		bl	IntToUnicode
 232              	.LVL16:
 354:USB_DEVICE/App/usbd_desc.c **** 
 233              		.loc 1 354 1 is_stmt 0 view .LVU57
 234 002a F2E7     		b	.L17
 235              	.L22:
 236              		.align	2
 237              	.L21:
 238 002c E8F7FF1F 		.word	536868840
 239 0030 00000000 		.word	.LANCHOR2
 240              		.cfi_endproc
 241              	.LFE408:
 243              		.section	.text.USBD_FS_SerialStrDescriptor,"ax",%progbits
 244              		.align	1
 245              		.global	USBD_FS_SerialStrDescriptor
 246              		.syntax unified
 247              		.thumb
 248              		.thumb_func
 249              		.fpu softvfp
 251              	USBD_FS_SerialStrDescriptor:
 252              	.LVL17:
 253              	.LFB405:
 281:USB_DEVICE/App/usbd_desc.c ****   UNUSED(speed);
 254              		.loc 1 281 1 is_stmt 1 view -0
 255              		.cfi_startproc
 256              		@ args = 0, pretend = 0, frame = 0
 257              		@ frame_needed = 0, uses_anonymous_args = 0
 281:USB_DEVICE/App/usbd_desc.c ****   UNUSED(speed);
 258              		.loc 1 281 1 is_stmt 0 view .LVU59
 259 0000 08B5     		push	{r3, lr}
 260              	.LCFI3:
 261              		.cfi_def_cfa_offset 8
 262              		.cfi_offset 3, -8
 263              		.cfi_offset 14, -4
 282:USB_DEVICE/App/usbd_desc.c ****   *length = USB_SIZ_STRING_SERIAL;
 264              		.loc 1 282 3 is_stmt 1 view .LVU60
 283:USB_DEVICE/App/usbd_desc.c **** 
 265              		.loc 1 283 3 view .LVU61
 283:USB_DEVICE/App/usbd_desc.c **** 
 266              		.loc 1 283 11 is_stmt 0 view .LVU62
 267 0002 1A23     		movs	r3, #26
 268 0004 0B80     		strh	r3, [r1]	@ movhi
 287:USB_DEVICE/App/usbd_desc.c ****   /* USER CODE BEGIN USBD_FS_SerialStrDescriptor */
 269              		.loc 1 287 3 is_stmt 1 view .LVU63
 270 0006 FFF7FEFF 		bl	Get_SerialNum
 271              	.LVL18:
 291:USB_DEVICE/App/usbd_desc.c **** }
 272              		.loc 1 291 3 view .LVU64
 292:USB_DEVICE/App/usbd_desc.c **** 
 273              		.loc 1 292 1 is_stmt 0 view .LVU65
 274 000a 0148     		ldr	r0, .L25
 275 000c 08BD     		pop	{r3, pc}
ARM GAS  C:\Users\Kaa\AppData\Local\Temp\ccJ6fgag.s 			page 13


 276              	.L26:
 277 000e 00BF     		.align	2
 278              	.L25:
 279 0010 00000000 		.word	.LANCHOR2
 280              		.cfi_endproc
 281              	.LFE405:
 283              		.section	.text.USBD_FS_ProductStrDescriptor,"ax",%progbits
 284              		.align	1
 285              		.global	USBD_FS_ProductStrDescriptor
 286              		.syntax unified
 287              		.thumb
 288              		.thumb_func
 289              		.fpu softvfp
 291              	USBD_FS_ProductStrDescriptor:
 292              	.LVL19:
 293              	.LFB403:
 249:USB_DEVICE/App/usbd_desc.c ****   if(speed == 0)
 294              		.loc 1 249 1 is_stmt 1 view -0
 295              		.cfi_startproc
 296              		@ args = 0, pretend = 0, frame = 0
 297              		@ frame_needed = 0, uses_anonymous_args = 0
 249:USB_DEVICE/App/usbd_desc.c ****   if(speed == 0)
 298              		.loc 1 249 1 is_stmt 0 view .LVU67
 299 0000 08B5     		push	{r3, lr}
 300              	.LCFI4:
 301              		.cfi_def_cfa_offset 8
 302              		.cfi_offset 3, -8
 303              		.cfi_offset 14, -4
 304 0002 0A46     		mov	r2, r1
 250:USB_DEVICE/App/usbd_desc.c ****   {
 305              		.loc 1 250 3 is_stmt 1 view .LVU68
 250:USB_DEVICE/App/usbd_desc.c ****   {
 306              		.loc 1 250 5 is_stmt 0 view .LVU69
 307 0004 28B9     		cbnz	r0, .L28
 252:USB_DEVICE/App/usbd_desc.c ****   }
 308              		.loc 1 252 5 is_stmt 1 view .LVU70
 309 0006 0549     		ldr	r1, .L31
 310              	.LVL20:
 252:USB_DEVICE/App/usbd_desc.c ****   }
 311              		.loc 1 252 5 is_stmt 0 view .LVU71
 312 0008 0548     		ldr	r0, .L31+4
 313              	.LVL21:
 252:USB_DEVICE/App/usbd_desc.c ****   }
 314              		.loc 1 252 5 view .LVU72
 315 000a FFF7FEFF 		bl	USBD_GetString
 316              	.LVL22:
 317              	.L29:
 258:USB_DEVICE/App/usbd_desc.c **** }
 318              		.loc 1 258 3 is_stmt 1 view .LVU73
 259:USB_DEVICE/App/usbd_desc.c **** 
 319              		.loc 1 259 1 is_stmt 0 view .LVU74
 320 000e 0348     		ldr	r0, .L31
 321 0010 08BD     		pop	{r3, pc}
 322              	.LVL23:
 323              	.L28:
 256:USB_DEVICE/App/usbd_desc.c ****   }
 324              		.loc 1 256 5 is_stmt 1 view .LVU75
ARM GAS  C:\Users\Kaa\AppData\Local\Temp\ccJ6fgag.s 			page 14


 325 0012 0249     		ldr	r1, .L31
 326              	.LVL24:
 256:USB_DEVICE/App/usbd_desc.c ****   }
 327              		.loc 1 256 5 is_stmt 0 view .LVU76
 328 0014 0248     		ldr	r0, .L31+4
 329              	.LVL25:
 256:USB_DEVICE/App/usbd_desc.c ****   }
 330              		.loc 1 256 5 view .LVU77
 331 0016 FFF7FEFF 		bl	USBD_GetString
 332              	.LVL26:
 256:USB_DEVICE/App/usbd_desc.c ****   }
 333              		.loc 1 256 5 view .LVU78
 334 001a F8E7     		b	.L29
 335              	.L32:
 336              		.align	2
 337              	.L31:
 338 001c 00000000 		.word	USBD_StrDesc
 339 0020 00000000 		.word	.LC0
 340              		.cfi_endproc
 341              	.LFE403:
 343              		.section	.text.USBD_FS_ManufacturerStrDescriptor,"ax",%progbits
 344              		.align	1
 345              		.global	USBD_FS_ManufacturerStrDescriptor
 346              		.syntax unified
 347              		.thumb
 348              		.thumb_func
 349              		.fpu softvfp
 351              	USBD_FS_ManufacturerStrDescriptor:
 352              	.LVL27:
 353              	.LFB404:
 268:USB_DEVICE/App/usbd_desc.c ****   UNUSED(speed);
 354              		.loc 1 268 1 is_stmt 1 view -0
 355              		.cfi_startproc
 356              		@ args = 0, pretend = 0, frame = 0
 357              		@ frame_needed = 0, uses_anonymous_args = 0
 268:USB_DEVICE/App/usbd_desc.c ****   UNUSED(speed);
 358              		.loc 1 268 1 is_stmt 0 view .LVU80
 359 0000 10B5     		push	{r4, lr}
 360              	.LCFI5:
 361              		.cfi_def_cfa_offset 8
 362              		.cfi_offset 4, -8
 363              		.cfi_offset 14, -4
 269:USB_DEVICE/App/usbd_desc.c ****   USBD_GetString((uint8_t *)USBD_MANUFACTURER_STRING, USBD_StrDesc, length);
 364              		.loc 1 269 3 is_stmt 1 view .LVU81
 270:USB_DEVICE/App/usbd_desc.c ****   return USBD_StrDesc;
 365              		.loc 1 270 3 view .LVU82
 366 0002 044C     		ldr	r4, .L35
 367 0004 0A46     		mov	r2, r1
 368 0006 2146     		mov	r1, r4
 369              	.LVL28:
 270:USB_DEVICE/App/usbd_desc.c ****   return USBD_StrDesc;
 370              		.loc 1 270 3 is_stmt 0 view .LVU83
 371 0008 0348     		ldr	r0, .L35+4
 372              	.LVL29:
 270:USB_DEVICE/App/usbd_desc.c ****   return USBD_StrDesc;
 373              		.loc 1 270 3 view .LVU84
 374 000a FFF7FEFF 		bl	USBD_GetString
ARM GAS  C:\Users\Kaa\AppData\Local\Temp\ccJ6fgag.s 			page 15


 375              	.LVL30:
 271:USB_DEVICE/App/usbd_desc.c **** }
 376              		.loc 1 271 3 is_stmt 1 view .LVU85
 272:USB_DEVICE/App/usbd_desc.c **** 
 377              		.loc 1 272 1 is_stmt 0 view .LVU86
 378 000e 2046     		mov	r0, r4
 379 0010 10BD     		pop	{r4, pc}
 380              	.L36:
 381 0012 00BF     		.align	2
 382              	.L35:
 383 0014 00000000 		.word	USBD_StrDesc
 384 0018 00000000 		.word	.LC1
 385              		.cfi_endproc
 386              	.LFE404:
 388              		.section	.text.USBD_FS_ConfigStrDescriptor,"ax",%progbits
 389              		.align	1
 390              		.global	USBD_FS_ConfigStrDescriptor
 391              		.syntax unified
 392              		.thumb
 393              		.thumb_func
 394              		.fpu softvfp
 396              	USBD_FS_ConfigStrDescriptor:
 397              	.LVL31:
 398              	.LFB406:
 301:USB_DEVICE/App/usbd_desc.c ****   if(speed == USBD_SPEED_HIGH)
 399              		.loc 1 301 1 is_stmt 1 view -0
 400              		.cfi_startproc
 401              		@ args = 0, pretend = 0, frame = 0
 402              		@ frame_needed = 0, uses_anonymous_args = 0
 301:USB_DEVICE/App/usbd_desc.c ****   if(speed == USBD_SPEED_HIGH)
 403              		.loc 1 301 1 is_stmt 0 view .LVU88
 404 0000 08B5     		push	{r3, lr}
 405              	.LCFI6:
 406              		.cfi_def_cfa_offset 8
 407              		.cfi_offset 3, -8
 408              		.cfi_offset 14, -4
 409 0002 0A46     		mov	r2, r1
 302:USB_DEVICE/App/usbd_desc.c ****   {
 410              		.loc 1 302 3 is_stmt 1 view .LVU89
 302:USB_DEVICE/App/usbd_desc.c ****   {
 411              		.loc 1 302 5 is_stmt 0 view .LVU90
 412 0004 28B9     		cbnz	r0, .L38
 304:USB_DEVICE/App/usbd_desc.c ****   }
 413              		.loc 1 304 5 is_stmt 1 view .LVU91
 414 0006 0549     		ldr	r1, .L41
 415              	.LVL32:
 304:USB_DEVICE/App/usbd_desc.c ****   }
 416              		.loc 1 304 5 is_stmt 0 view .LVU92
 417 0008 0548     		ldr	r0, .L41+4
 418              	.LVL33:
 304:USB_DEVICE/App/usbd_desc.c ****   }
 419              		.loc 1 304 5 view .LVU93
 420 000a FFF7FEFF 		bl	USBD_GetString
 421              	.LVL34:
 422              	.L39:
 310:USB_DEVICE/App/usbd_desc.c **** }
 423              		.loc 1 310 3 is_stmt 1 view .LVU94
ARM GAS  C:\Users\Kaa\AppData\Local\Temp\ccJ6fgag.s 			page 16


 311:USB_DEVICE/App/usbd_desc.c **** 
 424              		.loc 1 311 1 is_stmt 0 view .LVU95
 425 000e 0348     		ldr	r0, .L41
 426 0010 08BD     		pop	{r3, pc}
 427              	.LVL35:
 428              	.L38:
 308:USB_DEVICE/App/usbd_desc.c ****   }
 429              		.loc 1 308 5 is_stmt 1 view .LVU96
 430 0012 0249     		ldr	r1, .L41
 431              	.LVL36:
 308:USB_DEVICE/App/usbd_desc.c ****   }
 432              		.loc 1 308 5 is_stmt 0 view .LVU97
 433 0014 0248     		ldr	r0, .L41+4
 434              	.LVL37:
 308:USB_DEVICE/App/usbd_desc.c ****   }
 435              		.loc 1 308 5 view .LVU98
 436 0016 FFF7FEFF 		bl	USBD_GetString
 437              	.LVL38:
 308:USB_DEVICE/App/usbd_desc.c ****   }
 438              		.loc 1 308 5 view .LVU99
 439 001a F8E7     		b	.L39
 440              	.L42:
 441              		.align	2
 442              	.L41:
 443 001c 00000000 		.word	USBD_StrDesc
 444 0020 00000000 		.word	.LC2
 445              		.cfi_endproc
 446              	.LFE406:
 448              		.section	.text.USBD_FS_InterfaceStrDescriptor,"ax",%progbits
 449              		.align	1
 450              		.global	USBD_FS_InterfaceStrDescriptor
 451              		.syntax unified
 452              		.thumb
 453              		.thumb_func
 454              		.fpu softvfp
 456              	USBD_FS_InterfaceStrDescriptor:
 457              	.LVL39:
 458              	.LFB407:
 320:USB_DEVICE/App/usbd_desc.c ****   if(speed == 0)
 459              		.loc 1 320 1 is_stmt 1 view -0
 460              		.cfi_startproc
 461              		@ args = 0, pretend = 0, frame = 0
 462              		@ frame_needed = 0, uses_anonymous_args = 0
 320:USB_DEVICE/App/usbd_desc.c ****   if(speed == 0)
 463              		.loc 1 320 1 is_stmt 0 view .LVU101
 464 0000 08B5     		push	{r3, lr}
 465              	.LCFI7:
 466              		.cfi_def_cfa_offset 8
 467              		.cfi_offset 3, -8
 468              		.cfi_offset 14, -4
 469 0002 0A46     		mov	r2, r1
 321:USB_DEVICE/App/usbd_desc.c ****   {
 470              		.loc 1 321 3 is_stmt 1 view .LVU102
 321:USB_DEVICE/App/usbd_desc.c ****   {
 471              		.loc 1 321 5 is_stmt 0 view .LVU103
 472 0004 28B9     		cbnz	r0, .L44
 323:USB_DEVICE/App/usbd_desc.c ****   }
ARM GAS  C:\Users\Kaa\AppData\Local\Temp\ccJ6fgag.s 			page 17


 473              		.loc 1 323 5 is_stmt 1 view .LVU104
 474 0006 0549     		ldr	r1, .L47
 475              	.LVL40:
 323:USB_DEVICE/App/usbd_desc.c ****   }
 476              		.loc 1 323 5 is_stmt 0 view .LVU105
 477 0008 0548     		ldr	r0, .L47+4
 478              	.LVL41:
 323:USB_DEVICE/App/usbd_desc.c ****   }
 479              		.loc 1 323 5 view .LVU106
 480 000a FFF7FEFF 		bl	USBD_GetString
 481              	.LVL42:
 482              	.L45:
 329:USB_DEVICE/App/usbd_desc.c **** }
 483              		.loc 1 329 3 is_stmt 1 view .LVU107
 330:USB_DEVICE/App/usbd_desc.c **** 
 484              		.loc 1 330 1 is_stmt 0 view .LVU108
 485 000e 0348     		ldr	r0, .L47
 486 0010 08BD     		pop	{r3, pc}
 487              	.LVL43:
 488              	.L44:
 327:USB_DEVICE/App/usbd_desc.c ****   }
 489              		.loc 1 327 5 is_stmt 1 view .LVU109
 490 0012 0249     		ldr	r1, .L47
 491              	.LVL44:
 327:USB_DEVICE/App/usbd_desc.c ****   }
 492              		.loc 1 327 5 is_stmt 0 view .LVU110
 493 0014 0248     		ldr	r0, .L47+4
 494              	.LVL45:
 327:USB_DEVICE/App/usbd_desc.c ****   }
 495              		.loc 1 327 5 view .LVU111
 496 0016 FFF7FEFF 		bl	USBD_GetString
 497              	.LVL46:
 327:USB_DEVICE/App/usbd_desc.c ****   }
 498              		.loc 1 327 5 view .LVU112
 499 001a F8E7     		b	.L45
 500              	.L48:
 501              		.align	2
 502              	.L47:
 503 001c 00000000 		.word	USBD_StrDesc
 504 0020 00000000 		.word	.LC3
 505              		.cfi_endproc
 506              	.LFE407:
 508              		.global	USBD_StringSerial
 509              		.comm	USBD_StrDesc,512,4
 510              		.global	USBD_LangIDDesc
 511              		.global	USBD_FS_DeviceDesc
 512              		.global	FS_Desc
 513              		.section	.data.FS_Desc,"aw"
 514              		.align	2
 517              	FS_Desc:
 518 0000 00000000 		.word	USBD_FS_DeviceDescriptor
 519 0004 00000000 		.word	USBD_FS_LangIDStrDescriptor
 520 0008 00000000 		.word	USBD_FS_ManufacturerStrDescriptor
 521 000c 00000000 		.word	USBD_FS_ProductStrDescriptor
 522 0010 00000000 		.word	USBD_FS_SerialStrDescriptor
 523 0014 00000000 		.word	USBD_FS_ConfigStrDescriptor
 524 0018 00000000 		.word	USBD_FS_InterfaceStrDescriptor
ARM GAS  C:\Users\Kaa\AppData\Local\Temp\ccJ6fgag.s 			page 18


 525              		.section	.data.USBD_FS_DeviceDesc,"aw"
 526              		.align	2
 527              		.set	.LANCHOR0,. + 0
 530              	USBD_FS_DeviceDesc:
 531 0000 12       		.byte	18
 532 0001 01       		.byte	1
 533 0002 00       		.byte	0
 534 0003 02       		.byte	2
 535 0004 02       		.byte	2
 536 0005 02       		.byte	2
 537 0006 00       		.byte	0
 538 0007 40       		.byte	64
 539 0008 83       		.byte	-125
 540 0009 04       		.byte	4
 541 000a 40       		.byte	64
 542 000b 57       		.byte	87
 543 000c 00       		.byte	0
 544 000d 02       		.byte	2
 545 000e 01       		.byte	1
 546 000f 02       		.byte	2
 547 0010 03       		.byte	3
 548 0011 01       		.byte	1
 549              		.section	.data.USBD_LangIDDesc,"aw"
 550              		.align	2
 551              		.set	.LANCHOR1,. + 0
 554              	USBD_LangIDDesc:
 555 0000 04       		.byte	4
 556 0001 03       		.byte	3
 557 0002 09       		.byte	9
 558 0003 04       		.byte	4
 559              		.section	.data.USBD_StringSerial,"aw"
 560              		.align	2
 561              		.set	.LANCHOR2,. + 0
 564              	USBD_StringSerial:
 565 0000 1A       		.byte	26
 566 0001 03       		.byte	3
 567 0002 00000000 		.space	24
 567      00000000 
 567      00000000 
 567      00000000 
 567      00000000 
 568              		.section	.rodata.USBD_FS_ConfigStrDescriptor.str1.4,"aMS",%progbits,1
 569              		.align	2
 570              	.LC2:
 571 0000 43444320 		.ascii	"CDC Config\000"
 571      436F6E66 
 571      696700
 572              		.section	.rodata.USBD_FS_InterfaceStrDescriptor.str1.4,"aMS",%progbits,1
 573              		.align	2
 574              	.LC3:
 575 0000 43444320 		.ascii	"CDC Interface\000"
 575      496E7465 
 575      72666163 
 575      6500
 576              		.section	.rodata.USBD_FS_ManufacturerStrDescriptor.str1.4,"aMS",%progbits,1
 577              		.align	2
 578              	.LC1:
ARM GAS  C:\Users\Kaa\AppData\Local\Temp\ccJ6fgag.s 			page 19


 579 0000 5A383020 		.ascii	"Z80 RAW Memory\000"
 579      52415720 
 579      4D656D6F 
 579      727900
 580              		.section	.rodata.USBD_FS_ProductStrDescriptor.str1.4,"aMS",%progbits,1
 581              		.align	2
 582              	.LC0:
 583 0000 53544D33 		.ascii	"STM32 Virtual ComPort\000"
 583      32205669 
 583      72747561 
 583      6C20436F 
 583      6D506F72 
 584              		.text
 585              	.Letext0:
 586              		.file 2 "c:\\arm_tool\\gcc\\arm-none-eabi\\include\\machine\\_default_types.h"
 587              		.file 3 "c:\\arm_tool\\gcc\\arm-none-eabi\\include\\sys\\lock.h"
 588              		.file 4 "c:\\arm_tool\\gcc\\arm-none-eabi\\include\\sys\\_types.h"
 589              		.file 5 "c:\\arm_tool\\gcc\\lib\\gcc\\arm-none-eabi\\8.2.1\\include\\stddef.h"
 590              		.file 6 "c:\\arm_tool\\gcc\\arm-none-eabi\\include\\sys\\reent.h"
 591              		.file 7 "c:\\arm_tool\\gcc\\arm-none-eabi\\include\\sys\\_stdint.h"
 592              		.file 8 "c:\\arm_tool\\gcc\\arm-none-eabi\\include\\stdlib.h"
 593              		.file 9 "Drivers/CMSIS/Include/core_cm3.h"
 594              		.file 10 "Drivers/CMSIS/Device/ST/STM32F1xx/Include/system_stm32f1xx.h"
 595              		.file 11 "Drivers/STM32F1xx_HAL_Driver/Inc/stm32f1xx_hal.h"
 596              		.file 12 "Core/Inc/main.h"
 597              		.file 13 "Middlewares/ST/STM32_USB_Device_Library/Core/Inc/usbd_def.h"
 598              		.file 14 "USB_DEVICE/App/usbd_desc.h"
 599              		.file 15 "Drivers/STM32F1xx_HAL_Driver/Inc/stm32f1xx_ll_dma.h"
 600              		.file 16 "Middlewares/ST/STM32_USB_Device_Library/Core/Inc/usbd_ctlreq.h"
ARM GAS  C:\Users\Kaa\AppData\Local\Temp\ccJ6fgag.s 			page 20

