ARM GAS  C:\Users\Kaa\AppData\Local\Temp\cc61P2Ds.s 			page 1


   1              		.cpu cortex-m3
   2              		.eabi_attribute 20, 1
   3              		.eabi_attribute 21, 1
   4              		.eabi_attribute 23, 3
   5              		.eabi_attribute 24, 1
   6              		.eabi_attribute 25, 1
   7              		.eabi_attribute 26, 1
   8              		.eabi_attribute 30, 1
   9              		.eabi_attribute 34, 1
  10              		.eabi_attribute 18, 4
  11              		.file	"usbd_msc_scsi.c"
  12              		.text
  13              	.Ltext0:
  14              		.cfi_sections	.debug_frame
  15              		.section	.text.SCSI_Inquiry,"ax",%progbits
  16              		.align	1
  17              		.arch armv7-m
  18              		.syntax unified
  19              		.thumb
  20              		.thumb_func
  21              		.fpu softvfp
  23              	SCSI_Inquiry:
  24              	.LVL0:
  25              	.LFB403:
  26              		.file 1 "Middlewares/ST/STM32_USB_Device_Library/Class/MSC/Src/usbd_msc_scsi.c"
   1:Middlewares/ST/STM32_USB_Device_Library/Class/MSC/Src/usbd_msc_scsi.c **** /**
   2:Middlewares/ST/STM32_USB_Device_Library/Class/MSC/Src/usbd_msc_scsi.c ****   ******************************************************************************
   3:Middlewares/ST/STM32_USB_Device_Library/Class/MSC/Src/usbd_msc_scsi.c ****   * @file    usbd_msc_scsi.c
   4:Middlewares/ST/STM32_USB_Device_Library/Class/MSC/Src/usbd_msc_scsi.c ****   * @author  MCD Application Team
   5:Middlewares/ST/STM32_USB_Device_Library/Class/MSC/Src/usbd_msc_scsi.c ****   * @brief   This file provides all the USBD SCSI layer functions.
   6:Middlewares/ST/STM32_USB_Device_Library/Class/MSC/Src/usbd_msc_scsi.c ****   ******************************************************************************
   7:Middlewares/ST/STM32_USB_Device_Library/Class/MSC/Src/usbd_msc_scsi.c ****   * @attention
   8:Middlewares/ST/STM32_USB_Device_Library/Class/MSC/Src/usbd_msc_scsi.c ****   *
   9:Middlewares/ST/STM32_USB_Device_Library/Class/MSC/Src/usbd_msc_scsi.c ****   * <h2><center>&copy; Copyright (c) 2015 STMicroelectronics.
  10:Middlewares/ST/STM32_USB_Device_Library/Class/MSC/Src/usbd_msc_scsi.c ****   * All rights reserved.</center></h2>
  11:Middlewares/ST/STM32_USB_Device_Library/Class/MSC/Src/usbd_msc_scsi.c ****   *
  12:Middlewares/ST/STM32_USB_Device_Library/Class/MSC/Src/usbd_msc_scsi.c ****   * This software component is licensed by ST under Ultimate Liberty license
  13:Middlewares/ST/STM32_USB_Device_Library/Class/MSC/Src/usbd_msc_scsi.c ****   * SLA0044, the "License"; You may not use this file except in compliance with
  14:Middlewares/ST/STM32_USB_Device_Library/Class/MSC/Src/usbd_msc_scsi.c ****   * the License. You may obtain a copy of the License at:
  15:Middlewares/ST/STM32_USB_Device_Library/Class/MSC/Src/usbd_msc_scsi.c ****   *                      www.st.com/SLA0044
  16:Middlewares/ST/STM32_USB_Device_Library/Class/MSC/Src/usbd_msc_scsi.c ****   *
  17:Middlewares/ST/STM32_USB_Device_Library/Class/MSC/Src/usbd_msc_scsi.c ****   ******************************************************************************
  18:Middlewares/ST/STM32_USB_Device_Library/Class/MSC/Src/usbd_msc_scsi.c ****   */
  19:Middlewares/ST/STM32_USB_Device_Library/Class/MSC/Src/usbd_msc_scsi.c **** 
  20:Middlewares/ST/STM32_USB_Device_Library/Class/MSC/Src/usbd_msc_scsi.c **** /* BSPDependencies
  21:Middlewares/ST/STM32_USB_Device_Library/Class/MSC/Src/usbd_msc_scsi.c **** - "stm32xxxxx_{eval}{discovery}{nucleo_144}.c"
  22:Middlewares/ST/STM32_USB_Device_Library/Class/MSC/Src/usbd_msc_scsi.c **** - "stm32xxxxx_{eval}{discovery}_io.c"
  23:Middlewares/ST/STM32_USB_Device_Library/Class/MSC/Src/usbd_msc_scsi.c **** - "stm32xxxxx_{eval}{discovery}{adafruit}_sd.c"
  24:Middlewares/ST/STM32_USB_Device_Library/Class/MSC/Src/usbd_msc_scsi.c **** EndBSPDependencies */
  25:Middlewares/ST/STM32_USB_Device_Library/Class/MSC/Src/usbd_msc_scsi.c **** 
  26:Middlewares/ST/STM32_USB_Device_Library/Class/MSC/Src/usbd_msc_scsi.c **** /* Includes ------------------------------------------------------------------*/
  27:Middlewares/ST/STM32_USB_Device_Library/Class/MSC/Src/usbd_msc_scsi.c **** #include "usbd_msc_bot.h"
  28:Middlewares/ST/STM32_USB_Device_Library/Class/MSC/Src/usbd_msc_scsi.c **** #include "usbd_msc_scsi.h"
  29:Middlewares/ST/STM32_USB_Device_Library/Class/MSC/Src/usbd_msc_scsi.c **** #include "usbd_msc.h"
  30:Middlewares/ST/STM32_USB_Device_Library/Class/MSC/Src/usbd_msc_scsi.c **** #include "usbd_msc_data.h"
  31:Middlewares/ST/STM32_USB_Device_Library/Class/MSC/Src/usbd_msc_scsi.c **** 
  32:Middlewares/ST/STM32_USB_Device_Library/Class/MSC/Src/usbd_msc_scsi.c **** 
ARM GAS  C:\Users\Kaa\AppData\Local\Temp\cc61P2Ds.s 			page 2


  33:Middlewares/ST/STM32_USB_Device_Library/Class/MSC/Src/usbd_msc_scsi.c **** 
  34:Middlewares/ST/STM32_USB_Device_Library/Class/MSC/Src/usbd_msc_scsi.c **** /** @addtogroup STM32_USB_DEVICE_LIBRARY
  35:Middlewares/ST/STM32_USB_Device_Library/Class/MSC/Src/usbd_msc_scsi.c ****   * @{
  36:Middlewares/ST/STM32_USB_Device_Library/Class/MSC/Src/usbd_msc_scsi.c ****   */
  37:Middlewares/ST/STM32_USB_Device_Library/Class/MSC/Src/usbd_msc_scsi.c **** 
  38:Middlewares/ST/STM32_USB_Device_Library/Class/MSC/Src/usbd_msc_scsi.c **** 
  39:Middlewares/ST/STM32_USB_Device_Library/Class/MSC/Src/usbd_msc_scsi.c **** /** @defgroup MSC_SCSI
  40:Middlewares/ST/STM32_USB_Device_Library/Class/MSC/Src/usbd_msc_scsi.c ****   * @brief Mass storage SCSI layer module
  41:Middlewares/ST/STM32_USB_Device_Library/Class/MSC/Src/usbd_msc_scsi.c ****   * @{
  42:Middlewares/ST/STM32_USB_Device_Library/Class/MSC/Src/usbd_msc_scsi.c ****   */
  43:Middlewares/ST/STM32_USB_Device_Library/Class/MSC/Src/usbd_msc_scsi.c **** 
  44:Middlewares/ST/STM32_USB_Device_Library/Class/MSC/Src/usbd_msc_scsi.c **** /** @defgroup MSC_SCSI_Private_TypesDefinitions
  45:Middlewares/ST/STM32_USB_Device_Library/Class/MSC/Src/usbd_msc_scsi.c ****   * @{
  46:Middlewares/ST/STM32_USB_Device_Library/Class/MSC/Src/usbd_msc_scsi.c ****   */
  47:Middlewares/ST/STM32_USB_Device_Library/Class/MSC/Src/usbd_msc_scsi.c **** /**
  48:Middlewares/ST/STM32_USB_Device_Library/Class/MSC/Src/usbd_msc_scsi.c ****   * @}
  49:Middlewares/ST/STM32_USB_Device_Library/Class/MSC/Src/usbd_msc_scsi.c ****   */
  50:Middlewares/ST/STM32_USB_Device_Library/Class/MSC/Src/usbd_msc_scsi.c **** 
  51:Middlewares/ST/STM32_USB_Device_Library/Class/MSC/Src/usbd_msc_scsi.c **** 
  52:Middlewares/ST/STM32_USB_Device_Library/Class/MSC/Src/usbd_msc_scsi.c **** /** @defgroup MSC_SCSI_Private_Defines
  53:Middlewares/ST/STM32_USB_Device_Library/Class/MSC/Src/usbd_msc_scsi.c ****   * @{
  54:Middlewares/ST/STM32_USB_Device_Library/Class/MSC/Src/usbd_msc_scsi.c ****   */
  55:Middlewares/ST/STM32_USB_Device_Library/Class/MSC/Src/usbd_msc_scsi.c **** 
  56:Middlewares/ST/STM32_USB_Device_Library/Class/MSC/Src/usbd_msc_scsi.c **** /**
  57:Middlewares/ST/STM32_USB_Device_Library/Class/MSC/Src/usbd_msc_scsi.c ****   * @}
  58:Middlewares/ST/STM32_USB_Device_Library/Class/MSC/Src/usbd_msc_scsi.c ****   */
  59:Middlewares/ST/STM32_USB_Device_Library/Class/MSC/Src/usbd_msc_scsi.c **** 
  60:Middlewares/ST/STM32_USB_Device_Library/Class/MSC/Src/usbd_msc_scsi.c **** 
  61:Middlewares/ST/STM32_USB_Device_Library/Class/MSC/Src/usbd_msc_scsi.c **** /** @defgroup MSC_SCSI_Private_Macros
  62:Middlewares/ST/STM32_USB_Device_Library/Class/MSC/Src/usbd_msc_scsi.c ****   * @{
  63:Middlewares/ST/STM32_USB_Device_Library/Class/MSC/Src/usbd_msc_scsi.c ****   */
  64:Middlewares/ST/STM32_USB_Device_Library/Class/MSC/Src/usbd_msc_scsi.c **** /**
  65:Middlewares/ST/STM32_USB_Device_Library/Class/MSC/Src/usbd_msc_scsi.c ****   * @}
  66:Middlewares/ST/STM32_USB_Device_Library/Class/MSC/Src/usbd_msc_scsi.c ****   */
  67:Middlewares/ST/STM32_USB_Device_Library/Class/MSC/Src/usbd_msc_scsi.c **** 
  68:Middlewares/ST/STM32_USB_Device_Library/Class/MSC/Src/usbd_msc_scsi.c **** 
  69:Middlewares/ST/STM32_USB_Device_Library/Class/MSC/Src/usbd_msc_scsi.c **** /** @defgroup MSC_SCSI_Private_Variables
  70:Middlewares/ST/STM32_USB_Device_Library/Class/MSC/Src/usbd_msc_scsi.c ****   * @{
  71:Middlewares/ST/STM32_USB_Device_Library/Class/MSC/Src/usbd_msc_scsi.c ****   */
  72:Middlewares/ST/STM32_USB_Device_Library/Class/MSC/Src/usbd_msc_scsi.c **** 
  73:Middlewares/ST/STM32_USB_Device_Library/Class/MSC/Src/usbd_msc_scsi.c **** /**
  74:Middlewares/ST/STM32_USB_Device_Library/Class/MSC/Src/usbd_msc_scsi.c ****   * @}
  75:Middlewares/ST/STM32_USB_Device_Library/Class/MSC/Src/usbd_msc_scsi.c ****   */
  76:Middlewares/ST/STM32_USB_Device_Library/Class/MSC/Src/usbd_msc_scsi.c **** 
  77:Middlewares/ST/STM32_USB_Device_Library/Class/MSC/Src/usbd_msc_scsi.c **** 
  78:Middlewares/ST/STM32_USB_Device_Library/Class/MSC/Src/usbd_msc_scsi.c **** /** @defgroup MSC_SCSI_Private_FunctionPrototypes
  79:Middlewares/ST/STM32_USB_Device_Library/Class/MSC/Src/usbd_msc_scsi.c ****   * @{
  80:Middlewares/ST/STM32_USB_Device_Library/Class/MSC/Src/usbd_msc_scsi.c ****   */
  81:Middlewares/ST/STM32_USB_Device_Library/Class/MSC/Src/usbd_msc_scsi.c **** static int8_t SCSI_TestUnitReady(USBD_HandleTypeDef *pdev, uint8_t lun, uint8_t *params);
  82:Middlewares/ST/STM32_USB_Device_Library/Class/MSC/Src/usbd_msc_scsi.c **** static int8_t SCSI_Inquiry(USBD_HandleTypeDef *pdev, uint8_t lun, uint8_t *params);
  83:Middlewares/ST/STM32_USB_Device_Library/Class/MSC/Src/usbd_msc_scsi.c **** static int8_t SCSI_ReadFormatCapacity(USBD_HandleTypeDef *pdev, uint8_t lun, uint8_t *params);
  84:Middlewares/ST/STM32_USB_Device_Library/Class/MSC/Src/usbd_msc_scsi.c **** static int8_t SCSI_ReadCapacity10(USBD_HandleTypeDef *pdev, uint8_t lun, uint8_t *params);
  85:Middlewares/ST/STM32_USB_Device_Library/Class/MSC/Src/usbd_msc_scsi.c **** static int8_t SCSI_RequestSense(USBD_HandleTypeDef *pdev, uint8_t lun, uint8_t *params);
  86:Middlewares/ST/STM32_USB_Device_Library/Class/MSC/Src/usbd_msc_scsi.c **** static int8_t SCSI_StartStopUnit(USBD_HandleTypeDef *pdev, uint8_t lun, uint8_t *params);
  87:Middlewares/ST/STM32_USB_Device_Library/Class/MSC/Src/usbd_msc_scsi.c **** static int8_t SCSI_ModeSense6(USBD_HandleTypeDef *pdev, uint8_t lun, uint8_t *params);
  88:Middlewares/ST/STM32_USB_Device_Library/Class/MSC/Src/usbd_msc_scsi.c **** static int8_t SCSI_ModeSense10(USBD_HandleTypeDef *pdev, uint8_t lun, uint8_t *params);
  89:Middlewares/ST/STM32_USB_Device_Library/Class/MSC/Src/usbd_msc_scsi.c **** static int8_t SCSI_Write10(USBD_HandleTypeDef *pdev, uint8_t lun, uint8_t *params);
ARM GAS  C:\Users\Kaa\AppData\Local\Temp\cc61P2Ds.s 			page 3


  90:Middlewares/ST/STM32_USB_Device_Library/Class/MSC/Src/usbd_msc_scsi.c **** static int8_t SCSI_Read10(USBD_HandleTypeDef *pdev, uint8_t lun, uint8_t *params);
  91:Middlewares/ST/STM32_USB_Device_Library/Class/MSC/Src/usbd_msc_scsi.c **** static int8_t SCSI_Verify10(USBD_HandleTypeDef *pdev, uint8_t lun, uint8_t *params);
  92:Middlewares/ST/STM32_USB_Device_Library/Class/MSC/Src/usbd_msc_scsi.c **** static int8_t SCSI_CheckAddressRange(USBD_HandleTypeDef *pdev, uint8_t lun,
  93:Middlewares/ST/STM32_USB_Device_Library/Class/MSC/Src/usbd_msc_scsi.c ****                                      uint32_t blk_offset, uint32_t blk_nbr);
  94:Middlewares/ST/STM32_USB_Device_Library/Class/MSC/Src/usbd_msc_scsi.c **** 
  95:Middlewares/ST/STM32_USB_Device_Library/Class/MSC/Src/usbd_msc_scsi.c **** static int8_t SCSI_ProcessRead(USBD_HandleTypeDef *pdev, uint8_t lun);
  96:Middlewares/ST/STM32_USB_Device_Library/Class/MSC/Src/usbd_msc_scsi.c **** static int8_t SCSI_ProcessWrite(USBD_HandleTypeDef *pdev, uint8_t lun);
  97:Middlewares/ST/STM32_USB_Device_Library/Class/MSC/Src/usbd_msc_scsi.c **** /**
  98:Middlewares/ST/STM32_USB_Device_Library/Class/MSC/Src/usbd_msc_scsi.c ****   * @}
  99:Middlewares/ST/STM32_USB_Device_Library/Class/MSC/Src/usbd_msc_scsi.c ****   */
 100:Middlewares/ST/STM32_USB_Device_Library/Class/MSC/Src/usbd_msc_scsi.c **** 
 101:Middlewares/ST/STM32_USB_Device_Library/Class/MSC/Src/usbd_msc_scsi.c **** 
 102:Middlewares/ST/STM32_USB_Device_Library/Class/MSC/Src/usbd_msc_scsi.c **** /** @defgroup MSC_SCSI_Private_Functions
 103:Middlewares/ST/STM32_USB_Device_Library/Class/MSC/Src/usbd_msc_scsi.c ****   * @{
 104:Middlewares/ST/STM32_USB_Device_Library/Class/MSC/Src/usbd_msc_scsi.c ****   */
 105:Middlewares/ST/STM32_USB_Device_Library/Class/MSC/Src/usbd_msc_scsi.c **** 
 106:Middlewares/ST/STM32_USB_Device_Library/Class/MSC/Src/usbd_msc_scsi.c **** 
 107:Middlewares/ST/STM32_USB_Device_Library/Class/MSC/Src/usbd_msc_scsi.c **** /**
 108:Middlewares/ST/STM32_USB_Device_Library/Class/MSC/Src/usbd_msc_scsi.c **** * @brief  SCSI_ProcessCmd
 109:Middlewares/ST/STM32_USB_Device_Library/Class/MSC/Src/usbd_msc_scsi.c **** *         Process SCSI commands
 110:Middlewares/ST/STM32_USB_Device_Library/Class/MSC/Src/usbd_msc_scsi.c **** * @param  pdev: device instance
 111:Middlewares/ST/STM32_USB_Device_Library/Class/MSC/Src/usbd_msc_scsi.c **** * @param  lun: Logical unit number
 112:Middlewares/ST/STM32_USB_Device_Library/Class/MSC/Src/usbd_msc_scsi.c **** * @param  params: Command parameters
 113:Middlewares/ST/STM32_USB_Device_Library/Class/MSC/Src/usbd_msc_scsi.c **** * @retval status
 114:Middlewares/ST/STM32_USB_Device_Library/Class/MSC/Src/usbd_msc_scsi.c **** */
 115:Middlewares/ST/STM32_USB_Device_Library/Class/MSC/Src/usbd_msc_scsi.c **** int8_t SCSI_ProcessCmd(USBD_HandleTypeDef *pdev, uint8_t lun, uint8_t *cmd)
 116:Middlewares/ST/STM32_USB_Device_Library/Class/MSC/Src/usbd_msc_scsi.c **** {
 117:Middlewares/ST/STM32_USB_Device_Library/Class/MSC/Src/usbd_msc_scsi.c ****   switch (cmd[0])
 118:Middlewares/ST/STM32_USB_Device_Library/Class/MSC/Src/usbd_msc_scsi.c ****   {
 119:Middlewares/ST/STM32_USB_Device_Library/Class/MSC/Src/usbd_msc_scsi.c ****     case SCSI_TEST_UNIT_READY:
 120:Middlewares/ST/STM32_USB_Device_Library/Class/MSC/Src/usbd_msc_scsi.c ****       SCSI_TestUnitReady(pdev, lun, cmd);
 121:Middlewares/ST/STM32_USB_Device_Library/Class/MSC/Src/usbd_msc_scsi.c ****       break;
 122:Middlewares/ST/STM32_USB_Device_Library/Class/MSC/Src/usbd_msc_scsi.c **** 
 123:Middlewares/ST/STM32_USB_Device_Library/Class/MSC/Src/usbd_msc_scsi.c ****     case SCSI_REQUEST_SENSE:
 124:Middlewares/ST/STM32_USB_Device_Library/Class/MSC/Src/usbd_msc_scsi.c ****       SCSI_RequestSense(pdev, lun, cmd);
 125:Middlewares/ST/STM32_USB_Device_Library/Class/MSC/Src/usbd_msc_scsi.c ****       break;
 126:Middlewares/ST/STM32_USB_Device_Library/Class/MSC/Src/usbd_msc_scsi.c ****     case SCSI_INQUIRY:
 127:Middlewares/ST/STM32_USB_Device_Library/Class/MSC/Src/usbd_msc_scsi.c ****       SCSI_Inquiry(pdev, lun, cmd);
 128:Middlewares/ST/STM32_USB_Device_Library/Class/MSC/Src/usbd_msc_scsi.c ****       break;
 129:Middlewares/ST/STM32_USB_Device_Library/Class/MSC/Src/usbd_msc_scsi.c **** 
 130:Middlewares/ST/STM32_USB_Device_Library/Class/MSC/Src/usbd_msc_scsi.c ****     case SCSI_START_STOP_UNIT:
 131:Middlewares/ST/STM32_USB_Device_Library/Class/MSC/Src/usbd_msc_scsi.c ****       SCSI_StartStopUnit(pdev, lun, cmd);
 132:Middlewares/ST/STM32_USB_Device_Library/Class/MSC/Src/usbd_msc_scsi.c ****       break;
 133:Middlewares/ST/STM32_USB_Device_Library/Class/MSC/Src/usbd_msc_scsi.c **** 
 134:Middlewares/ST/STM32_USB_Device_Library/Class/MSC/Src/usbd_msc_scsi.c ****     case SCSI_ALLOW_MEDIUM_REMOVAL:
 135:Middlewares/ST/STM32_USB_Device_Library/Class/MSC/Src/usbd_msc_scsi.c ****       SCSI_StartStopUnit(pdev, lun, cmd);
 136:Middlewares/ST/STM32_USB_Device_Library/Class/MSC/Src/usbd_msc_scsi.c ****       break;
 137:Middlewares/ST/STM32_USB_Device_Library/Class/MSC/Src/usbd_msc_scsi.c **** 
 138:Middlewares/ST/STM32_USB_Device_Library/Class/MSC/Src/usbd_msc_scsi.c ****     case SCSI_MODE_SENSE6:
 139:Middlewares/ST/STM32_USB_Device_Library/Class/MSC/Src/usbd_msc_scsi.c ****       SCSI_ModeSense6(pdev, lun, cmd);
 140:Middlewares/ST/STM32_USB_Device_Library/Class/MSC/Src/usbd_msc_scsi.c ****       break;
 141:Middlewares/ST/STM32_USB_Device_Library/Class/MSC/Src/usbd_msc_scsi.c **** 
 142:Middlewares/ST/STM32_USB_Device_Library/Class/MSC/Src/usbd_msc_scsi.c ****     case SCSI_MODE_SENSE10:
 143:Middlewares/ST/STM32_USB_Device_Library/Class/MSC/Src/usbd_msc_scsi.c ****       SCSI_ModeSense10(pdev, lun, cmd);
 144:Middlewares/ST/STM32_USB_Device_Library/Class/MSC/Src/usbd_msc_scsi.c ****       break;
 145:Middlewares/ST/STM32_USB_Device_Library/Class/MSC/Src/usbd_msc_scsi.c **** 
 146:Middlewares/ST/STM32_USB_Device_Library/Class/MSC/Src/usbd_msc_scsi.c ****     case SCSI_READ_FORMAT_CAPACITIES:
ARM GAS  C:\Users\Kaa\AppData\Local\Temp\cc61P2Ds.s 			page 4


 147:Middlewares/ST/STM32_USB_Device_Library/Class/MSC/Src/usbd_msc_scsi.c ****       SCSI_ReadFormatCapacity(pdev, lun, cmd);
 148:Middlewares/ST/STM32_USB_Device_Library/Class/MSC/Src/usbd_msc_scsi.c ****       break;
 149:Middlewares/ST/STM32_USB_Device_Library/Class/MSC/Src/usbd_msc_scsi.c **** 
 150:Middlewares/ST/STM32_USB_Device_Library/Class/MSC/Src/usbd_msc_scsi.c ****     case SCSI_READ_CAPACITY10:
 151:Middlewares/ST/STM32_USB_Device_Library/Class/MSC/Src/usbd_msc_scsi.c ****       SCSI_ReadCapacity10(pdev, lun, cmd);
 152:Middlewares/ST/STM32_USB_Device_Library/Class/MSC/Src/usbd_msc_scsi.c ****       break;
 153:Middlewares/ST/STM32_USB_Device_Library/Class/MSC/Src/usbd_msc_scsi.c **** 
 154:Middlewares/ST/STM32_USB_Device_Library/Class/MSC/Src/usbd_msc_scsi.c ****     case SCSI_READ10:
 155:Middlewares/ST/STM32_USB_Device_Library/Class/MSC/Src/usbd_msc_scsi.c ****       SCSI_Read10(pdev, lun, cmd);
 156:Middlewares/ST/STM32_USB_Device_Library/Class/MSC/Src/usbd_msc_scsi.c ****       break;
 157:Middlewares/ST/STM32_USB_Device_Library/Class/MSC/Src/usbd_msc_scsi.c **** 
 158:Middlewares/ST/STM32_USB_Device_Library/Class/MSC/Src/usbd_msc_scsi.c ****     case SCSI_WRITE10:
 159:Middlewares/ST/STM32_USB_Device_Library/Class/MSC/Src/usbd_msc_scsi.c ****       SCSI_Write10(pdev, lun, cmd);
 160:Middlewares/ST/STM32_USB_Device_Library/Class/MSC/Src/usbd_msc_scsi.c ****       break;
 161:Middlewares/ST/STM32_USB_Device_Library/Class/MSC/Src/usbd_msc_scsi.c **** 
 162:Middlewares/ST/STM32_USB_Device_Library/Class/MSC/Src/usbd_msc_scsi.c ****     case SCSI_VERIFY10:
 163:Middlewares/ST/STM32_USB_Device_Library/Class/MSC/Src/usbd_msc_scsi.c ****       SCSI_Verify10(pdev, lun, cmd);
 164:Middlewares/ST/STM32_USB_Device_Library/Class/MSC/Src/usbd_msc_scsi.c ****       break;
 165:Middlewares/ST/STM32_USB_Device_Library/Class/MSC/Src/usbd_msc_scsi.c **** 
 166:Middlewares/ST/STM32_USB_Device_Library/Class/MSC/Src/usbd_msc_scsi.c ****     default:
 167:Middlewares/ST/STM32_USB_Device_Library/Class/MSC/Src/usbd_msc_scsi.c ****       SCSI_SenseCode(pdev, lun, ILLEGAL_REQUEST, INVALID_CDB);
 168:Middlewares/ST/STM32_USB_Device_Library/Class/MSC/Src/usbd_msc_scsi.c ****       return -1;
 169:Middlewares/ST/STM32_USB_Device_Library/Class/MSC/Src/usbd_msc_scsi.c ****   }
 170:Middlewares/ST/STM32_USB_Device_Library/Class/MSC/Src/usbd_msc_scsi.c **** 
 171:Middlewares/ST/STM32_USB_Device_Library/Class/MSC/Src/usbd_msc_scsi.c ****   return 0;
 172:Middlewares/ST/STM32_USB_Device_Library/Class/MSC/Src/usbd_msc_scsi.c **** }
 173:Middlewares/ST/STM32_USB_Device_Library/Class/MSC/Src/usbd_msc_scsi.c **** 
 174:Middlewares/ST/STM32_USB_Device_Library/Class/MSC/Src/usbd_msc_scsi.c **** 
 175:Middlewares/ST/STM32_USB_Device_Library/Class/MSC/Src/usbd_msc_scsi.c **** /**
 176:Middlewares/ST/STM32_USB_Device_Library/Class/MSC/Src/usbd_msc_scsi.c **** * @brief  SCSI_TestUnitReady
 177:Middlewares/ST/STM32_USB_Device_Library/Class/MSC/Src/usbd_msc_scsi.c **** *         Process SCSI Test Unit Ready Command
 178:Middlewares/ST/STM32_USB_Device_Library/Class/MSC/Src/usbd_msc_scsi.c **** * @param  lun: Logical unit number
 179:Middlewares/ST/STM32_USB_Device_Library/Class/MSC/Src/usbd_msc_scsi.c **** * @param  params: Command parameters
 180:Middlewares/ST/STM32_USB_Device_Library/Class/MSC/Src/usbd_msc_scsi.c **** * @retval status
 181:Middlewares/ST/STM32_USB_Device_Library/Class/MSC/Src/usbd_msc_scsi.c **** */
 182:Middlewares/ST/STM32_USB_Device_Library/Class/MSC/Src/usbd_msc_scsi.c **** static int8_t SCSI_TestUnitReady(USBD_HandleTypeDef  *pdev, uint8_t lun, uint8_t *params)
 183:Middlewares/ST/STM32_USB_Device_Library/Class/MSC/Src/usbd_msc_scsi.c **** {
 184:Middlewares/ST/STM32_USB_Device_Library/Class/MSC/Src/usbd_msc_scsi.c ****   USBD_MSC_BOT_HandleTypeDef  *hmsc = (USBD_MSC_BOT_HandleTypeDef *)pdev->pClassData;
 185:Middlewares/ST/STM32_USB_Device_Library/Class/MSC/Src/usbd_msc_scsi.c **** 
 186:Middlewares/ST/STM32_USB_Device_Library/Class/MSC/Src/usbd_msc_scsi.c ****   /* case 9 : Hi > D0 */
 187:Middlewares/ST/STM32_USB_Device_Library/Class/MSC/Src/usbd_msc_scsi.c ****   if (hmsc->cbw.dDataLength != 0U)
 188:Middlewares/ST/STM32_USB_Device_Library/Class/MSC/Src/usbd_msc_scsi.c ****   {
 189:Middlewares/ST/STM32_USB_Device_Library/Class/MSC/Src/usbd_msc_scsi.c ****     SCSI_SenseCode(pdev, hmsc->cbw.bLUN, ILLEGAL_REQUEST, INVALID_CDB);
 190:Middlewares/ST/STM32_USB_Device_Library/Class/MSC/Src/usbd_msc_scsi.c **** 
 191:Middlewares/ST/STM32_USB_Device_Library/Class/MSC/Src/usbd_msc_scsi.c ****     return -1;
 192:Middlewares/ST/STM32_USB_Device_Library/Class/MSC/Src/usbd_msc_scsi.c ****   }
 193:Middlewares/ST/STM32_USB_Device_Library/Class/MSC/Src/usbd_msc_scsi.c **** 
 194:Middlewares/ST/STM32_USB_Device_Library/Class/MSC/Src/usbd_msc_scsi.c ****   if (((USBD_StorageTypeDef *)pdev->pUserData)->IsReady(lun) != 0)
 195:Middlewares/ST/STM32_USB_Device_Library/Class/MSC/Src/usbd_msc_scsi.c ****   {
 196:Middlewares/ST/STM32_USB_Device_Library/Class/MSC/Src/usbd_msc_scsi.c ****     SCSI_SenseCode(pdev, lun, NOT_READY, MEDIUM_NOT_PRESENT);
 197:Middlewares/ST/STM32_USB_Device_Library/Class/MSC/Src/usbd_msc_scsi.c ****     hmsc->bot_state = USBD_BOT_NO_DATA;
 198:Middlewares/ST/STM32_USB_Device_Library/Class/MSC/Src/usbd_msc_scsi.c **** 
 199:Middlewares/ST/STM32_USB_Device_Library/Class/MSC/Src/usbd_msc_scsi.c ****     return -1;
 200:Middlewares/ST/STM32_USB_Device_Library/Class/MSC/Src/usbd_msc_scsi.c ****   }
 201:Middlewares/ST/STM32_USB_Device_Library/Class/MSC/Src/usbd_msc_scsi.c ****   hmsc->bot_data_length = 0U;
 202:Middlewares/ST/STM32_USB_Device_Library/Class/MSC/Src/usbd_msc_scsi.c **** 
 203:Middlewares/ST/STM32_USB_Device_Library/Class/MSC/Src/usbd_msc_scsi.c ****   return 0;
ARM GAS  C:\Users\Kaa\AppData\Local\Temp\cc61P2Ds.s 			page 5


 204:Middlewares/ST/STM32_USB_Device_Library/Class/MSC/Src/usbd_msc_scsi.c **** }
 205:Middlewares/ST/STM32_USB_Device_Library/Class/MSC/Src/usbd_msc_scsi.c **** 
 206:Middlewares/ST/STM32_USB_Device_Library/Class/MSC/Src/usbd_msc_scsi.c **** /**
 207:Middlewares/ST/STM32_USB_Device_Library/Class/MSC/Src/usbd_msc_scsi.c **** * @brief  SCSI_Inquiry
 208:Middlewares/ST/STM32_USB_Device_Library/Class/MSC/Src/usbd_msc_scsi.c **** *         Process Inquiry command
 209:Middlewares/ST/STM32_USB_Device_Library/Class/MSC/Src/usbd_msc_scsi.c **** * @param  lun: Logical unit number
 210:Middlewares/ST/STM32_USB_Device_Library/Class/MSC/Src/usbd_msc_scsi.c **** * @param  params: Command parameters
 211:Middlewares/ST/STM32_USB_Device_Library/Class/MSC/Src/usbd_msc_scsi.c **** * @retval status
 212:Middlewares/ST/STM32_USB_Device_Library/Class/MSC/Src/usbd_msc_scsi.c **** */
 213:Middlewares/ST/STM32_USB_Device_Library/Class/MSC/Src/usbd_msc_scsi.c **** static int8_t  SCSI_Inquiry(USBD_HandleTypeDef  *pdev, uint8_t lun, uint8_t *params)
 214:Middlewares/ST/STM32_USB_Device_Library/Class/MSC/Src/usbd_msc_scsi.c **** {
  27              		.loc 1 214 1 view -0
  28              		.cfi_startproc
  29              		@ args = 0, pretend = 0, frame = 0
  30              		@ frame_needed = 0, uses_anonymous_args = 0
  31              		@ link register save eliminated.
  32              		.loc 1 214 1 is_stmt 0 view .LVU1
  33 0000 10B4     		push	{r4}
  34              	.LCFI0:
  35              		.cfi_def_cfa_offset 4
  36              		.cfi_offset 4, -4
 215:Middlewares/ST/STM32_USB_Device_Library/Class/MSC/Src/usbd_msc_scsi.c ****   uint8_t *pPage;
  37              		.loc 1 215 3 is_stmt 1 view .LVU2
 216:Middlewares/ST/STM32_USB_Device_Library/Class/MSC/Src/usbd_msc_scsi.c ****   uint16_t len;
  38              		.loc 1 216 3 view .LVU3
 217:Middlewares/ST/STM32_USB_Device_Library/Class/MSC/Src/usbd_msc_scsi.c ****   USBD_MSC_BOT_HandleTypeDef  *hmsc = (USBD_MSC_BOT_HandleTypeDef *)pdev->pClassData;
  39              		.loc 1 217 3 view .LVU4
  40              		.loc 1 217 32 is_stmt 0 view .LVU5
  41 0002 D0F8B842 		ldr	r4, [r0, #696]
  42              	.LVL1:
 218:Middlewares/ST/STM32_USB_Device_Library/Class/MSC/Src/usbd_msc_scsi.c **** 
 219:Middlewares/ST/STM32_USB_Device_Library/Class/MSC/Src/usbd_msc_scsi.c ****   if (params[1] & 0x01U)/*Evpd is set*/
  43              		.loc 1 219 3 is_stmt 1 view .LVU6
  44              		.loc 1 219 13 is_stmt 0 view .LVU7
  45 0006 5378     		ldrb	r3, [r2, #1]	@ zero_extendqisi2
  46              		.loc 1 219 6 view .LVU8
  47 0008 13F0010F 		tst	r3, #1
  48 000c 0DD0     		beq	.L2
 220:Middlewares/ST/STM32_USB_Device_Library/Class/MSC/Src/usbd_msc_scsi.c ****   {
 221:Middlewares/ST/STM32_USB_Device_Library/Class/MSC/Src/usbd_msc_scsi.c ****     len = LENGTH_INQUIRY_PAGE00;
  49              		.loc 1 221 5 is_stmt 1 view .LVU9
  50              	.LVL2:
 222:Middlewares/ST/STM32_USB_Device_Library/Class/MSC/Src/usbd_msc_scsi.c ****     hmsc->bot_data_length = len;
  51              		.loc 1 222 5 view .LVU10
  52              		.loc 1 222 27 is_stmt 0 view .LVU11
  53 000e 0723     		movs	r3, #7
  54 0010 6381     		strh	r3, [r4, #10]	@ movhi
 223:Middlewares/ST/STM32_USB_Device_Library/Class/MSC/Src/usbd_msc_scsi.c **** 
 224:Middlewares/ST/STM32_USB_Device_Library/Class/MSC/Src/usbd_msc_scsi.c ****     while (len)
  55              		.loc 1 224 5 is_stmt 1 view .LVU12
  56              		.loc 1 224 11 is_stmt 0 view .LVU13
  57 0012 05E0     		b	.L3
  58              	.LVL3:
  59              	.L4:
 225:Middlewares/ST/STM32_USB_Device_Library/Class/MSC/Src/usbd_msc_scsi.c ****     {
 226:Middlewares/ST/STM32_USB_Device_Library/Class/MSC/Src/usbd_msc_scsi.c ****       len--;
  60              		.loc 1 226 7 is_stmt 1 view .LVU14
ARM GAS  C:\Users\Kaa\AppData\Local\Temp\cc61P2Ds.s 			page 6


  61              		.loc 1 226 10 is_stmt 0 view .LVU15
  62 0014 013B     		subs	r3, r3, #1
  63              	.LVL4:
  64              		.loc 1 226 10 view .LVU16
  65 0016 9BB2     		uxth	r3, r3
  66              	.LVL5:
 227:Middlewares/ST/STM32_USB_Device_Library/Class/MSC/Src/usbd_msc_scsi.c ****       hmsc->bot_data[len] = MSC_Page00_Inquiry_Data[len];
  67              		.loc 1 227 7 is_stmt 1 view .LVU17
  68              		.loc 1 227 52 is_stmt 0 view .LVU18
  69 0018 0F4A     		ldr	r2, .L10
  70 001a D15C     		ldrb	r1, [r2, r3]	@ zero_extendqisi2
  71              		.loc 1 227 27 view .LVU19
  72 001c E218     		adds	r2, r4, r3
  73 001e 1173     		strb	r1, [r2, #12]
  74              	.LVL6:
  75              	.L3:
 224:Middlewares/ST/STM32_USB_Device_Library/Class/MSC/Src/usbd_msc_scsi.c ****     {
  76              		.loc 1 224 11 view .LVU20
  77 0020 002B     		cmp	r3, #0
  78 0022 F7D1     		bne	.L4
  79              	.LVL7:
  80              	.L5:
 228:Middlewares/ST/STM32_USB_Device_Library/Class/MSC/Src/usbd_msc_scsi.c ****     }
 229:Middlewares/ST/STM32_USB_Device_Library/Class/MSC/Src/usbd_msc_scsi.c ****   }
 230:Middlewares/ST/STM32_USB_Device_Library/Class/MSC/Src/usbd_msc_scsi.c ****   else
 231:Middlewares/ST/STM32_USB_Device_Library/Class/MSC/Src/usbd_msc_scsi.c ****   {
 232:Middlewares/ST/STM32_USB_Device_Library/Class/MSC/Src/usbd_msc_scsi.c ****     pPage = (uint8_t *)(void *) & ((USBD_StorageTypeDef *)pdev->pUserData)->pInquiry[lun * STANDARD
 233:Middlewares/ST/STM32_USB_Device_Library/Class/MSC/Src/usbd_msc_scsi.c ****     len = (uint16_t)pPage[4] + 5U;
 234:Middlewares/ST/STM32_USB_Device_Library/Class/MSC/Src/usbd_msc_scsi.c **** 
 235:Middlewares/ST/STM32_USB_Device_Library/Class/MSC/Src/usbd_msc_scsi.c ****     if (params[4] <= len)
 236:Middlewares/ST/STM32_USB_Device_Library/Class/MSC/Src/usbd_msc_scsi.c ****     {
 237:Middlewares/ST/STM32_USB_Device_Library/Class/MSC/Src/usbd_msc_scsi.c ****       len = params[4];
 238:Middlewares/ST/STM32_USB_Device_Library/Class/MSC/Src/usbd_msc_scsi.c ****     }
 239:Middlewares/ST/STM32_USB_Device_Library/Class/MSC/Src/usbd_msc_scsi.c ****     hmsc->bot_data_length = len;
 240:Middlewares/ST/STM32_USB_Device_Library/Class/MSC/Src/usbd_msc_scsi.c **** 
 241:Middlewares/ST/STM32_USB_Device_Library/Class/MSC/Src/usbd_msc_scsi.c ****     while (len)
 242:Middlewares/ST/STM32_USB_Device_Library/Class/MSC/Src/usbd_msc_scsi.c ****     {
 243:Middlewares/ST/STM32_USB_Device_Library/Class/MSC/Src/usbd_msc_scsi.c ****       len--;
 244:Middlewares/ST/STM32_USB_Device_Library/Class/MSC/Src/usbd_msc_scsi.c ****       hmsc->bot_data[len] = pPage[len];
 245:Middlewares/ST/STM32_USB_Device_Library/Class/MSC/Src/usbd_msc_scsi.c ****     }
 246:Middlewares/ST/STM32_USB_Device_Library/Class/MSC/Src/usbd_msc_scsi.c ****   }
 247:Middlewares/ST/STM32_USB_Device_Library/Class/MSC/Src/usbd_msc_scsi.c **** 
 248:Middlewares/ST/STM32_USB_Device_Library/Class/MSC/Src/usbd_msc_scsi.c ****   return 0;
  81              		.loc 1 248 3 is_stmt 1 view .LVU21
 249:Middlewares/ST/STM32_USB_Device_Library/Class/MSC/Src/usbd_msc_scsi.c **** }
  82              		.loc 1 249 1 is_stmt 0 view .LVU22
  83 0024 0020     		movs	r0, #0
  84 0026 10BC     		pop	{r4}
  85              	.LCFI1:
  86              		.cfi_remember_state
  87              		.cfi_restore 4
  88              		.cfi_def_cfa_offset 0
  89              	.LVL8:
  90              		.loc 1 249 1 view .LVU23
  91 0028 7047     		bx	lr
  92              	.LVL9:
  93              	.L2:
ARM GAS  C:\Users\Kaa\AppData\Local\Temp\cc61P2Ds.s 			page 7


  94              	.LCFI2:
  95              		.cfi_restore_state
 232:Middlewares/ST/STM32_USB_Device_Library/Class/MSC/Src/usbd_msc_scsi.c ****     len = (uint16_t)pPage[4] + 5U;
  96              		.loc 1 232 5 is_stmt 1 view .LVU24
 232:Middlewares/ST/STM32_USB_Device_Library/Class/MSC/Src/usbd_msc_scsi.c ****     len = (uint16_t)pPage[4] + 5U;
  97              		.loc 1 232 63 is_stmt 0 view .LVU25
  98 002a D0F8BC32 		ldr	r3, [r0, #700]
 232:Middlewares/ST/STM32_USB_Device_Library/Class/MSC/Src/usbd_msc_scsi.c ****     len = (uint16_t)pPage[4] + 5U;
  99              		.loc 1 232 75 view .LVU26
 100 002e D869     		ldr	r0, [r3, #28]
 101              	.LVL10:
 232:Middlewares/ST/STM32_USB_Device_Library/Class/MSC/Src/usbd_msc_scsi.c ****     len = (uint16_t)pPage[4] + 5U;
 102              		.loc 1 232 90 view .LVU27
 103 0030 01EBC101 		add	r1, r1, r1, lsl #3
 104              	.LVL11:
 232:Middlewares/ST/STM32_USB_Device_Library/Class/MSC/Src/usbd_msc_scsi.c ****     len = (uint16_t)pPage[4] + 5U;
 105              		.loc 1 232 90 view .LVU28
 106 0034 8B00     		lsls	r3, r1, #2
 232:Middlewares/ST/STM32_USB_Device_Library/Class/MSC/Src/usbd_msc_scsi.c ****     len = (uint16_t)pPage[4] + 5U;
 107              		.loc 1 232 11 view .LVU29
 108 0036 1844     		add	r0, r0, r3
 109              	.LVL12:
 233:Middlewares/ST/STM32_USB_Device_Library/Class/MSC/Src/usbd_msc_scsi.c **** 
 110              		.loc 1 233 5 is_stmt 1 view .LVU30
 233:Middlewares/ST/STM32_USB_Device_Library/Class/MSC/Src/usbd_msc_scsi.c **** 
 111              		.loc 1 233 26 is_stmt 0 view .LVU31
 112 0038 0179     		ldrb	r1, [r0, #4]	@ zero_extendqisi2
 233:Middlewares/ST/STM32_USB_Device_Library/Class/MSC/Src/usbd_msc_scsi.c **** 
 113              		.loc 1 233 9 view .LVU32
 114 003a 0531     		adds	r1, r1, #5
 115              	.LVL13:
 235:Middlewares/ST/STM32_USB_Device_Library/Class/MSC/Src/usbd_msc_scsi.c ****     {
 116              		.loc 1 235 5 is_stmt 1 view .LVU33
 235:Middlewares/ST/STM32_USB_Device_Library/Class/MSC/Src/usbd_msc_scsi.c ****     {
 117              		.loc 1 235 15 is_stmt 0 view .LVU34
 118 003c 1379     		ldrb	r3, [r2, #4]	@ zero_extendqisi2
 235:Middlewares/ST/STM32_USB_Device_Library/Class/MSC/Src/usbd_msc_scsi.c ****     {
 119              		.loc 1 235 8 view .LVU35
 120 003e 8B42     		cmp	r3, r1
 121 0040 00D9     		bls	.L6
 233:Middlewares/ST/STM32_USB_Device_Library/Class/MSC/Src/usbd_msc_scsi.c **** 
 122              		.loc 1 233 9 view .LVU36
 123 0042 0B46     		mov	r3, r1
 124              	.L6:
 125              	.LVL14:
 239:Middlewares/ST/STM32_USB_Device_Library/Class/MSC/Src/usbd_msc_scsi.c **** 
 126              		.loc 1 239 5 is_stmt 1 view .LVU37
 239:Middlewares/ST/STM32_USB_Device_Library/Class/MSC/Src/usbd_msc_scsi.c **** 
 127              		.loc 1 239 27 is_stmt 0 view .LVU38
 128 0044 6381     		strh	r3, [r4, #10]	@ movhi
 241:Middlewares/ST/STM32_USB_Device_Library/Class/MSC/Src/usbd_msc_scsi.c ****     {
 129              		.loc 1 241 5 is_stmt 1 view .LVU39
 130              	.LVL15:
 131              	.L7:
 241:Middlewares/ST/STM32_USB_Device_Library/Class/MSC/Src/usbd_msc_scsi.c ****     {
 132              		.loc 1 241 11 is_stmt 0 view .LVU40
 133 0046 002B     		cmp	r3, #0
ARM GAS  C:\Users\Kaa\AppData\Local\Temp\cc61P2Ds.s 			page 8


 134 0048 ECD0     		beq	.L5
 243:Middlewares/ST/STM32_USB_Device_Library/Class/MSC/Src/usbd_msc_scsi.c ****       hmsc->bot_data[len] = pPage[len];
 135              		.loc 1 243 7 is_stmt 1 view .LVU41
 243:Middlewares/ST/STM32_USB_Device_Library/Class/MSC/Src/usbd_msc_scsi.c ****       hmsc->bot_data[len] = pPage[len];
 136              		.loc 1 243 10 is_stmt 0 view .LVU42
 137 004a 013B     		subs	r3, r3, #1
 138              	.LVL16:
 243:Middlewares/ST/STM32_USB_Device_Library/Class/MSC/Src/usbd_msc_scsi.c ****       hmsc->bot_data[len] = pPage[len];
 139              		.loc 1 243 10 view .LVU43
 140 004c 9BB2     		uxth	r3, r3
 141              	.LVL17:
 244:Middlewares/ST/STM32_USB_Device_Library/Class/MSC/Src/usbd_msc_scsi.c ****     }
 142              		.loc 1 244 7 is_stmt 1 view .LVU44
 244:Middlewares/ST/STM32_USB_Device_Library/Class/MSC/Src/usbd_msc_scsi.c ****     }
 143              		.loc 1 244 34 is_stmt 0 view .LVU45
 144 004e C15C     		ldrb	r1, [r0, r3]	@ zero_extendqisi2
 244:Middlewares/ST/STM32_USB_Device_Library/Class/MSC/Src/usbd_msc_scsi.c ****     }
 145              		.loc 1 244 27 view .LVU46
 146 0050 E218     		adds	r2, r4, r3
 147 0052 1173     		strb	r1, [r2, #12]
 148 0054 F7E7     		b	.L7
 149              	.L11:
 150 0056 00BF     		.align	2
 151              	.L10:
 152 0058 00000000 		.word	MSC_Page00_Inquiry_Data
 153              		.cfi_endproc
 154              	.LFE403:
 156              		.section	.text.SCSI_ModeSense6,"ax",%progbits
 157              		.align	1
 158              		.syntax unified
 159              		.thumb
 160              		.thumb_func
 161              		.fpu softvfp
 163              	SCSI_ModeSense6:
 164              	.LVL18:
 165              	.LFB406:
 250:Middlewares/ST/STM32_USB_Device_Library/Class/MSC/Src/usbd_msc_scsi.c **** 
 251:Middlewares/ST/STM32_USB_Device_Library/Class/MSC/Src/usbd_msc_scsi.c **** /**
 252:Middlewares/ST/STM32_USB_Device_Library/Class/MSC/Src/usbd_msc_scsi.c **** * @brief  SCSI_ReadCapacity10
 253:Middlewares/ST/STM32_USB_Device_Library/Class/MSC/Src/usbd_msc_scsi.c **** *         Process Read Capacity 10 command
 254:Middlewares/ST/STM32_USB_Device_Library/Class/MSC/Src/usbd_msc_scsi.c **** * @param  lun: Logical unit number
 255:Middlewares/ST/STM32_USB_Device_Library/Class/MSC/Src/usbd_msc_scsi.c **** * @param  params: Command parameters
 256:Middlewares/ST/STM32_USB_Device_Library/Class/MSC/Src/usbd_msc_scsi.c **** * @retval status
 257:Middlewares/ST/STM32_USB_Device_Library/Class/MSC/Src/usbd_msc_scsi.c **** */
 258:Middlewares/ST/STM32_USB_Device_Library/Class/MSC/Src/usbd_msc_scsi.c **** static int8_t SCSI_ReadCapacity10(USBD_HandleTypeDef  *pdev, uint8_t lun, uint8_t *params)
 259:Middlewares/ST/STM32_USB_Device_Library/Class/MSC/Src/usbd_msc_scsi.c **** {
 260:Middlewares/ST/STM32_USB_Device_Library/Class/MSC/Src/usbd_msc_scsi.c ****   USBD_MSC_BOT_HandleTypeDef  *hmsc = (USBD_MSC_BOT_HandleTypeDef *)pdev->pClassData;
 261:Middlewares/ST/STM32_USB_Device_Library/Class/MSC/Src/usbd_msc_scsi.c **** 
 262:Middlewares/ST/STM32_USB_Device_Library/Class/MSC/Src/usbd_msc_scsi.c ****   if (((USBD_StorageTypeDef *)pdev->pUserData)->GetCapacity(lun, &hmsc->scsi_blk_nbr, &hmsc->scsi_b
 263:Middlewares/ST/STM32_USB_Device_Library/Class/MSC/Src/usbd_msc_scsi.c ****   {
 264:Middlewares/ST/STM32_USB_Device_Library/Class/MSC/Src/usbd_msc_scsi.c ****     SCSI_SenseCode(pdev, lun, NOT_READY, MEDIUM_NOT_PRESENT);
 265:Middlewares/ST/STM32_USB_Device_Library/Class/MSC/Src/usbd_msc_scsi.c ****     return -1;
 266:Middlewares/ST/STM32_USB_Device_Library/Class/MSC/Src/usbd_msc_scsi.c ****   }
 267:Middlewares/ST/STM32_USB_Device_Library/Class/MSC/Src/usbd_msc_scsi.c ****   else
 268:Middlewares/ST/STM32_USB_Device_Library/Class/MSC/Src/usbd_msc_scsi.c ****   {
 269:Middlewares/ST/STM32_USB_Device_Library/Class/MSC/Src/usbd_msc_scsi.c **** 
 270:Middlewares/ST/STM32_USB_Device_Library/Class/MSC/Src/usbd_msc_scsi.c ****     hmsc->bot_data[0] = (uint8_t)((hmsc->scsi_blk_nbr - 1U) >> 24);
ARM GAS  C:\Users\Kaa\AppData\Local\Temp\cc61P2Ds.s 			page 9


 271:Middlewares/ST/STM32_USB_Device_Library/Class/MSC/Src/usbd_msc_scsi.c ****     hmsc->bot_data[1] = (uint8_t)((hmsc->scsi_blk_nbr - 1U) >> 16);
 272:Middlewares/ST/STM32_USB_Device_Library/Class/MSC/Src/usbd_msc_scsi.c ****     hmsc->bot_data[2] = (uint8_t)((hmsc->scsi_blk_nbr - 1U) >>  8);
 273:Middlewares/ST/STM32_USB_Device_Library/Class/MSC/Src/usbd_msc_scsi.c ****     hmsc->bot_data[3] = (uint8_t)(hmsc->scsi_blk_nbr - 1U);
 274:Middlewares/ST/STM32_USB_Device_Library/Class/MSC/Src/usbd_msc_scsi.c **** 
 275:Middlewares/ST/STM32_USB_Device_Library/Class/MSC/Src/usbd_msc_scsi.c ****     hmsc->bot_data[4] = (uint8_t)(hmsc->scsi_blk_size >>  24);
 276:Middlewares/ST/STM32_USB_Device_Library/Class/MSC/Src/usbd_msc_scsi.c ****     hmsc->bot_data[5] = (uint8_t)(hmsc->scsi_blk_size >>  16);
 277:Middlewares/ST/STM32_USB_Device_Library/Class/MSC/Src/usbd_msc_scsi.c ****     hmsc->bot_data[6] = (uint8_t)(hmsc->scsi_blk_size >>  8);
 278:Middlewares/ST/STM32_USB_Device_Library/Class/MSC/Src/usbd_msc_scsi.c ****     hmsc->bot_data[7] = (uint8_t)(hmsc->scsi_blk_size);
 279:Middlewares/ST/STM32_USB_Device_Library/Class/MSC/Src/usbd_msc_scsi.c **** 
 280:Middlewares/ST/STM32_USB_Device_Library/Class/MSC/Src/usbd_msc_scsi.c ****     hmsc->bot_data_length = 8U;
 281:Middlewares/ST/STM32_USB_Device_Library/Class/MSC/Src/usbd_msc_scsi.c ****     return 0;
 282:Middlewares/ST/STM32_USB_Device_Library/Class/MSC/Src/usbd_msc_scsi.c ****   }
 283:Middlewares/ST/STM32_USB_Device_Library/Class/MSC/Src/usbd_msc_scsi.c **** }
 284:Middlewares/ST/STM32_USB_Device_Library/Class/MSC/Src/usbd_msc_scsi.c **** /**
 285:Middlewares/ST/STM32_USB_Device_Library/Class/MSC/Src/usbd_msc_scsi.c **** * @brief  SCSI_ReadFormatCapacity
 286:Middlewares/ST/STM32_USB_Device_Library/Class/MSC/Src/usbd_msc_scsi.c **** *         Process Read Format Capacity command
 287:Middlewares/ST/STM32_USB_Device_Library/Class/MSC/Src/usbd_msc_scsi.c **** * @param  lun: Logical unit number
 288:Middlewares/ST/STM32_USB_Device_Library/Class/MSC/Src/usbd_msc_scsi.c **** * @param  params: Command parameters
 289:Middlewares/ST/STM32_USB_Device_Library/Class/MSC/Src/usbd_msc_scsi.c **** * @retval status
 290:Middlewares/ST/STM32_USB_Device_Library/Class/MSC/Src/usbd_msc_scsi.c **** */
 291:Middlewares/ST/STM32_USB_Device_Library/Class/MSC/Src/usbd_msc_scsi.c **** static int8_t SCSI_ReadFormatCapacity(USBD_HandleTypeDef  *pdev, uint8_t lun, uint8_t *params)
 292:Middlewares/ST/STM32_USB_Device_Library/Class/MSC/Src/usbd_msc_scsi.c **** {
 293:Middlewares/ST/STM32_USB_Device_Library/Class/MSC/Src/usbd_msc_scsi.c ****   USBD_MSC_BOT_HandleTypeDef  *hmsc = (USBD_MSC_BOT_HandleTypeDef *)pdev->pClassData;
 294:Middlewares/ST/STM32_USB_Device_Library/Class/MSC/Src/usbd_msc_scsi.c **** 
 295:Middlewares/ST/STM32_USB_Device_Library/Class/MSC/Src/usbd_msc_scsi.c ****   uint16_t blk_size;
 296:Middlewares/ST/STM32_USB_Device_Library/Class/MSC/Src/usbd_msc_scsi.c ****   uint32_t blk_nbr;
 297:Middlewares/ST/STM32_USB_Device_Library/Class/MSC/Src/usbd_msc_scsi.c ****   uint16_t i;
 298:Middlewares/ST/STM32_USB_Device_Library/Class/MSC/Src/usbd_msc_scsi.c **** 
 299:Middlewares/ST/STM32_USB_Device_Library/Class/MSC/Src/usbd_msc_scsi.c ****   for (i = 0U; i < 12U ; i++)
 300:Middlewares/ST/STM32_USB_Device_Library/Class/MSC/Src/usbd_msc_scsi.c ****   {
 301:Middlewares/ST/STM32_USB_Device_Library/Class/MSC/Src/usbd_msc_scsi.c ****     hmsc->bot_data[i] = 0U;
 302:Middlewares/ST/STM32_USB_Device_Library/Class/MSC/Src/usbd_msc_scsi.c ****   }
 303:Middlewares/ST/STM32_USB_Device_Library/Class/MSC/Src/usbd_msc_scsi.c **** 
 304:Middlewares/ST/STM32_USB_Device_Library/Class/MSC/Src/usbd_msc_scsi.c ****   if (((USBD_StorageTypeDef *)pdev->pUserData)->GetCapacity(lun, &blk_nbr, &blk_size) != 0U)
 305:Middlewares/ST/STM32_USB_Device_Library/Class/MSC/Src/usbd_msc_scsi.c ****   {
 306:Middlewares/ST/STM32_USB_Device_Library/Class/MSC/Src/usbd_msc_scsi.c ****     SCSI_SenseCode(pdev, lun, NOT_READY, MEDIUM_NOT_PRESENT);
 307:Middlewares/ST/STM32_USB_Device_Library/Class/MSC/Src/usbd_msc_scsi.c ****     return -1;
 308:Middlewares/ST/STM32_USB_Device_Library/Class/MSC/Src/usbd_msc_scsi.c ****   }
 309:Middlewares/ST/STM32_USB_Device_Library/Class/MSC/Src/usbd_msc_scsi.c ****   else
 310:Middlewares/ST/STM32_USB_Device_Library/Class/MSC/Src/usbd_msc_scsi.c ****   {
 311:Middlewares/ST/STM32_USB_Device_Library/Class/MSC/Src/usbd_msc_scsi.c ****     hmsc->bot_data[3] = 0x08U;
 312:Middlewares/ST/STM32_USB_Device_Library/Class/MSC/Src/usbd_msc_scsi.c ****     hmsc->bot_data[4] = (uint8_t)((blk_nbr - 1U) >> 24);
 313:Middlewares/ST/STM32_USB_Device_Library/Class/MSC/Src/usbd_msc_scsi.c ****     hmsc->bot_data[5] = (uint8_t)((blk_nbr - 1U) >> 16);
 314:Middlewares/ST/STM32_USB_Device_Library/Class/MSC/Src/usbd_msc_scsi.c ****     hmsc->bot_data[6] = (uint8_t)((blk_nbr - 1U) >>  8);
 315:Middlewares/ST/STM32_USB_Device_Library/Class/MSC/Src/usbd_msc_scsi.c ****     hmsc->bot_data[7] = (uint8_t)(blk_nbr - 1U);
 316:Middlewares/ST/STM32_USB_Device_Library/Class/MSC/Src/usbd_msc_scsi.c **** 
 317:Middlewares/ST/STM32_USB_Device_Library/Class/MSC/Src/usbd_msc_scsi.c ****     hmsc->bot_data[8] = 0x02U;
 318:Middlewares/ST/STM32_USB_Device_Library/Class/MSC/Src/usbd_msc_scsi.c ****     hmsc->bot_data[9] = (uint8_t)(blk_size >>  16);
 319:Middlewares/ST/STM32_USB_Device_Library/Class/MSC/Src/usbd_msc_scsi.c ****     hmsc->bot_data[10] = (uint8_t)(blk_size >>  8);
 320:Middlewares/ST/STM32_USB_Device_Library/Class/MSC/Src/usbd_msc_scsi.c ****     hmsc->bot_data[11] = (uint8_t)(blk_size);
 321:Middlewares/ST/STM32_USB_Device_Library/Class/MSC/Src/usbd_msc_scsi.c **** 
 322:Middlewares/ST/STM32_USB_Device_Library/Class/MSC/Src/usbd_msc_scsi.c ****     hmsc->bot_data_length = 12U;
 323:Middlewares/ST/STM32_USB_Device_Library/Class/MSC/Src/usbd_msc_scsi.c ****     return 0;
 324:Middlewares/ST/STM32_USB_Device_Library/Class/MSC/Src/usbd_msc_scsi.c ****   }
 325:Middlewares/ST/STM32_USB_Device_Library/Class/MSC/Src/usbd_msc_scsi.c **** }
 326:Middlewares/ST/STM32_USB_Device_Library/Class/MSC/Src/usbd_msc_scsi.c **** /**
 327:Middlewares/ST/STM32_USB_Device_Library/Class/MSC/Src/usbd_msc_scsi.c **** * @brief  SCSI_ModeSense6
ARM GAS  C:\Users\Kaa\AppData\Local\Temp\cc61P2Ds.s 			page 10


 328:Middlewares/ST/STM32_USB_Device_Library/Class/MSC/Src/usbd_msc_scsi.c **** *         Process Mode Sense6 command
 329:Middlewares/ST/STM32_USB_Device_Library/Class/MSC/Src/usbd_msc_scsi.c **** * @param  lun: Logical unit number
 330:Middlewares/ST/STM32_USB_Device_Library/Class/MSC/Src/usbd_msc_scsi.c **** * @param  params: Command parameters
 331:Middlewares/ST/STM32_USB_Device_Library/Class/MSC/Src/usbd_msc_scsi.c **** * @retval status
 332:Middlewares/ST/STM32_USB_Device_Library/Class/MSC/Src/usbd_msc_scsi.c **** */
 333:Middlewares/ST/STM32_USB_Device_Library/Class/MSC/Src/usbd_msc_scsi.c **** static int8_t SCSI_ModeSense6(USBD_HandleTypeDef  *pdev, uint8_t lun, uint8_t *params)
 334:Middlewares/ST/STM32_USB_Device_Library/Class/MSC/Src/usbd_msc_scsi.c **** {
 166              		.loc 1 334 1 is_stmt 1 view -0
 167              		.cfi_startproc
 168              		@ args = 0, pretend = 0, frame = 0
 169              		@ frame_needed = 0, uses_anonymous_args = 0
 170              		@ link register save eliminated.
 335:Middlewares/ST/STM32_USB_Device_Library/Class/MSC/Src/usbd_msc_scsi.c ****   USBD_MSC_BOT_HandleTypeDef  *hmsc = (USBD_MSC_BOT_HandleTypeDef *)pdev->pClassData;
 171              		.loc 1 335 3 view .LVU48
 172              		.loc 1 335 32 is_stmt 0 view .LVU49
 173 0000 D0F8B802 		ldr	r0, [r0, #696]
 174              	.LVL19:
 336:Middlewares/ST/STM32_USB_Device_Library/Class/MSC/Src/usbd_msc_scsi.c ****   uint16_t len = 8U;
 175              		.loc 1 336 3 is_stmt 1 view .LVU50
 337:Middlewares/ST/STM32_USB_Device_Library/Class/MSC/Src/usbd_msc_scsi.c ****   hmsc->bot_data_length = len;
 176              		.loc 1 337 3 view .LVU51
 177              		.loc 1 337 25 is_stmt 0 view .LVU52
 178 0004 0823     		movs	r3, #8
 179 0006 4381     		strh	r3, [r0, #10]	@ movhi
 338:Middlewares/ST/STM32_USB_Device_Library/Class/MSC/Src/usbd_msc_scsi.c **** 
 339:Middlewares/ST/STM32_USB_Device_Library/Class/MSC/Src/usbd_msc_scsi.c ****   while (len)
 180              		.loc 1 339 3 is_stmt 1 view .LVU53
 181              		.loc 1 339 9 is_stmt 0 view .LVU54
 182 0008 05E0     		b	.L13
 183              	.LVL20:
 184              	.L14:
 340:Middlewares/ST/STM32_USB_Device_Library/Class/MSC/Src/usbd_msc_scsi.c ****   {
 341:Middlewares/ST/STM32_USB_Device_Library/Class/MSC/Src/usbd_msc_scsi.c ****     len--;
 185              		.loc 1 341 5 is_stmt 1 view .LVU55
 186              		.loc 1 341 8 is_stmt 0 view .LVU56
 187 000a 013B     		subs	r3, r3, #1
 188              	.LVL21:
 189              		.loc 1 341 8 view .LVU57
 190 000c 9BB2     		uxth	r3, r3
 191              	.LVL22:
 342:Middlewares/ST/STM32_USB_Device_Library/Class/MSC/Src/usbd_msc_scsi.c ****     hmsc->bot_data[len] = MSC_Mode_Sense6_data[len];
 192              		.loc 1 342 5 is_stmt 1 view .LVU58
 193              		.loc 1 342 47 is_stmt 0 view .LVU59
 194 000e 044A     		ldr	r2, .L15
 195 0010 D15C     		ldrb	r1, [r2, r3]	@ zero_extendqisi2
 196              		.loc 1 342 25 view .LVU60
 197 0012 C218     		adds	r2, r0, r3
 198 0014 1173     		strb	r1, [r2, #12]
 199              	.LVL23:
 200              	.L13:
 339:Middlewares/ST/STM32_USB_Device_Library/Class/MSC/Src/usbd_msc_scsi.c ****   {
 201              		.loc 1 339 9 view .LVU61
 202 0016 002B     		cmp	r3, #0
 203 0018 F7D1     		bne	.L14
 343:Middlewares/ST/STM32_USB_Device_Library/Class/MSC/Src/usbd_msc_scsi.c ****   }
 344:Middlewares/ST/STM32_USB_Device_Library/Class/MSC/Src/usbd_msc_scsi.c ****   return 0;
 204              		.loc 1 344 3 is_stmt 1 view .LVU62
ARM GAS  C:\Users\Kaa\AppData\Local\Temp\cc61P2Ds.s 			page 11


 345:Middlewares/ST/STM32_USB_Device_Library/Class/MSC/Src/usbd_msc_scsi.c **** }
 205              		.loc 1 345 1 is_stmt 0 view .LVU63
 206 001a 0020     		movs	r0, #0
 207              	.LVL24:
 208              		.loc 1 345 1 view .LVU64
 209 001c 7047     		bx	lr
 210              	.L16:
 211 001e 00BF     		.align	2
 212              	.L15:
 213 0020 00000000 		.word	MSC_Mode_Sense6_data
 214              		.cfi_endproc
 215              	.LFE406:
 217              		.section	.text.SCSI_ModeSense10,"ax",%progbits
 218              		.align	1
 219              		.syntax unified
 220              		.thumb
 221              		.thumb_func
 222              		.fpu softvfp
 224              	SCSI_ModeSense10:
 225              	.LVL25:
 226              	.LFB407:
 346:Middlewares/ST/STM32_USB_Device_Library/Class/MSC/Src/usbd_msc_scsi.c **** 
 347:Middlewares/ST/STM32_USB_Device_Library/Class/MSC/Src/usbd_msc_scsi.c **** /**
 348:Middlewares/ST/STM32_USB_Device_Library/Class/MSC/Src/usbd_msc_scsi.c **** * @brief  SCSI_ModeSense10
 349:Middlewares/ST/STM32_USB_Device_Library/Class/MSC/Src/usbd_msc_scsi.c **** *         Process Mode Sense10 command
 350:Middlewares/ST/STM32_USB_Device_Library/Class/MSC/Src/usbd_msc_scsi.c **** * @param  lun: Logical unit number
 351:Middlewares/ST/STM32_USB_Device_Library/Class/MSC/Src/usbd_msc_scsi.c **** * @param  params: Command parameters
 352:Middlewares/ST/STM32_USB_Device_Library/Class/MSC/Src/usbd_msc_scsi.c **** * @retval status
 353:Middlewares/ST/STM32_USB_Device_Library/Class/MSC/Src/usbd_msc_scsi.c **** */
 354:Middlewares/ST/STM32_USB_Device_Library/Class/MSC/Src/usbd_msc_scsi.c **** static int8_t SCSI_ModeSense10(USBD_HandleTypeDef  *pdev, uint8_t lun, uint8_t *params)
 355:Middlewares/ST/STM32_USB_Device_Library/Class/MSC/Src/usbd_msc_scsi.c **** {
 227              		.loc 1 355 1 is_stmt 1 view -0
 228              		.cfi_startproc
 229              		@ args = 0, pretend = 0, frame = 0
 230              		@ frame_needed = 0, uses_anonymous_args = 0
 231              		@ link register save eliminated.
 356:Middlewares/ST/STM32_USB_Device_Library/Class/MSC/Src/usbd_msc_scsi.c ****   uint16_t len = 8U;
 232              		.loc 1 356 3 view .LVU66
 357:Middlewares/ST/STM32_USB_Device_Library/Class/MSC/Src/usbd_msc_scsi.c ****   USBD_MSC_BOT_HandleTypeDef  *hmsc = (USBD_MSC_BOT_HandleTypeDef *)pdev->pClassData;
 233              		.loc 1 357 3 view .LVU67
 234              		.loc 1 357 32 is_stmt 0 view .LVU68
 235 0000 D0F8B802 		ldr	r0, [r0, #696]
 236              	.LVL26:
 358:Middlewares/ST/STM32_USB_Device_Library/Class/MSC/Src/usbd_msc_scsi.c **** 
 359:Middlewares/ST/STM32_USB_Device_Library/Class/MSC/Src/usbd_msc_scsi.c ****   hmsc->bot_data_length = len;
 237              		.loc 1 359 3 is_stmt 1 view .LVU69
 238              		.loc 1 359 25 is_stmt 0 view .LVU70
 239 0004 0823     		movs	r3, #8
 240 0006 4381     		strh	r3, [r0, #10]	@ movhi
 360:Middlewares/ST/STM32_USB_Device_Library/Class/MSC/Src/usbd_msc_scsi.c **** 
 361:Middlewares/ST/STM32_USB_Device_Library/Class/MSC/Src/usbd_msc_scsi.c ****   while (len)
 241              		.loc 1 361 3 is_stmt 1 view .LVU71
 242              		.loc 1 361 9 is_stmt 0 view .LVU72
 243 0008 05E0     		b	.L18
 244              	.LVL27:
 245              	.L19:
 362:Middlewares/ST/STM32_USB_Device_Library/Class/MSC/Src/usbd_msc_scsi.c ****   {
ARM GAS  C:\Users\Kaa\AppData\Local\Temp\cc61P2Ds.s 			page 12


 363:Middlewares/ST/STM32_USB_Device_Library/Class/MSC/Src/usbd_msc_scsi.c ****     len--;
 246              		.loc 1 363 5 is_stmt 1 view .LVU73
 247              		.loc 1 363 8 is_stmt 0 view .LVU74
 248 000a 013B     		subs	r3, r3, #1
 249              	.LVL28:
 250              		.loc 1 363 8 view .LVU75
 251 000c 9BB2     		uxth	r3, r3
 252              	.LVL29:
 364:Middlewares/ST/STM32_USB_Device_Library/Class/MSC/Src/usbd_msc_scsi.c ****     hmsc->bot_data[len] = MSC_Mode_Sense10_data[len];
 253              		.loc 1 364 5 is_stmt 1 view .LVU76
 254              		.loc 1 364 48 is_stmt 0 view .LVU77
 255 000e 044A     		ldr	r2, .L20
 256 0010 D15C     		ldrb	r1, [r2, r3]	@ zero_extendqisi2
 257              		.loc 1 364 25 view .LVU78
 258 0012 C218     		adds	r2, r0, r3
 259 0014 1173     		strb	r1, [r2, #12]
 260              	.LVL30:
 261              	.L18:
 361:Middlewares/ST/STM32_USB_Device_Library/Class/MSC/Src/usbd_msc_scsi.c ****   {
 262              		.loc 1 361 9 view .LVU79
 263 0016 002B     		cmp	r3, #0
 264 0018 F7D1     		bne	.L19
 365:Middlewares/ST/STM32_USB_Device_Library/Class/MSC/Src/usbd_msc_scsi.c ****   }
 366:Middlewares/ST/STM32_USB_Device_Library/Class/MSC/Src/usbd_msc_scsi.c **** 
 367:Middlewares/ST/STM32_USB_Device_Library/Class/MSC/Src/usbd_msc_scsi.c ****   return 0;
 265              		.loc 1 367 3 is_stmt 1 view .LVU80
 368:Middlewares/ST/STM32_USB_Device_Library/Class/MSC/Src/usbd_msc_scsi.c **** }
 266              		.loc 1 368 1 is_stmt 0 view .LVU81
 267 001a 0020     		movs	r0, #0
 268              	.LVL31:
 269              		.loc 1 368 1 view .LVU82
 270 001c 7047     		bx	lr
 271              	.L21:
 272 001e 00BF     		.align	2
 273              	.L20:
 274 0020 00000000 		.word	MSC_Mode_Sense10_data
 275              		.cfi_endproc
 276              	.LFE407:
 278              		.section	.text.SCSI_RequestSense,"ax",%progbits
 279              		.align	1
 280              		.syntax unified
 281              		.thumb
 282              		.thumb_func
 283              		.fpu softvfp
 285              	SCSI_RequestSense:
 286              	.LVL32:
 287              	.LFB408:
 369:Middlewares/ST/STM32_USB_Device_Library/Class/MSC/Src/usbd_msc_scsi.c **** 
 370:Middlewares/ST/STM32_USB_Device_Library/Class/MSC/Src/usbd_msc_scsi.c **** /**
 371:Middlewares/ST/STM32_USB_Device_Library/Class/MSC/Src/usbd_msc_scsi.c **** * @brief  SCSI_RequestSense
 372:Middlewares/ST/STM32_USB_Device_Library/Class/MSC/Src/usbd_msc_scsi.c **** *         Process Request Sense command
 373:Middlewares/ST/STM32_USB_Device_Library/Class/MSC/Src/usbd_msc_scsi.c **** * @param  lun: Logical unit number
 374:Middlewares/ST/STM32_USB_Device_Library/Class/MSC/Src/usbd_msc_scsi.c **** * @param  params: Command parameters
 375:Middlewares/ST/STM32_USB_Device_Library/Class/MSC/Src/usbd_msc_scsi.c **** * @retval status
 376:Middlewares/ST/STM32_USB_Device_Library/Class/MSC/Src/usbd_msc_scsi.c **** */
 377:Middlewares/ST/STM32_USB_Device_Library/Class/MSC/Src/usbd_msc_scsi.c **** 
 378:Middlewares/ST/STM32_USB_Device_Library/Class/MSC/Src/usbd_msc_scsi.c **** static int8_t SCSI_RequestSense(USBD_HandleTypeDef  *pdev, uint8_t lun, uint8_t *params)
ARM GAS  C:\Users\Kaa\AppData\Local\Temp\cc61P2Ds.s 			page 13


 379:Middlewares/ST/STM32_USB_Device_Library/Class/MSC/Src/usbd_msc_scsi.c **** {
 288              		.loc 1 379 1 is_stmt 1 view -0
 289              		.cfi_startproc
 290              		@ args = 0, pretend = 0, frame = 0
 291              		@ frame_needed = 0, uses_anonymous_args = 0
 292              		@ link register save eliminated.
 293              		.loc 1 379 1 is_stmt 0 view .LVU84
 294 0000 10B4     		push	{r4}
 295              	.LCFI3:
 296              		.cfi_def_cfa_offset 4
 297              		.cfi_offset 4, -4
 380:Middlewares/ST/STM32_USB_Device_Library/Class/MSC/Src/usbd_msc_scsi.c ****   uint8_t i;
 298              		.loc 1 380 3 is_stmt 1 view .LVU85
 381:Middlewares/ST/STM32_USB_Device_Library/Class/MSC/Src/usbd_msc_scsi.c ****   USBD_MSC_BOT_HandleTypeDef  *hmsc = (USBD_MSC_BOT_HandleTypeDef *)pdev->pClassData;
 299              		.loc 1 381 3 view .LVU86
 300              		.loc 1 381 32 is_stmt 0 view .LVU87
 301 0002 D0F8B842 		ldr	r4, [r0, #696]
 302              	.LVL33:
 382:Middlewares/ST/STM32_USB_Device_Library/Class/MSC/Src/usbd_msc_scsi.c **** 
 383:Middlewares/ST/STM32_USB_Device_Library/Class/MSC/Src/usbd_msc_scsi.c ****   for (i = 0U ; i < REQUEST_SENSE_DATA_LEN; i++)
 303              		.loc 1 383 3 is_stmt 1 view .LVU88
 304              		.loc 1 383 10 is_stmt 0 view .LVU89
 305 0006 0023     		movs	r3, #0
 306              	.LVL34:
 307              	.L23:
 308              		.loc 1 383 3 discriminator 1 view .LVU90
 309 0008 112B     		cmp	r3, #17
 310 000a 05D8     		bhi	.L28
 384:Middlewares/ST/STM32_USB_Device_Library/Class/MSC/Src/usbd_msc_scsi.c ****   {
 385:Middlewares/ST/STM32_USB_Device_Library/Class/MSC/Src/usbd_msc_scsi.c ****     hmsc->bot_data[i] = 0U;
 311              		.loc 1 385 5 is_stmt 1 discriminator 3 view .LVU91
 312              		.loc 1 385 23 is_stmt 0 discriminator 3 view .LVU92
 313 000c E118     		adds	r1, r4, r3
 314 000e 0020     		movs	r0, #0
 315 0010 0873     		strb	r0, [r1, #12]
 383:Middlewares/ST/STM32_USB_Device_Library/Class/MSC/Src/usbd_msc_scsi.c ****   {
 316              		.loc 1 383 46 discriminator 3 view .LVU93
 317 0012 0133     		adds	r3, r3, #1
 318              	.LVL35:
 383:Middlewares/ST/STM32_USB_Device_Library/Class/MSC/Src/usbd_msc_scsi.c ****   {
 319              		.loc 1 383 46 discriminator 3 view .LVU94
 320 0014 DBB2     		uxtb	r3, r3
 321              	.LVL36:
 383:Middlewares/ST/STM32_USB_Device_Library/Class/MSC/Src/usbd_msc_scsi.c ****   {
 322              		.loc 1 383 46 discriminator 3 view .LVU95
 323 0016 F7E7     		b	.L23
 324              	.L28:
 386:Middlewares/ST/STM32_USB_Device_Library/Class/MSC/Src/usbd_msc_scsi.c ****   }
 387:Middlewares/ST/STM32_USB_Device_Library/Class/MSC/Src/usbd_msc_scsi.c **** 
 388:Middlewares/ST/STM32_USB_Device_Library/Class/MSC/Src/usbd_msc_scsi.c ****   hmsc->bot_data[0] = 0x70U;
 325              		.loc 1 388 3 is_stmt 1 view .LVU96
 326              		.loc 1 388 21 is_stmt 0 view .LVU97
 327 0018 7023     		movs	r3, #112
 328              	.LVL37:
 329              		.loc 1 388 21 view .LVU98
 330 001a 2373     		strb	r3, [r4, #12]
 389:Middlewares/ST/STM32_USB_Device_Library/Class/MSC/Src/usbd_msc_scsi.c ****   hmsc->bot_data[7] = REQUEST_SENSE_DATA_LEN - 6U;
ARM GAS  C:\Users\Kaa\AppData\Local\Temp\cc61P2Ds.s 			page 14


 331              		.loc 1 389 3 is_stmt 1 view .LVU99
 332              		.loc 1 389 21 is_stmt 0 view .LVU100
 333 001c 0C23     		movs	r3, #12
 334 001e E374     		strb	r3, [r4, #19]
 390:Middlewares/ST/STM32_USB_Device_Library/Class/MSC/Src/usbd_msc_scsi.c **** 
 391:Middlewares/ST/STM32_USB_Device_Library/Class/MSC/Src/usbd_msc_scsi.c ****   if ((hmsc->scsi_sense_head != hmsc->scsi_sense_tail))
 335              		.loc 1 391 3 is_stmt 1 view .LVU101
 336              		.loc 1 391 12 is_stmt 0 view .LVU102
 337 0020 94F85C32 		ldrb	r3, [r4, #604]	@ zero_extendqisi2
 338              		.loc 1 391 37 view .LVU103
 339 0024 94F85D12 		ldrb	r1, [r4, #605]	@ zero_extendqisi2
 340              		.loc 1 391 6 view .LVU104
 341 0028 8B42     		cmp	r3, r1
 342 002a 0FD0     		beq	.L25
 392:Middlewares/ST/STM32_USB_Device_Library/Class/MSC/Src/usbd_msc_scsi.c ****   {
 393:Middlewares/ST/STM32_USB_Device_Library/Class/MSC/Src/usbd_msc_scsi.c **** 
 394:Middlewares/ST/STM32_USB_Device_Library/Class/MSC/Src/usbd_msc_scsi.c ****     hmsc->bot_data[2]     = hmsc->scsi_sense[hmsc->scsi_sense_head].Skey;
 343              		.loc 1 394 5 is_stmt 1 view .LVU105
 344              		.loc 1 394 68 is_stmt 0 view .LVU106
 345 002c 03F14701 		add	r1, r3, #71
 346 0030 04EBC101 		add	r1, r4, r1, lsl #3
 347 0034 0879     		ldrb	r0, [r1, #4]	@ zero_extendqisi2
 348              		.loc 1 394 27 view .LVU107
 349 0036 A073     		strb	r0, [r4, #14]
 395:Middlewares/ST/STM32_USB_Device_Library/Class/MSC/Src/usbd_msc_scsi.c ****     hmsc->bot_data[12]    = hmsc->scsi_sense[hmsc->scsi_sense_head].w.b.ASCQ;
 350              		.loc 1 395 5 is_stmt 1 view .LVU108
 351              		.loc 1 395 72 is_stmt 0 view .LVU109
 352 0038 487A     		ldrb	r0, [r1, #9]	@ zero_extendqisi2
 353              		.loc 1 395 27 view .LVU110
 354 003a 2076     		strb	r0, [r4, #24]
 396:Middlewares/ST/STM32_USB_Device_Library/Class/MSC/Src/usbd_msc_scsi.c ****     hmsc->bot_data[13]    = hmsc->scsi_sense[hmsc->scsi_sense_head].w.b.ASC;
 355              		.loc 1 396 5 is_stmt 1 view .LVU111
 356              		.loc 1 396 72 is_stmt 0 view .LVU112
 357 003c 097A     		ldrb	r1, [r1, #8]	@ zero_extendqisi2
 358              		.loc 1 396 27 view .LVU113
 359 003e 6176     		strb	r1, [r4, #25]
 397:Middlewares/ST/STM32_USB_Device_Library/Class/MSC/Src/usbd_msc_scsi.c ****     hmsc->scsi_sense_head++;
 360              		.loc 1 397 5 is_stmt 1 view .LVU114
 361              		.loc 1 397 26 is_stmt 0 view .LVU115
 362 0040 0133     		adds	r3, r3, #1
 363 0042 DBB2     		uxtb	r3, r3
 364 0044 84F85C32 		strb	r3, [r4, #604]
 398:Middlewares/ST/STM32_USB_Device_Library/Class/MSC/Src/usbd_msc_scsi.c **** 
 399:Middlewares/ST/STM32_USB_Device_Library/Class/MSC/Src/usbd_msc_scsi.c ****     if (hmsc->scsi_sense_head == SENSE_LIST_DEEPTH)
 365              		.loc 1 399 5 is_stmt 1 view .LVU116
 366              		.loc 1 399 8 is_stmt 0 view .LVU117
 367 0048 042B     		cmp	r3, #4
 368 004a 08D0     		beq	.L29
 369              	.L25:
 400:Middlewares/ST/STM32_USB_Device_Library/Class/MSC/Src/usbd_msc_scsi.c ****     {
 401:Middlewares/ST/STM32_USB_Device_Library/Class/MSC/Src/usbd_msc_scsi.c ****       hmsc->scsi_sense_head = 0U;
 402:Middlewares/ST/STM32_USB_Device_Library/Class/MSC/Src/usbd_msc_scsi.c ****     }
 403:Middlewares/ST/STM32_USB_Device_Library/Class/MSC/Src/usbd_msc_scsi.c ****   }
 404:Middlewares/ST/STM32_USB_Device_Library/Class/MSC/Src/usbd_msc_scsi.c ****   hmsc->bot_data_length = REQUEST_SENSE_DATA_LEN;
 370              		.loc 1 404 3 is_stmt 1 view .LVU118
 371              		.loc 1 404 25 is_stmt 0 view .LVU119
 372 004c 1223     		movs	r3, #18
ARM GAS  C:\Users\Kaa\AppData\Local\Temp\cc61P2Ds.s 			page 15


 373 004e 6381     		strh	r3, [r4, #10]	@ movhi
 405:Middlewares/ST/STM32_USB_Device_Library/Class/MSC/Src/usbd_msc_scsi.c **** 
 406:Middlewares/ST/STM32_USB_Device_Library/Class/MSC/Src/usbd_msc_scsi.c ****   if (params[4] <= REQUEST_SENSE_DATA_LEN)
 374              		.loc 1 406 3 is_stmt 1 view .LVU120
 375              		.loc 1 406 13 is_stmt 0 view .LVU121
 376 0050 1379     		ldrb	r3, [r2, #4]	@ zero_extendqisi2
 377              		.loc 1 406 6 view .LVU122
 378 0052 122B     		cmp	r3, #18
 379 0054 00D8     		bhi	.L26
 407:Middlewares/ST/STM32_USB_Device_Library/Class/MSC/Src/usbd_msc_scsi.c ****   {
 408:Middlewares/ST/STM32_USB_Device_Library/Class/MSC/Src/usbd_msc_scsi.c ****     hmsc->bot_data_length = params[4];
 380              		.loc 1 408 5 is_stmt 1 view .LVU123
 381              		.loc 1 408 27 is_stmt 0 view .LVU124
 382 0056 6381     		strh	r3, [r4, #10]	@ movhi
 383              	.L26:
 409:Middlewares/ST/STM32_USB_Device_Library/Class/MSC/Src/usbd_msc_scsi.c ****   }
 410:Middlewares/ST/STM32_USB_Device_Library/Class/MSC/Src/usbd_msc_scsi.c ****   return 0;
 384              		.loc 1 410 3 is_stmt 1 view .LVU125
 411:Middlewares/ST/STM32_USB_Device_Library/Class/MSC/Src/usbd_msc_scsi.c **** }
 385              		.loc 1 411 1 is_stmt 0 view .LVU126
 386 0058 0020     		movs	r0, #0
 387 005a 10BC     		pop	{r4}
 388              	.LCFI4:
 389              		.cfi_remember_state
 390              		.cfi_restore 4
 391              		.cfi_def_cfa_offset 0
 392              	.LVL38:
 393              		.loc 1 411 1 view .LVU127
 394 005c 7047     		bx	lr
 395              	.LVL39:
 396              	.L29:
 397              	.LCFI5:
 398              		.cfi_restore_state
 401:Middlewares/ST/STM32_USB_Device_Library/Class/MSC/Src/usbd_msc_scsi.c ****     }
 399              		.loc 1 401 7 is_stmt 1 view .LVU128
 401:Middlewares/ST/STM32_USB_Device_Library/Class/MSC/Src/usbd_msc_scsi.c ****     }
 400              		.loc 1 401 29 is_stmt 0 view .LVU129
 401 005e 0023     		movs	r3, #0
 402 0060 84F85C32 		strb	r3, [r4, #604]
 403 0064 F2E7     		b	.L25
 404              		.cfi_endproc
 405              	.LFE408:
 407              		.section	.text.SCSI_StartStopUnit,"ax",%progbits
 408              		.align	1
 409              		.syntax unified
 410              		.thumb
 411              		.thumb_func
 412              		.fpu softvfp
 414              	SCSI_StartStopUnit:
 415              	.LVL40:
 416              	.LFB410:
 412:Middlewares/ST/STM32_USB_Device_Library/Class/MSC/Src/usbd_msc_scsi.c **** 
 413:Middlewares/ST/STM32_USB_Device_Library/Class/MSC/Src/usbd_msc_scsi.c **** /**
 414:Middlewares/ST/STM32_USB_Device_Library/Class/MSC/Src/usbd_msc_scsi.c **** * @brief  SCSI_SenseCode
 415:Middlewares/ST/STM32_USB_Device_Library/Class/MSC/Src/usbd_msc_scsi.c **** *         Load the last error code in the error list
 416:Middlewares/ST/STM32_USB_Device_Library/Class/MSC/Src/usbd_msc_scsi.c **** * @param  lun: Logical unit number
 417:Middlewares/ST/STM32_USB_Device_Library/Class/MSC/Src/usbd_msc_scsi.c **** * @param  sKey: Sense Key
ARM GAS  C:\Users\Kaa\AppData\Local\Temp\cc61P2Ds.s 			page 16


 418:Middlewares/ST/STM32_USB_Device_Library/Class/MSC/Src/usbd_msc_scsi.c **** * @param  ASC: Additional Sense Key
 419:Middlewares/ST/STM32_USB_Device_Library/Class/MSC/Src/usbd_msc_scsi.c **** * @retval none
 420:Middlewares/ST/STM32_USB_Device_Library/Class/MSC/Src/usbd_msc_scsi.c **** 
 421:Middlewares/ST/STM32_USB_Device_Library/Class/MSC/Src/usbd_msc_scsi.c **** */
 422:Middlewares/ST/STM32_USB_Device_Library/Class/MSC/Src/usbd_msc_scsi.c **** void SCSI_SenseCode(USBD_HandleTypeDef  *pdev, uint8_t lun, uint8_t sKey, uint8_t ASC)
 423:Middlewares/ST/STM32_USB_Device_Library/Class/MSC/Src/usbd_msc_scsi.c **** {
 424:Middlewares/ST/STM32_USB_Device_Library/Class/MSC/Src/usbd_msc_scsi.c ****   USBD_MSC_BOT_HandleTypeDef  *hmsc = (USBD_MSC_BOT_HandleTypeDef *)pdev->pClassData;
 425:Middlewares/ST/STM32_USB_Device_Library/Class/MSC/Src/usbd_msc_scsi.c **** 
 426:Middlewares/ST/STM32_USB_Device_Library/Class/MSC/Src/usbd_msc_scsi.c ****   hmsc->scsi_sense[hmsc->scsi_sense_tail].Skey  = sKey;
 427:Middlewares/ST/STM32_USB_Device_Library/Class/MSC/Src/usbd_msc_scsi.c ****   hmsc->scsi_sense[hmsc->scsi_sense_tail].w.ASC = ASC << 8;
 428:Middlewares/ST/STM32_USB_Device_Library/Class/MSC/Src/usbd_msc_scsi.c ****   hmsc->scsi_sense_tail++;
 429:Middlewares/ST/STM32_USB_Device_Library/Class/MSC/Src/usbd_msc_scsi.c ****   if (hmsc->scsi_sense_tail == SENSE_LIST_DEEPTH)
 430:Middlewares/ST/STM32_USB_Device_Library/Class/MSC/Src/usbd_msc_scsi.c ****   {
 431:Middlewares/ST/STM32_USB_Device_Library/Class/MSC/Src/usbd_msc_scsi.c ****     hmsc->scsi_sense_tail = 0U;
 432:Middlewares/ST/STM32_USB_Device_Library/Class/MSC/Src/usbd_msc_scsi.c ****   }
 433:Middlewares/ST/STM32_USB_Device_Library/Class/MSC/Src/usbd_msc_scsi.c **** }
 434:Middlewares/ST/STM32_USB_Device_Library/Class/MSC/Src/usbd_msc_scsi.c **** /**
 435:Middlewares/ST/STM32_USB_Device_Library/Class/MSC/Src/usbd_msc_scsi.c **** * @brief  SCSI_StartStopUnit
 436:Middlewares/ST/STM32_USB_Device_Library/Class/MSC/Src/usbd_msc_scsi.c **** *         Process Start Stop Unit command
 437:Middlewares/ST/STM32_USB_Device_Library/Class/MSC/Src/usbd_msc_scsi.c **** * @param  lun: Logical unit number
 438:Middlewares/ST/STM32_USB_Device_Library/Class/MSC/Src/usbd_msc_scsi.c **** * @param  params: Command parameters
 439:Middlewares/ST/STM32_USB_Device_Library/Class/MSC/Src/usbd_msc_scsi.c **** * @retval status
 440:Middlewares/ST/STM32_USB_Device_Library/Class/MSC/Src/usbd_msc_scsi.c **** */
 441:Middlewares/ST/STM32_USB_Device_Library/Class/MSC/Src/usbd_msc_scsi.c **** static int8_t SCSI_StartStopUnit(USBD_HandleTypeDef  *pdev, uint8_t lun, uint8_t *params)
 442:Middlewares/ST/STM32_USB_Device_Library/Class/MSC/Src/usbd_msc_scsi.c **** {
 417              		.loc 1 442 1 is_stmt 1 view -0
 418              		.cfi_startproc
 419              		@ args = 0, pretend = 0, frame = 0
 420              		@ frame_needed = 0, uses_anonymous_args = 0
 421              		@ link register save eliminated.
 443:Middlewares/ST/STM32_USB_Device_Library/Class/MSC/Src/usbd_msc_scsi.c ****   USBD_MSC_BOT_HandleTypeDef  *hmsc = (USBD_MSC_BOT_HandleTypeDef *) pdev->pClassData;
 422              		.loc 1 443 3 view .LVU131
 423              		.loc 1 443 32 is_stmt 0 view .LVU132
 424 0000 D0F8B832 		ldr	r3, [r0, #696]
 425              	.LVL41:
 444:Middlewares/ST/STM32_USB_Device_Library/Class/MSC/Src/usbd_msc_scsi.c ****   hmsc->bot_data_length = 0U;
 426              		.loc 1 444 3 is_stmt 1 view .LVU133
 427              		.loc 1 444 25 is_stmt 0 view .LVU134
 428 0004 0020     		movs	r0, #0
 429              	.LVL42:
 430              		.loc 1 444 25 view .LVU135
 431 0006 5881     		strh	r0, [r3, #10]	@ movhi
 445:Middlewares/ST/STM32_USB_Device_Library/Class/MSC/Src/usbd_msc_scsi.c ****   return 0;
 432              		.loc 1 445 3 is_stmt 1 view .LVU136
 446:Middlewares/ST/STM32_USB_Device_Library/Class/MSC/Src/usbd_msc_scsi.c **** }
 433              		.loc 1 446 1 is_stmt 0 view .LVU137
 434 0008 7047     		bx	lr
 435              		.cfi_endproc
 436              	.LFE410:
 438              		.section	.text.SCSI_SenseCode,"ax",%progbits
 439              		.align	1
 440              		.global	SCSI_SenseCode
 441              		.syntax unified
 442              		.thumb
 443              		.thumb_func
 444              		.fpu softvfp
 446              	SCSI_SenseCode:
ARM GAS  C:\Users\Kaa\AppData\Local\Temp\cc61P2Ds.s 			page 17


 447              	.LVL43:
 448              	.LFB409:
 423:Middlewares/ST/STM32_USB_Device_Library/Class/MSC/Src/usbd_msc_scsi.c ****   USBD_MSC_BOT_HandleTypeDef  *hmsc = (USBD_MSC_BOT_HandleTypeDef *)pdev->pClassData;
 449              		.loc 1 423 1 is_stmt 1 view -0
 450              		.cfi_startproc
 451              		@ args = 0, pretend = 0, frame = 0
 452              		@ frame_needed = 0, uses_anonymous_args = 0
 453              		@ link register save eliminated.
 424:Middlewares/ST/STM32_USB_Device_Library/Class/MSC/Src/usbd_msc_scsi.c **** 
 454              		.loc 1 424 3 view .LVU139
 424:Middlewares/ST/STM32_USB_Device_Library/Class/MSC/Src/usbd_msc_scsi.c **** 
 455              		.loc 1 424 32 is_stmt 0 view .LVU140
 456 0000 D0F8B802 		ldr	r0, [r0, #696]
 457              	.LVL44:
 426:Middlewares/ST/STM32_USB_Device_Library/Class/MSC/Src/usbd_msc_scsi.c ****   hmsc->scsi_sense[hmsc->scsi_sense_tail].w.ASC = ASC << 8;
 458              		.loc 1 426 3 is_stmt 1 view .LVU141
 426:Middlewares/ST/STM32_USB_Device_Library/Class/MSC/Src/usbd_msc_scsi.c ****   hmsc->scsi_sense[hmsc->scsi_sense_tail].w.ASC = ASC << 8;
 459              		.loc 1 426 24 is_stmt 0 view .LVU142
 460 0004 90F85D32 		ldrb	r3, [r0, #605]	@ zero_extendqisi2
 461              	.LVL45:
 426:Middlewares/ST/STM32_USB_Device_Library/Class/MSC/Src/usbd_msc_scsi.c ****   hmsc->scsi_sense[hmsc->scsi_sense_tail].w.ASC = ASC << 8;
 462              		.loc 1 426 49 view .LVU143
 463 0008 03F14701 		add	r1, r3, #71
 464              	.LVL46:
 426:Middlewares/ST/STM32_USB_Device_Library/Class/MSC/Src/usbd_msc_scsi.c ****   hmsc->scsi_sense[hmsc->scsi_sense_tail].w.ASC = ASC << 8;
 465              		.loc 1 426 49 view .LVU144
 466 000c 00EBC101 		add	r1, r0, r1, lsl #3
 467 0010 0A71     		strb	r2, [r1, #4]
 427:Middlewares/ST/STM32_USB_Device_Library/Class/MSC/Src/usbd_msc_scsi.c ****   hmsc->scsi_sense_tail++;
 468              		.loc 1 427 3 is_stmt 1 view .LVU145
 427:Middlewares/ST/STM32_USB_Device_Library/Class/MSC/Src/usbd_msc_scsi.c ****   hmsc->scsi_sense_tail++;
 469              		.loc 1 427 49 is_stmt 0 view .LVU146
 470 0012 0022     		movs	r2, #0
 471              	.LVL47:
 427:Middlewares/ST/STM32_USB_Device_Library/Class/MSC/Src/usbd_msc_scsi.c ****   hmsc->scsi_sense_tail++;
 472              		.loc 1 427 49 view .LVU147
 473 0014 0A72     		strb	r2, [r1, #8]
 428:Middlewares/ST/STM32_USB_Device_Library/Class/MSC/Src/usbd_msc_scsi.c ****   if (hmsc->scsi_sense_tail == SENSE_LIST_DEEPTH)
 474              		.loc 1 428 3 is_stmt 1 view .LVU148
 428:Middlewares/ST/STM32_USB_Device_Library/Class/MSC/Src/usbd_msc_scsi.c ****   if (hmsc->scsi_sense_tail == SENSE_LIST_DEEPTH)
 475              		.loc 1 428 24 is_stmt 0 view .LVU149
 476 0016 0133     		adds	r3, r3, #1
 477 0018 DBB2     		uxtb	r3, r3
 478 001a 80F85D32 		strb	r3, [r0, #605]
 479              	.LVL48:
 429:Middlewares/ST/STM32_USB_Device_Library/Class/MSC/Src/usbd_msc_scsi.c ****   {
 480              		.loc 1 429 3 is_stmt 1 view .LVU150
 429:Middlewares/ST/STM32_USB_Device_Library/Class/MSC/Src/usbd_msc_scsi.c ****   {
 481              		.loc 1 429 6 is_stmt 0 view .LVU151
 482 001e 042B     		cmp	r3, #4
 483 0020 00D0     		beq	.L33
 484              	.L31:
 433:Middlewares/ST/STM32_USB_Device_Library/Class/MSC/Src/usbd_msc_scsi.c **** /**
 485              		.loc 1 433 1 view .LVU152
 486 0022 7047     		bx	lr
 487              	.L33:
 431:Middlewares/ST/STM32_USB_Device_Library/Class/MSC/Src/usbd_msc_scsi.c ****   }
ARM GAS  C:\Users\Kaa\AppData\Local\Temp\cc61P2Ds.s 			page 18


 488              		.loc 1 431 5 is_stmt 1 view .LVU153
 431:Middlewares/ST/STM32_USB_Device_Library/Class/MSC/Src/usbd_msc_scsi.c ****   }
 489              		.loc 1 431 27 is_stmt 0 view .LVU154
 490 0024 80F85D22 		strb	r2, [r0, #605]
 433:Middlewares/ST/STM32_USB_Device_Library/Class/MSC/Src/usbd_msc_scsi.c **** /**
 491              		.loc 1 433 1 view .LVU155
 492 0028 FBE7     		b	.L31
 493              		.cfi_endproc
 494              	.LFE409:
 496              		.section	.text.SCSI_TestUnitReady,"ax",%progbits
 497              		.align	1
 498              		.syntax unified
 499              		.thumb
 500              		.thumb_func
 501              		.fpu softvfp
 503              	SCSI_TestUnitReady:
 504              	.LVL49:
 505              	.LFB402:
 183:Middlewares/ST/STM32_USB_Device_Library/Class/MSC/Src/usbd_msc_scsi.c ****   USBD_MSC_BOT_HandleTypeDef  *hmsc = (USBD_MSC_BOT_HandleTypeDef *)pdev->pClassData;
 506              		.loc 1 183 1 is_stmt 1 view -0
 507              		.cfi_startproc
 508              		@ args = 0, pretend = 0, frame = 0
 509              		@ frame_needed = 0, uses_anonymous_args = 0
 183:Middlewares/ST/STM32_USB_Device_Library/Class/MSC/Src/usbd_msc_scsi.c ****   USBD_MSC_BOT_HandleTypeDef  *hmsc = (USBD_MSC_BOT_HandleTypeDef *)pdev->pClassData;
 510              		.loc 1 183 1 is_stmt 0 view .LVU157
 511 0000 70B5     		push	{r4, r5, r6, lr}
 512              	.LCFI6:
 513              		.cfi_def_cfa_offset 16
 514              		.cfi_offset 4, -16
 515              		.cfi_offset 5, -12
 516              		.cfi_offset 6, -8
 517              		.cfi_offset 14, -4
 518 0002 0446     		mov	r4, r0
 184:Middlewares/ST/STM32_USB_Device_Library/Class/MSC/Src/usbd_msc_scsi.c **** 
 519              		.loc 1 184 3 is_stmt 1 view .LVU158
 184:Middlewares/ST/STM32_USB_Device_Library/Class/MSC/Src/usbd_msc_scsi.c **** 
 520              		.loc 1 184 32 is_stmt 0 view .LVU159
 521 0004 D0F8B852 		ldr	r5, [r0, #696]
 522              	.LVL50:
 187:Middlewares/ST/STM32_USB_Device_Library/Class/MSC/Src/usbd_msc_scsi.c ****   {
 523              		.loc 1 187 3 is_stmt 1 view .LVU160
 187:Middlewares/ST/STM32_USB_Device_Library/Class/MSC/Src/usbd_msc_scsi.c ****   {
 524              		.loc 1 187 16 is_stmt 0 view .LVU161
 525 0008 D5F81432 		ldr	r3, [r5, #532]
 187:Middlewares/ST/STM32_USB_Device_Library/Class/MSC/Src/usbd_msc_scsi.c ****   {
 526              		.loc 1 187 6 view .LVU162
 527 000c 5BB9     		cbnz	r3, .L39
 528 000e 0E46     		mov	r6, r1
 194:Middlewares/ST/STM32_USB_Device_Library/Class/MSC/Src/usbd_msc_scsi.c ****   {
 529              		.loc 1 194 3 is_stmt 1 view .LVU163
 194:Middlewares/ST/STM32_USB_Device_Library/Class/MSC/Src/usbd_msc_scsi.c ****   {
 530              		.loc 1 194 35 is_stmt 0 view .LVU164
 531 0010 D0F8BC32 		ldr	r3, [r0, #700]
 194:Middlewares/ST/STM32_USB_Device_Library/Class/MSC/Src/usbd_msc_scsi.c ****   {
 532              		.loc 1 194 47 view .LVU165
 533 0014 9B68     		ldr	r3, [r3, #8]
 194:Middlewares/ST/STM32_USB_Device_Library/Class/MSC/Src/usbd_msc_scsi.c ****   {
ARM GAS  C:\Users\Kaa\AppData\Local\Temp\cc61P2Ds.s 			page 19


 534              		.loc 1 194 8 view .LVU166
 535 0016 0846     		mov	r0, r1
 536              	.LVL51:
 194:Middlewares/ST/STM32_USB_Device_Library/Class/MSC/Src/usbd_msc_scsi.c ****   {
 537              		.loc 1 194 8 view .LVU167
 538 0018 9847     		blx	r3
 539              	.LVL52:
 194:Middlewares/ST/STM32_USB_Device_Library/Class/MSC/Src/usbd_msc_scsi.c ****   {
 540              		.loc 1 194 6 view .LVU168
 541 001a 0346     		mov	r3, r0
 542 001c 60B9     		cbnz	r0, .L40
 201:Middlewares/ST/STM32_USB_Device_Library/Class/MSC/Src/usbd_msc_scsi.c **** 
 543              		.loc 1 201 3 is_stmt 1 view .LVU169
 201:Middlewares/ST/STM32_USB_Device_Library/Class/MSC/Src/usbd_msc_scsi.c **** 
 544              		.loc 1 201 25 is_stmt 0 view .LVU170
 545 001e 0022     		movs	r2, #0
 546 0020 6A81     		strh	r2, [r5, #10]	@ movhi
 203:Middlewares/ST/STM32_USB_Device_Library/Class/MSC/Src/usbd_msc_scsi.c **** }
 547              		.loc 1 203 3 is_stmt 1 view .LVU171
 548              	.L36:
 204:Middlewares/ST/STM32_USB_Device_Library/Class/MSC/Src/usbd_msc_scsi.c **** 
 549              		.loc 1 204 1 is_stmt 0 view .LVU172
 550 0022 1846     		mov	r0, r3
 551 0024 70BD     		pop	{r4, r5, r6, pc}
 552              	.LVL53:
 553              	.L39:
 189:Middlewares/ST/STM32_USB_Device_Library/Class/MSC/Src/usbd_msc_scsi.c **** 
 554              		.loc 1 189 5 is_stmt 1 view .LVU173
 555 0026 2023     		movs	r3, #32
 556 0028 0522     		movs	r2, #5
 557              	.LVL54:
 189:Middlewares/ST/STM32_USB_Device_Library/Class/MSC/Src/usbd_msc_scsi.c **** 
 558              		.loc 1 189 5 is_stmt 0 view .LVU174
 559 002a 95F81912 		ldrb	r1, [r5, #537]	@ zero_extendqisi2
 560              	.LVL55:
 189:Middlewares/ST/STM32_USB_Device_Library/Class/MSC/Src/usbd_msc_scsi.c **** 
 561              		.loc 1 189 5 view .LVU175
 562 002e FFF7FEFF 		bl	SCSI_SenseCode
 563              	.LVL56:
 191:Middlewares/ST/STM32_USB_Device_Library/Class/MSC/Src/usbd_msc_scsi.c ****   }
 564              		.loc 1 191 5 is_stmt 1 view .LVU176
 191:Middlewares/ST/STM32_USB_Device_Library/Class/MSC/Src/usbd_msc_scsi.c ****   }
 565              		.loc 1 191 12 is_stmt 0 view .LVU177
 566 0032 4FF0FF33 		mov	r3, #-1
 567 0036 F4E7     		b	.L36
 568              	.L40:
 196:Middlewares/ST/STM32_USB_Device_Library/Class/MSC/Src/usbd_msc_scsi.c ****     hmsc->bot_state = USBD_BOT_NO_DATA;
 569              		.loc 1 196 5 is_stmt 1 view .LVU178
 570 0038 3A23     		movs	r3, #58
 571 003a 0222     		movs	r2, #2
 572 003c 3146     		mov	r1, r6
 573 003e 2046     		mov	r0, r4
 574 0040 FFF7FEFF 		bl	SCSI_SenseCode
 575              	.LVL57:
 197:Middlewares/ST/STM32_USB_Device_Library/Class/MSC/Src/usbd_msc_scsi.c **** 
 576              		.loc 1 197 5 view .LVU179
 197:Middlewares/ST/STM32_USB_Device_Library/Class/MSC/Src/usbd_msc_scsi.c **** 
ARM GAS  C:\Users\Kaa\AppData\Local\Temp\cc61P2Ds.s 			page 20


 577              		.loc 1 197 21 is_stmt 0 view .LVU180
 578 0044 0523     		movs	r3, #5
 579 0046 2B72     		strb	r3, [r5, #8]
 199:Middlewares/ST/STM32_USB_Device_Library/Class/MSC/Src/usbd_msc_scsi.c ****   }
 580              		.loc 1 199 5 is_stmt 1 view .LVU181
 199:Middlewares/ST/STM32_USB_Device_Library/Class/MSC/Src/usbd_msc_scsi.c ****   }
 581              		.loc 1 199 12 is_stmt 0 view .LVU182
 582 0048 4FF0FF33 		mov	r3, #-1
 583 004c E9E7     		b	.L36
 584              		.cfi_endproc
 585              	.LFE402:
 587              		.section	.text.SCSI_ReadFormatCapacity,"ax",%progbits
 588              		.align	1
 589              		.syntax unified
 590              		.thumb
 591              		.thumb_func
 592              		.fpu softvfp
 594              	SCSI_ReadFormatCapacity:
 595              	.LVL58:
 596              	.LFB405:
 292:Middlewares/ST/STM32_USB_Device_Library/Class/MSC/Src/usbd_msc_scsi.c ****   USBD_MSC_BOT_HandleTypeDef  *hmsc = (USBD_MSC_BOT_HandleTypeDef *)pdev->pClassData;
 597              		.loc 1 292 1 is_stmt 1 view -0
 598              		.cfi_startproc
 599              		@ args = 0, pretend = 0, frame = 8
 600              		@ frame_needed = 0, uses_anonymous_args = 0
 292:Middlewares/ST/STM32_USB_Device_Library/Class/MSC/Src/usbd_msc_scsi.c ****   USBD_MSC_BOT_HandleTypeDef  *hmsc = (USBD_MSC_BOT_HandleTypeDef *)pdev->pClassData;
 601              		.loc 1 292 1 is_stmt 0 view .LVU184
 602 0000 70B5     		push	{r4, r5, r6, lr}
 603              	.LCFI7:
 604              		.cfi_def_cfa_offset 16
 605              		.cfi_offset 4, -16
 606              		.cfi_offset 5, -12
 607              		.cfi_offset 6, -8
 608              		.cfi_offset 14, -4
 609 0002 82B0     		sub	sp, sp, #8
 610              	.LCFI8:
 611              		.cfi_def_cfa_offset 24
 612 0004 0546     		mov	r5, r0
 613 0006 0E46     		mov	r6, r1
 293:Middlewares/ST/STM32_USB_Device_Library/Class/MSC/Src/usbd_msc_scsi.c **** 
 614              		.loc 1 293 3 is_stmt 1 view .LVU185
 293:Middlewares/ST/STM32_USB_Device_Library/Class/MSC/Src/usbd_msc_scsi.c **** 
 615              		.loc 1 293 32 is_stmt 0 view .LVU186
 616 0008 D0F8B842 		ldr	r4, [r0, #696]
 617              	.LVL59:
 295:Middlewares/ST/STM32_USB_Device_Library/Class/MSC/Src/usbd_msc_scsi.c ****   uint32_t blk_nbr;
 618              		.loc 1 295 3 is_stmt 1 view .LVU187
 296:Middlewares/ST/STM32_USB_Device_Library/Class/MSC/Src/usbd_msc_scsi.c ****   uint16_t i;
 619              		.loc 1 296 3 view .LVU188
 297:Middlewares/ST/STM32_USB_Device_Library/Class/MSC/Src/usbd_msc_scsi.c **** 
 620              		.loc 1 297 3 view .LVU189
 299:Middlewares/ST/STM32_USB_Device_Library/Class/MSC/Src/usbd_msc_scsi.c ****   {
 621              		.loc 1 299 3 view .LVU190
 299:Middlewares/ST/STM32_USB_Device_Library/Class/MSC/Src/usbd_msc_scsi.c ****   {
 622              		.loc 1 299 10 is_stmt 0 view .LVU191
 623 000c 0023     		movs	r3, #0
 624              	.LVL60:
ARM GAS  C:\Users\Kaa\AppData\Local\Temp\cc61P2Ds.s 			page 21


 625              	.L42:
 299:Middlewares/ST/STM32_USB_Device_Library/Class/MSC/Src/usbd_msc_scsi.c ****   {
 626              		.loc 1 299 3 discriminator 1 view .LVU192
 627 000e 0B2B     		cmp	r3, #11
 628 0010 05D8     		bhi	.L47
 301:Middlewares/ST/STM32_USB_Device_Library/Class/MSC/Src/usbd_msc_scsi.c ****   }
 629              		.loc 1 301 5 is_stmt 1 discriminator 3 view .LVU193
 301:Middlewares/ST/STM32_USB_Device_Library/Class/MSC/Src/usbd_msc_scsi.c ****   }
 630              		.loc 1 301 23 is_stmt 0 discriminator 3 view .LVU194
 631 0012 E218     		adds	r2, r4, r3
 632 0014 0021     		movs	r1, #0
 633 0016 1173     		strb	r1, [r2, #12]
 299:Middlewares/ST/STM32_USB_Device_Library/Class/MSC/Src/usbd_msc_scsi.c ****   {
 634              		.loc 1 299 27 discriminator 3 view .LVU195
 635 0018 0133     		adds	r3, r3, #1
 636              	.LVL61:
 299:Middlewares/ST/STM32_USB_Device_Library/Class/MSC/Src/usbd_msc_scsi.c ****   {
 637              		.loc 1 299 27 discriminator 3 view .LVU196
 638 001a 9BB2     		uxth	r3, r3
 639              	.LVL62:
 299:Middlewares/ST/STM32_USB_Device_Library/Class/MSC/Src/usbd_msc_scsi.c ****   {
 640              		.loc 1 299 27 discriminator 3 view .LVU197
 641 001c F7E7     		b	.L42
 642              	.L47:
 304:Middlewares/ST/STM32_USB_Device_Library/Class/MSC/Src/usbd_msc_scsi.c ****   {
 643              		.loc 1 304 3 is_stmt 1 view .LVU198
 304:Middlewares/ST/STM32_USB_Device_Library/Class/MSC/Src/usbd_msc_scsi.c ****   {
 644              		.loc 1 304 35 is_stmt 0 view .LVU199
 645 001e D5F8BC32 		ldr	r3, [r5, #700]
 646              	.LVL63:
 304:Middlewares/ST/STM32_USB_Device_Library/Class/MSC/Src/usbd_msc_scsi.c ****   {
 647              		.loc 1 304 47 view .LVU200
 648 0022 5B68     		ldr	r3, [r3, #4]
 304:Middlewares/ST/STM32_USB_Device_Library/Class/MSC/Src/usbd_msc_scsi.c ****   {
 649              		.loc 1 304 8 view .LVU201
 650 0024 0DF10602 		add	r2, sp, #6
 651 0028 6946     		mov	r1, sp
 652 002a 3046     		mov	r0, r6
 653              	.LVL64:
 304:Middlewares/ST/STM32_USB_Device_Library/Class/MSC/Src/usbd_msc_scsi.c ****   {
 654              		.loc 1 304 8 view .LVU202
 655 002c 9847     		blx	r3
 656              	.LVL65:
 304:Middlewares/ST/STM32_USB_Device_Library/Class/MSC/Src/usbd_msc_scsi.c ****   {
 657              		.loc 1 304 6 view .LVU203
 658 002e 0146     		mov	r1, r0
 659 0030 D8B9     		cbnz	r0, .L48
 311:Middlewares/ST/STM32_USB_Device_Library/Class/MSC/Src/usbd_msc_scsi.c ****     hmsc->bot_data[4] = (uint8_t)((blk_nbr - 1U) >> 24);
 660              		.loc 1 311 5 is_stmt 1 view .LVU204
 311:Middlewares/ST/STM32_USB_Device_Library/Class/MSC/Src/usbd_msc_scsi.c ****     hmsc->bot_data[4] = (uint8_t)((blk_nbr - 1U) >> 24);
 661              		.loc 1 311 23 is_stmt 0 view .LVU205
 662 0032 0823     		movs	r3, #8
 663 0034 E373     		strb	r3, [r4, #15]
 312:Middlewares/ST/STM32_USB_Device_Library/Class/MSC/Src/usbd_msc_scsi.c ****     hmsc->bot_data[5] = (uint8_t)((blk_nbr - 1U) >> 16);
 664              		.loc 1 312 5 is_stmt 1 view .LVU206
 312:Middlewares/ST/STM32_USB_Device_Library/Class/MSC/Src/usbd_msc_scsi.c ****     hmsc->bot_data[5] = (uint8_t)((blk_nbr - 1U) >> 16);
 665              		.loc 1 312 44 is_stmt 0 view .LVU207
ARM GAS  C:\Users\Kaa\AppData\Local\Temp\cc61P2Ds.s 			page 22


 666 0036 009A     		ldr	r2, [sp]
 667 0038 531E     		subs	r3, r2, #1
 312:Middlewares/ST/STM32_USB_Device_Library/Class/MSC/Src/usbd_msc_scsi.c ****     hmsc->bot_data[5] = (uint8_t)((blk_nbr - 1U) >> 16);
 668              		.loc 1 312 25 view .LVU208
 669 003a 180E     		lsrs	r0, r3, #24
 312:Middlewares/ST/STM32_USB_Device_Library/Class/MSC/Src/usbd_msc_scsi.c ****     hmsc->bot_data[5] = (uint8_t)((blk_nbr - 1U) >> 16);
 670              		.loc 1 312 23 view .LVU209
 671 003c 2074     		strb	r0, [r4, #16]
 313:Middlewares/ST/STM32_USB_Device_Library/Class/MSC/Src/usbd_msc_scsi.c ****     hmsc->bot_data[6] = (uint8_t)((blk_nbr - 1U) >>  8);
 672              		.loc 1 313 5 is_stmt 1 view .LVU210
 313:Middlewares/ST/STM32_USB_Device_Library/Class/MSC/Src/usbd_msc_scsi.c ****     hmsc->bot_data[6] = (uint8_t)((blk_nbr - 1U) >>  8);
 673              		.loc 1 313 25 is_stmt 0 view .LVU211
 674 003e C3F30740 		ubfx	r0, r3, #16, #8
 313:Middlewares/ST/STM32_USB_Device_Library/Class/MSC/Src/usbd_msc_scsi.c ****     hmsc->bot_data[6] = (uint8_t)((blk_nbr - 1U) >>  8);
 675              		.loc 1 313 23 view .LVU212
 676 0042 6074     		strb	r0, [r4, #17]
 314:Middlewares/ST/STM32_USB_Device_Library/Class/MSC/Src/usbd_msc_scsi.c ****     hmsc->bot_data[7] = (uint8_t)(blk_nbr - 1U);
 677              		.loc 1 314 5 is_stmt 1 view .LVU213
 314:Middlewares/ST/STM32_USB_Device_Library/Class/MSC/Src/usbd_msc_scsi.c ****     hmsc->bot_data[7] = (uint8_t)(blk_nbr - 1U);
 678              		.loc 1 314 25 is_stmt 0 view .LVU214
 679 0044 C3F30723 		ubfx	r3, r3, #8, #8
 314:Middlewares/ST/STM32_USB_Device_Library/Class/MSC/Src/usbd_msc_scsi.c ****     hmsc->bot_data[7] = (uint8_t)(blk_nbr - 1U);
 680              		.loc 1 314 23 view .LVU215
 681 0048 A374     		strb	r3, [r4, #18]
 315:Middlewares/ST/STM32_USB_Device_Library/Class/MSC/Src/usbd_msc_scsi.c **** 
 682              		.loc 1 315 5 is_stmt 1 view .LVU216
 315:Middlewares/ST/STM32_USB_Device_Library/Class/MSC/Src/usbd_msc_scsi.c **** 
 683              		.loc 1 315 25 is_stmt 0 view .LVU217
 684 004a 013A     		subs	r2, r2, #1
 315:Middlewares/ST/STM32_USB_Device_Library/Class/MSC/Src/usbd_msc_scsi.c **** 
 685              		.loc 1 315 23 view .LVU218
 686 004c E274     		strb	r2, [r4, #19]
 317:Middlewares/ST/STM32_USB_Device_Library/Class/MSC/Src/usbd_msc_scsi.c ****     hmsc->bot_data[9] = (uint8_t)(blk_size >>  16);
 687              		.loc 1 317 5 is_stmt 1 view .LVU219
 317:Middlewares/ST/STM32_USB_Device_Library/Class/MSC/Src/usbd_msc_scsi.c ****     hmsc->bot_data[9] = (uint8_t)(blk_size >>  16);
 688              		.loc 1 317 23 is_stmt 0 view .LVU220
 689 004e 0223     		movs	r3, #2
 690 0050 2375     		strb	r3, [r4, #20]
 318:Middlewares/ST/STM32_USB_Device_Library/Class/MSC/Src/usbd_msc_scsi.c ****     hmsc->bot_data[10] = (uint8_t)(blk_size >>  8);
 691              		.loc 1 318 5 is_stmt 1 view .LVU221
 318:Middlewares/ST/STM32_USB_Device_Library/Class/MSC/Src/usbd_msc_scsi.c ****     hmsc->bot_data[10] = (uint8_t)(blk_size >>  8);
 692              		.loc 1 318 44 is_stmt 0 view .LVU222
 693 0052 BDF80630 		ldrh	r3, [sp, #6]
 318:Middlewares/ST/STM32_USB_Device_Library/Class/MSC/Src/usbd_msc_scsi.c ****     hmsc->bot_data[10] = (uint8_t)(blk_size >>  8);
 694              		.loc 1 318 25 view .LVU223
 695 0056 0022     		movs	r2, #0
 318:Middlewares/ST/STM32_USB_Device_Library/Class/MSC/Src/usbd_msc_scsi.c ****     hmsc->bot_data[10] = (uint8_t)(blk_size >>  8);
 696              		.loc 1 318 23 view .LVU224
 697 0058 6275     		strb	r2, [r4, #21]
 319:Middlewares/ST/STM32_USB_Device_Library/Class/MSC/Src/usbd_msc_scsi.c ****     hmsc->bot_data[11] = (uint8_t)(blk_size);
 698              		.loc 1 319 5 is_stmt 1 view .LVU225
 319:Middlewares/ST/STM32_USB_Device_Library/Class/MSC/Src/usbd_msc_scsi.c ****     hmsc->bot_data[11] = (uint8_t)(blk_size);
 699              		.loc 1 319 26 is_stmt 0 view .LVU226
 700 005a 1A0A     		lsrs	r2, r3, #8
 319:Middlewares/ST/STM32_USB_Device_Library/Class/MSC/Src/usbd_msc_scsi.c ****     hmsc->bot_data[11] = (uint8_t)(blk_size);
 701              		.loc 1 319 24 view .LVU227
 702 005c A275     		strb	r2, [r4, #22]
ARM GAS  C:\Users\Kaa\AppData\Local\Temp\cc61P2Ds.s 			page 23


 320:Middlewares/ST/STM32_USB_Device_Library/Class/MSC/Src/usbd_msc_scsi.c **** 
 703              		.loc 1 320 5 is_stmt 1 view .LVU228
 320:Middlewares/ST/STM32_USB_Device_Library/Class/MSC/Src/usbd_msc_scsi.c **** 
 704              		.loc 1 320 24 is_stmt 0 view .LVU229
 705 005e E375     		strb	r3, [r4, #23]
 322:Middlewares/ST/STM32_USB_Device_Library/Class/MSC/Src/usbd_msc_scsi.c ****     return 0;
 706              		.loc 1 322 5 is_stmt 1 view .LVU230
 322:Middlewares/ST/STM32_USB_Device_Library/Class/MSC/Src/usbd_msc_scsi.c ****     return 0;
 707              		.loc 1 322 27 is_stmt 0 view .LVU231
 708 0060 0C23     		movs	r3, #12
 709 0062 6381     		strh	r3, [r4, #10]	@ movhi
 323:Middlewares/ST/STM32_USB_Device_Library/Class/MSC/Src/usbd_msc_scsi.c ****   }
 710              		.loc 1 323 5 is_stmt 1 view .LVU232
 711              	.L45:
 325:Middlewares/ST/STM32_USB_Device_Library/Class/MSC/Src/usbd_msc_scsi.c **** /**
 712              		.loc 1 325 1 is_stmt 0 view .LVU233
 713 0064 0846     		mov	r0, r1
 714 0066 02B0     		add	sp, sp, #8
 715              	.LCFI9:
 716              		.cfi_remember_state
 717              		.cfi_def_cfa_offset 16
 718              		@ sp needed
 719 0068 70BD     		pop	{r4, r5, r6, pc}
 720              	.LVL66:
 721              	.L48:
 722              	.LCFI10:
 723              		.cfi_restore_state
 306:Middlewares/ST/STM32_USB_Device_Library/Class/MSC/Src/usbd_msc_scsi.c ****     return -1;
 724              		.loc 1 306 5 is_stmt 1 view .LVU234
 725 006a 3A23     		movs	r3, #58
 726 006c 0222     		movs	r2, #2
 727 006e 3146     		mov	r1, r6
 728 0070 2846     		mov	r0, r5
 729 0072 FFF7FEFF 		bl	SCSI_SenseCode
 730              	.LVL67:
 307:Middlewares/ST/STM32_USB_Device_Library/Class/MSC/Src/usbd_msc_scsi.c ****   }
 731              		.loc 1 307 5 view .LVU235
 307:Middlewares/ST/STM32_USB_Device_Library/Class/MSC/Src/usbd_msc_scsi.c ****   }
 732              		.loc 1 307 12 is_stmt 0 view .LVU236
 733 0076 4FF0FF31 		mov	r1, #-1
 734 007a F3E7     		b	.L45
 735              		.cfi_endproc
 736              	.LFE405:
 738              		.section	.text.SCSI_ReadCapacity10,"ax",%progbits
 739              		.align	1
 740              		.syntax unified
 741              		.thumb
 742              		.thumb_func
 743              		.fpu softvfp
 745              	SCSI_ReadCapacity10:
 746              	.LVL68:
 747              	.LFB404:
 259:Middlewares/ST/STM32_USB_Device_Library/Class/MSC/Src/usbd_msc_scsi.c ****   USBD_MSC_BOT_HandleTypeDef  *hmsc = (USBD_MSC_BOT_HandleTypeDef *)pdev->pClassData;
 748              		.loc 1 259 1 is_stmt 1 view -0
 749              		.cfi_startproc
 750              		@ args = 0, pretend = 0, frame = 0
 751              		@ frame_needed = 0, uses_anonymous_args = 0
ARM GAS  C:\Users\Kaa\AppData\Local\Temp\cc61P2Ds.s 			page 24


 259:Middlewares/ST/STM32_USB_Device_Library/Class/MSC/Src/usbd_msc_scsi.c ****   USBD_MSC_BOT_HandleTypeDef  *hmsc = (USBD_MSC_BOT_HandleTypeDef *)pdev->pClassData;
 752              		.loc 1 259 1 is_stmt 0 view .LVU238
 753 0000 70B5     		push	{r4, r5, r6, lr}
 754              	.LCFI11:
 755              		.cfi_def_cfa_offset 16
 756              		.cfi_offset 4, -16
 757              		.cfi_offset 5, -12
 758              		.cfi_offset 6, -8
 759              		.cfi_offset 14, -4
 760 0002 0546     		mov	r5, r0
 761 0004 0E46     		mov	r6, r1
 260:Middlewares/ST/STM32_USB_Device_Library/Class/MSC/Src/usbd_msc_scsi.c **** 
 762              		.loc 1 260 3 is_stmt 1 view .LVU239
 260:Middlewares/ST/STM32_USB_Device_Library/Class/MSC/Src/usbd_msc_scsi.c **** 
 763              		.loc 1 260 32 is_stmt 0 view .LVU240
 764 0006 D0F8B842 		ldr	r4, [r0, #696]
 765              	.LVL69:
 262:Middlewares/ST/STM32_USB_Device_Library/Class/MSC/Src/usbd_msc_scsi.c ****   {
 766              		.loc 1 262 3 is_stmt 1 view .LVU241
 262:Middlewares/ST/STM32_USB_Device_Library/Class/MSC/Src/usbd_msc_scsi.c ****   {
 767              		.loc 1 262 35 is_stmt 0 view .LVU242
 768 000a D0F8BC32 		ldr	r3, [r0, #700]
 262:Middlewares/ST/STM32_USB_Device_Library/Class/MSC/Src/usbd_msc_scsi.c ****   {
 769              		.loc 1 262 47 view .LVU243
 770 000e 5B68     		ldr	r3, [r3, #4]
 262:Middlewares/ST/STM32_USB_Device_Library/Class/MSC/Src/usbd_msc_scsi.c ****   {
 771              		.loc 1 262 8 view .LVU244
 772 0010 04F25E22 		addw	r2, r4, #606
 773              	.LVL70:
 262:Middlewares/ST/STM32_USB_Device_Library/Class/MSC/Src/usbd_msc_scsi.c ****   {
 774              		.loc 1 262 8 view .LVU245
 775 0014 04F51871 		add	r1, r4, #608
 776              	.LVL71:
 262:Middlewares/ST/STM32_USB_Device_Library/Class/MSC/Src/usbd_msc_scsi.c ****   {
 777              		.loc 1 262 8 view .LVU246
 778 0018 3046     		mov	r0, r6
 779              	.LVL72:
 262:Middlewares/ST/STM32_USB_Device_Library/Class/MSC/Src/usbd_msc_scsi.c ****   {
 780              		.loc 1 262 8 view .LVU247
 781 001a 9847     		blx	r3
 782              	.LVL73:
 262:Middlewares/ST/STM32_USB_Device_Library/Class/MSC/Src/usbd_msc_scsi.c ****   {
 783              		.loc 1 262 6 view .LVU248
 784 001c C8B9     		cbnz	r0, .L53
 785 001e 0146     		mov	r1, r0
 270:Middlewares/ST/STM32_USB_Device_Library/Class/MSC/Src/usbd_msc_scsi.c ****     hmsc->bot_data[1] = (uint8_t)((hmsc->scsi_blk_nbr - 1U) >> 16);
 786              		.loc 1 270 5 is_stmt 1 view .LVU249
 270:Middlewares/ST/STM32_USB_Device_Library/Class/MSC/Src/usbd_msc_scsi.c ****     hmsc->bot_data[1] = (uint8_t)((hmsc->scsi_blk_nbr - 1U) >> 16);
 787              		.loc 1 270 40 is_stmt 0 view .LVU250
 788 0020 D4F86022 		ldr	r2, [r4, #608]
 270:Middlewares/ST/STM32_USB_Device_Library/Class/MSC/Src/usbd_msc_scsi.c ****     hmsc->bot_data[1] = (uint8_t)((hmsc->scsi_blk_nbr - 1U) >> 16);
 789              		.loc 1 270 55 view .LVU251
 790 0024 531E     		subs	r3, r2, #1
 270:Middlewares/ST/STM32_USB_Device_Library/Class/MSC/Src/usbd_msc_scsi.c ****     hmsc->bot_data[1] = (uint8_t)((hmsc->scsi_blk_nbr - 1U) >> 16);
 791              		.loc 1 270 25 view .LVU252
 792 0026 180E     		lsrs	r0, r3, #24
 270:Middlewares/ST/STM32_USB_Device_Library/Class/MSC/Src/usbd_msc_scsi.c ****     hmsc->bot_data[1] = (uint8_t)((hmsc->scsi_blk_nbr - 1U) >> 16);
ARM GAS  C:\Users\Kaa\AppData\Local\Temp\cc61P2Ds.s 			page 25


 793              		.loc 1 270 23 view .LVU253
 794 0028 2073     		strb	r0, [r4, #12]
 271:Middlewares/ST/STM32_USB_Device_Library/Class/MSC/Src/usbd_msc_scsi.c ****     hmsc->bot_data[2] = (uint8_t)((hmsc->scsi_blk_nbr - 1U) >>  8);
 795              		.loc 1 271 5 is_stmt 1 view .LVU254
 271:Middlewares/ST/STM32_USB_Device_Library/Class/MSC/Src/usbd_msc_scsi.c ****     hmsc->bot_data[2] = (uint8_t)((hmsc->scsi_blk_nbr - 1U) >>  8);
 796              		.loc 1 271 25 is_stmt 0 view .LVU255
 797 002a C3F30740 		ubfx	r0, r3, #16, #8
 271:Middlewares/ST/STM32_USB_Device_Library/Class/MSC/Src/usbd_msc_scsi.c ****     hmsc->bot_data[2] = (uint8_t)((hmsc->scsi_blk_nbr - 1U) >>  8);
 798              		.loc 1 271 23 view .LVU256
 799 002e 6073     		strb	r0, [r4, #13]
 272:Middlewares/ST/STM32_USB_Device_Library/Class/MSC/Src/usbd_msc_scsi.c ****     hmsc->bot_data[3] = (uint8_t)(hmsc->scsi_blk_nbr - 1U);
 800              		.loc 1 272 5 is_stmt 1 view .LVU257
 272:Middlewares/ST/STM32_USB_Device_Library/Class/MSC/Src/usbd_msc_scsi.c ****     hmsc->bot_data[3] = (uint8_t)(hmsc->scsi_blk_nbr - 1U);
 801              		.loc 1 272 25 is_stmt 0 view .LVU258
 802 0030 C3F30723 		ubfx	r3, r3, #8, #8
 272:Middlewares/ST/STM32_USB_Device_Library/Class/MSC/Src/usbd_msc_scsi.c ****     hmsc->bot_data[3] = (uint8_t)(hmsc->scsi_blk_nbr - 1U);
 803              		.loc 1 272 23 view .LVU259
 804 0034 A373     		strb	r3, [r4, #14]
 273:Middlewares/ST/STM32_USB_Device_Library/Class/MSC/Src/usbd_msc_scsi.c **** 
 805              		.loc 1 273 5 is_stmt 1 view .LVU260
 273:Middlewares/ST/STM32_USB_Device_Library/Class/MSC/Src/usbd_msc_scsi.c **** 
 806              		.loc 1 273 25 is_stmt 0 view .LVU261
 807 0036 013A     		subs	r2, r2, #1
 273:Middlewares/ST/STM32_USB_Device_Library/Class/MSC/Src/usbd_msc_scsi.c **** 
 808              		.loc 1 273 23 view .LVU262
 809 0038 E273     		strb	r2, [r4, #15]
 275:Middlewares/ST/STM32_USB_Device_Library/Class/MSC/Src/usbd_msc_scsi.c ****     hmsc->bot_data[5] = (uint8_t)(hmsc->scsi_blk_size >>  16);
 810              		.loc 1 275 5 is_stmt 1 view .LVU263
 275:Middlewares/ST/STM32_USB_Device_Library/Class/MSC/Src/usbd_msc_scsi.c ****     hmsc->bot_data[5] = (uint8_t)(hmsc->scsi_blk_size >>  16);
 811              		.loc 1 275 39 is_stmt 0 view .LVU264
 812 003a B4F85E32 		ldrh	r3, [r4, #606]
 275:Middlewares/ST/STM32_USB_Device_Library/Class/MSC/Src/usbd_msc_scsi.c ****     hmsc->bot_data[5] = (uint8_t)(hmsc->scsi_blk_size >>  16);
 813              		.loc 1 275 25 view .LVU265
 814 003e 0022     		movs	r2, #0
 275:Middlewares/ST/STM32_USB_Device_Library/Class/MSC/Src/usbd_msc_scsi.c ****     hmsc->bot_data[5] = (uint8_t)(hmsc->scsi_blk_size >>  16);
 815              		.loc 1 275 23 view .LVU266
 816 0040 2274     		strb	r2, [r4, #16]
 276:Middlewares/ST/STM32_USB_Device_Library/Class/MSC/Src/usbd_msc_scsi.c ****     hmsc->bot_data[6] = (uint8_t)(hmsc->scsi_blk_size >>  8);
 817              		.loc 1 276 5 is_stmt 1 view .LVU267
 276:Middlewares/ST/STM32_USB_Device_Library/Class/MSC/Src/usbd_msc_scsi.c ****     hmsc->bot_data[6] = (uint8_t)(hmsc->scsi_blk_size >>  8);
 818              		.loc 1 276 23 is_stmt 0 view .LVU268
 819 0042 6274     		strb	r2, [r4, #17]
 277:Middlewares/ST/STM32_USB_Device_Library/Class/MSC/Src/usbd_msc_scsi.c ****     hmsc->bot_data[7] = (uint8_t)(hmsc->scsi_blk_size);
 820              		.loc 1 277 5 is_stmt 1 view .LVU269
 277:Middlewares/ST/STM32_USB_Device_Library/Class/MSC/Src/usbd_msc_scsi.c ****     hmsc->bot_data[7] = (uint8_t)(hmsc->scsi_blk_size);
 821              		.loc 1 277 25 is_stmt 0 view .LVU270
 822 0044 1A0A     		lsrs	r2, r3, #8
 277:Middlewares/ST/STM32_USB_Device_Library/Class/MSC/Src/usbd_msc_scsi.c ****     hmsc->bot_data[7] = (uint8_t)(hmsc->scsi_blk_size);
 823              		.loc 1 277 23 view .LVU271
 824 0046 A274     		strb	r2, [r4, #18]
 278:Middlewares/ST/STM32_USB_Device_Library/Class/MSC/Src/usbd_msc_scsi.c **** 
 825              		.loc 1 278 5 is_stmt 1 view .LVU272
 278:Middlewares/ST/STM32_USB_Device_Library/Class/MSC/Src/usbd_msc_scsi.c **** 
 826              		.loc 1 278 23 is_stmt 0 view .LVU273
 827 0048 E374     		strb	r3, [r4, #19]
 280:Middlewares/ST/STM32_USB_Device_Library/Class/MSC/Src/usbd_msc_scsi.c ****     return 0;
 828              		.loc 1 280 5 is_stmt 1 view .LVU274
ARM GAS  C:\Users\Kaa\AppData\Local\Temp\cc61P2Ds.s 			page 26


 280:Middlewares/ST/STM32_USB_Device_Library/Class/MSC/Src/usbd_msc_scsi.c ****     return 0;
 829              		.loc 1 280 27 is_stmt 0 view .LVU275
 830 004a 0823     		movs	r3, #8
 831 004c 6381     		strh	r3, [r4, #10]	@ movhi
 281:Middlewares/ST/STM32_USB_Device_Library/Class/MSC/Src/usbd_msc_scsi.c ****   }
 832              		.loc 1 281 5 is_stmt 1 view .LVU276
 833              	.L51:
 283:Middlewares/ST/STM32_USB_Device_Library/Class/MSC/Src/usbd_msc_scsi.c **** /**
 834              		.loc 1 283 1 is_stmt 0 view .LVU277
 835 004e 0846     		mov	r0, r1
 836 0050 70BD     		pop	{r4, r5, r6, pc}
 837              	.LVL74:
 838              	.L53:
 264:Middlewares/ST/STM32_USB_Device_Library/Class/MSC/Src/usbd_msc_scsi.c ****     return -1;
 839              		.loc 1 264 5 is_stmt 1 view .LVU278
 840 0052 3A23     		movs	r3, #58
 841 0054 0222     		movs	r2, #2
 842 0056 3146     		mov	r1, r6
 843 0058 2846     		mov	r0, r5
 844 005a FFF7FEFF 		bl	SCSI_SenseCode
 845              	.LVL75:
 265:Middlewares/ST/STM32_USB_Device_Library/Class/MSC/Src/usbd_msc_scsi.c ****   }
 846              		.loc 1 265 5 view .LVU279
 265:Middlewares/ST/STM32_USB_Device_Library/Class/MSC/Src/usbd_msc_scsi.c ****   }
 847              		.loc 1 265 12 is_stmt 0 view .LVU280
 848 005e 4FF0FF31 		mov	r1, #-1
 849 0062 F4E7     		b	.L51
 850              		.cfi_endproc
 851              	.LFE404:
 853              		.section	.text.SCSI_CheckAddressRange,"ax",%progbits
 854              		.align	1
 855              		.syntax unified
 856              		.thumb
 857              		.thumb_func
 858              		.fpu softvfp
 860              	SCSI_CheckAddressRange:
 861              	.LVL76:
 862              	.LFB414:
 447:Middlewares/ST/STM32_USB_Device_Library/Class/MSC/Src/usbd_msc_scsi.c **** 
 448:Middlewares/ST/STM32_USB_Device_Library/Class/MSC/Src/usbd_msc_scsi.c **** /**
 449:Middlewares/ST/STM32_USB_Device_Library/Class/MSC/Src/usbd_msc_scsi.c **** * @brief  SCSI_Read10
 450:Middlewares/ST/STM32_USB_Device_Library/Class/MSC/Src/usbd_msc_scsi.c **** *         Process Read10 command
 451:Middlewares/ST/STM32_USB_Device_Library/Class/MSC/Src/usbd_msc_scsi.c **** * @param  lun: Logical unit number
 452:Middlewares/ST/STM32_USB_Device_Library/Class/MSC/Src/usbd_msc_scsi.c **** * @param  params: Command parameters
 453:Middlewares/ST/STM32_USB_Device_Library/Class/MSC/Src/usbd_msc_scsi.c **** * @retval status
 454:Middlewares/ST/STM32_USB_Device_Library/Class/MSC/Src/usbd_msc_scsi.c **** */
 455:Middlewares/ST/STM32_USB_Device_Library/Class/MSC/Src/usbd_msc_scsi.c **** static int8_t SCSI_Read10(USBD_HandleTypeDef *pdev, uint8_t lun, uint8_t *params)
 456:Middlewares/ST/STM32_USB_Device_Library/Class/MSC/Src/usbd_msc_scsi.c **** {
 457:Middlewares/ST/STM32_USB_Device_Library/Class/MSC/Src/usbd_msc_scsi.c ****   USBD_MSC_BOT_HandleTypeDef  *hmsc = (USBD_MSC_BOT_HandleTypeDef *) pdev->pClassData;
 458:Middlewares/ST/STM32_USB_Device_Library/Class/MSC/Src/usbd_msc_scsi.c **** 
 459:Middlewares/ST/STM32_USB_Device_Library/Class/MSC/Src/usbd_msc_scsi.c ****   if (hmsc->bot_state == USBD_BOT_IDLE) /* Idle */
 460:Middlewares/ST/STM32_USB_Device_Library/Class/MSC/Src/usbd_msc_scsi.c ****   {
 461:Middlewares/ST/STM32_USB_Device_Library/Class/MSC/Src/usbd_msc_scsi.c ****     /* case 10 : Ho <> Di */
 462:Middlewares/ST/STM32_USB_Device_Library/Class/MSC/Src/usbd_msc_scsi.c ****     if ((hmsc->cbw.bmFlags & 0x80U) != 0x80U)
 463:Middlewares/ST/STM32_USB_Device_Library/Class/MSC/Src/usbd_msc_scsi.c ****     {
 464:Middlewares/ST/STM32_USB_Device_Library/Class/MSC/Src/usbd_msc_scsi.c ****       SCSI_SenseCode(pdev, hmsc->cbw.bLUN, ILLEGAL_REQUEST, INVALID_CDB);
 465:Middlewares/ST/STM32_USB_Device_Library/Class/MSC/Src/usbd_msc_scsi.c ****       return -1;
ARM GAS  C:\Users\Kaa\AppData\Local\Temp\cc61P2Ds.s 			page 27


 466:Middlewares/ST/STM32_USB_Device_Library/Class/MSC/Src/usbd_msc_scsi.c ****     }
 467:Middlewares/ST/STM32_USB_Device_Library/Class/MSC/Src/usbd_msc_scsi.c **** 
 468:Middlewares/ST/STM32_USB_Device_Library/Class/MSC/Src/usbd_msc_scsi.c ****     if (((USBD_StorageTypeDef *)pdev->pUserData)->IsReady(lun) != 0)
 469:Middlewares/ST/STM32_USB_Device_Library/Class/MSC/Src/usbd_msc_scsi.c ****     {
 470:Middlewares/ST/STM32_USB_Device_Library/Class/MSC/Src/usbd_msc_scsi.c ****       SCSI_SenseCode(pdev, lun, NOT_READY, MEDIUM_NOT_PRESENT);
 471:Middlewares/ST/STM32_USB_Device_Library/Class/MSC/Src/usbd_msc_scsi.c ****       return -1;
 472:Middlewares/ST/STM32_USB_Device_Library/Class/MSC/Src/usbd_msc_scsi.c ****     }
 473:Middlewares/ST/STM32_USB_Device_Library/Class/MSC/Src/usbd_msc_scsi.c **** 
 474:Middlewares/ST/STM32_USB_Device_Library/Class/MSC/Src/usbd_msc_scsi.c ****     hmsc->scsi_blk_addr = ((uint32_t)params[2] << 24) |
 475:Middlewares/ST/STM32_USB_Device_Library/Class/MSC/Src/usbd_msc_scsi.c ****                           ((uint32_t)params[3] << 16) |
 476:Middlewares/ST/STM32_USB_Device_Library/Class/MSC/Src/usbd_msc_scsi.c ****                           ((uint32_t)params[4] <<  8) |
 477:Middlewares/ST/STM32_USB_Device_Library/Class/MSC/Src/usbd_msc_scsi.c ****                           (uint32_t)params[5];
 478:Middlewares/ST/STM32_USB_Device_Library/Class/MSC/Src/usbd_msc_scsi.c **** 
 479:Middlewares/ST/STM32_USB_Device_Library/Class/MSC/Src/usbd_msc_scsi.c ****     hmsc->scsi_blk_len = ((uint32_t)params[7] <<  8) | (uint32_t)params[8];
 480:Middlewares/ST/STM32_USB_Device_Library/Class/MSC/Src/usbd_msc_scsi.c **** 
 481:Middlewares/ST/STM32_USB_Device_Library/Class/MSC/Src/usbd_msc_scsi.c ****     if (SCSI_CheckAddressRange(pdev, lun, hmsc->scsi_blk_addr,
 482:Middlewares/ST/STM32_USB_Device_Library/Class/MSC/Src/usbd_msc_scsi.c ****                                hmsc->scsi_blk_len) < 0)
 483:Middlewares/ST/STM32_USB_Device_Library/Class/MSC/Src/usbd_msc_scsi.c ****     {
 484:Middlewares/ST/STM32_USB_Device_Library/Class/MSC/Src/usbd_msc_scsi.c ****       return -1; /* error */
 485:Middlewares/ST/STM32_USB_Device_Library/Class/MSC/Src/usbd_msc_scsi.c ****     }
 486:Middlewares/ST/STM32_USB_Device_Library/Class/MSC/Src/usbd_msc_scsi.c **** 
 487:Middlewares/ST/STM32_USB_Device_Library/Class/MSC/Src/usbd_msc_scsi.c ****     hmsc->bot_state = USBD_BOT_DATA_IN;
 488:Middlewares/ST/STM32_USB_Device_Library/Class/MSC/Src/usbd_msc_scsi.c **** 
 489:Middlewares/ST/STM32_USB_Device_Library/Class/MSC/Src/usbd_msc_scsi.c ****     /* cases 4,5 : Hi <> Dn */
 490:Middlewares/ST/STM32_USB_Device_Library/Class/MSC/Src/usbd_msc_scsi.c ****     if (hmsc->cbw.dDataLength != (hmsc->scsi_blk_len * hmsc->scsi_blk_size))
 491:Middlewares/ST/STM32_USB_Device_Library/Class/MSC/Src/usbd_msc_scsi.c ****     {
 492:Middlewares/ST/STM32_USB_Device_Library/Class/MSC/Src/usbd_msc_scsi.c ****       SCSI_SenseCode(pdev, hmsc->cbw.bLUN, ILLEGAL_REQUEST, INVALID_CDB);
 493:Middlewares/ST/STM32_USB_Device_Library/Class/MSC/Src/usbd_msc_scsi.c ****       return -1;
 494:Middlewares/ST/STM32_USB_Device_Library/Class/MSC/Src/usbd_msc_scsi.c ****     }
 495:Middlewares/ST/STM32_USB_Device_Library/Class/MSC/Src/usbd_msc_scsi.c ****   }
 496:Middlewares/ST/STM32_USB_Device_Library/Class/MSC/Src/usbd_msc_scsi.c ****   hmsc->bot_data_length = MSC_MEDIA_PACKET;
 497:Middlewares/ST/STM32_USB_Device_Library/Class/MSC/Src/usbd_msc_scsi.c **** 
 498:Middlewares/ST/STM32_USB_Device_Library/Class/MSC/Src/usbd_msc_scsi.c ****   return SCSI_ProcessRead(pdev, lun);
 499:Middlewares/ST/STM32_USB_Device_Library/Class/MSC/Src/usbd_msc_scsi.c **** }
 500:Middlewares/ST/STM32_USB_Device_Library/Class/MSC/Src/usbd_msc_scsi.c **** 
 501:Middlewares/ST/STM32_USB_Device_Library/Class/MSC/Src/usbd_msc_scsi.c **** /**
 502:Middlewares/ST/STM32_USB_Device_Library/Class/MSC/Src/usbd_msc_scsi.c **** * @brief  SCSI_Write10
 503:Middlewares/ST/STM32_USB_Device_Library/Class/MSC/Src/usbd_msc_scsi.c **** *         Process Write10 command
 504:Middlewares/ST/STM32_USB_Device_Library/Class/MSC/Src/usbd_msc_scsi.c **** * @param  lun: Logical unit number
 505:Middlewares/ST/STM32_USB_Device_Library/Class/MSC/Src/usbd_msc_scsi.c **** * @param  params: Command parameters
 506:Middlewares/ST/STM32_USB_Device_Library/Class/MSC/Src/usbd_msc_scsi.c **** * @retval status
 507:Middlewares/ST/STM32_USB_Device_Library/Class/MSC/Src/usbd_msc_scsi.c **** */
 508:Middlewares/ST/STM32_USB_Device_Library/Class/MSC/Src/usbd_msc_scsi.c **** 
 509:Middlewares/ST/STM32_USB_Device_Library/Class/MSC/Src/usbd_msc_scsi.c **** static int8_t SCSI_Write10(USBD_HandleTypeDef  *pdev, uint8_t lun, uint8_t *params)
 510:Middlewares/ST/STM32_USB_Device_Library/Class/MSC/Src/usbd_msc_scsi.c **** {
 511:Middlewares/ST/STM32_USB_Device_Library/Class/MSC/Src/usbd_msc_scsi.c ****   USBD_MSC_BOT_HandleTypeDef  *hmsc = (USBD_MSC_BOT_HandleTypeDef *) pdev->pClassData;
 512:Middlewares/ST/STM32_USB_Device_Library/Class/MSC/Src/usbd_msc_scsi.c ****   uint32_t len;
 513:Middlewares/ST/STM32_USB_Device_Library/Class/MSC/Src/usbd_msc_scsi.c **** 
 514:Middlewares/ST/STM32_USB_Device_Library/Class/MSC/Src/usbd_msc_scsi.c ****   if (hmsc->bot_state == USBD_BOT_IDLE) /* Idle */
 515:Middlewares/ST/STM32_USB_Device_Library/Class/MSC/Src/usbd_msc_scsi.c ****   {
 516:Middlewares/ST/STM32_USB_Device_Library/Class/MSC/Src/usbd_msc_scsi.c ****     /* case 8 : Hi <> Do */
 517:Middlewares/ST/STM32_USB_Device_Library/Class/MSC/Src/usbd_msc_scsi.c ****     if ((hmsc->cbw.bmFlags & 0x80U) == 0x80U)
 518:Middlewares/ST/STM32_USB_Device_Library/Class/MSC/Src/usbd_msc_scsi.c ****     {
 519:Middlewares/ST/STM32_USB_Device_Library/Class/MSC/Src/usbd_msc_scsi.c ****       SCSI_SenseCode(pdev, hmsc->cbw.bLUN, ILLEGAL_REQUEST, INVALID_CDB);
 520:Middlewares/ST/STM32_USB_Device_Library/Class/MSC/Src/usbd_msc_scsi.c ****       return -1;
 521:Middlewares/ST/STM32_USB_Device_Library/Class/MSC/Src/usbd_msc_scsi.c ****     }
 522:Middlewares/ST/STM32_USB_Device_Library/Class/MSC/Src/usbd_msc_scsi.c **** 
ARM GAS  C:\Users\Kaa\AppData\Local\Temp\cc61P2Ds.s 			page 28


 523:Middlewares/ST/STM32_USB_Device_Library/Class/MSC/Src/usbd_msc_scsi.c ****     /* Check whether Media is ready */
 524:Middlewares/ST/STM32_USB_Device_Library/Class/MSC/Src/usbd_msc_scsi.c ****     if (((USBD_StorageTypeDef *)pdev->pUserData)->IsReady(lun) != 0)
 525:Middlewares/ST/STM32_USB_Device_Library/Class/MSC/Src/usbd_msc_scsi.c ****     {
 526:Middlewares/ST/STM32_USB_Device_Library/Class/MSC/Src/usbd_msc_scsi.c ****       SCSI_SenseCode(pdev, lun, NOT_READY, MEDIUM_NOT_PRESENT);
 527:Middlewares/ST/STM32_USB_Device_Library/Class/MSC/Src/usbd_msc_scsi.c ****       return -1;
 528:Middlewares/ST/STM32_USB_Device_Library/Class/MSC/Src/usbd_msc_scsi.c ****     }
 529:Middlewares/ST/STM32_USB_Device_Library/Class/MSC/Src/usbd_msc_scsi.c **** 
 530:Middlewares/ST/STM32_USB_Device_Library/Class/MSC/Src/usbd_msc_scsi.c ****     /* Check If media is write-protected */
 531:Middlewares/ST/STM32_USB_Device_Library/Class/MSC/Src/usbd_msc_scsi.c ****     if (((USBD_StorageTypeDef *)pdev->pUserData)->IsWriteProtected(lun) != 0)
 532:Middlewares/ST/STM32_USB_Device_Library/Class/MSC/Src/usbd_msc_scsi.c ****     {
 533:Middlewares/ST/STM32_USB_Device_Library/Class/MSC/Src/usbd_msc_scsi.c ****       SCSI_SenseCode(pdev, lun, NOT_READY, WRITE_PROTECTED);
 534:Middlewares/ST/STM32_USB_Device_Library/Class/MSC/Src/usbd_msc_scsi.c ****       return -1;
 535:Middlewares/ST/STM32_USB_Device_Library/Class/MSC/Src/usbd_msc_scsi.c ****     }
 536:Middlewares/ST/STM32_USB_Device_Library/Class/MSC/Src/usbd_msc_scsi.c **** 
 537:Middlewares/ST/STM32_USB_Device_Library/Class/MSC/Src/usbd_msc_scsi.c ****     hmsc->scsi_blk_addr = ((uint32_t)params[2] << 24) |
 538:Middlewares/ST/STM32_USB_Device_Library/Class/MSC/Src/usbd_msc_scsi.c ****                           ((uint32_t)params[3] << 16) |
 539:Middlewares/ST/STM32_USB_Device_Library/Class/MSC/Src/usbd_msc_scsi.c ****                           ((uint32_t)params[4] << 8) |
 540:Middlewares/ST/STM32_USB_Device_Library/Class/MSC/Src/usbd_msc_scsi.c ****                           (uint32_t)params[5];
 541:Middlewares/ST/STM32_USB_Device_Library/Class/MSC/Src/usbd_msc_scsi.c **** 
 542:Middlewares/ST/STM32_USB_Device_Library/Class/MSC/Src/usbd_msc_scsi.c ****     hmsc->scsi_blk_len = ((uint32_t)params[7] << 8) |
 543:Middlewares/ST/STM32_USB_Device_Library/Class/MSC/Src/usbd_msc_scsi.c ****                          (uint32_t)params[8];
 544:Middlewares/ST/STM32_USB_Device_Library/Class/MSC/Src/usbd_msc_scsi.c **** 
 545:Middlewares/ST/STM32_USB_Device_Library/Class/MSC/Src/usbd_msc_scsi.c ****     /* check if LBA address is in the right range */
 546:Middlewares/ST/STM32_USB_Device_Library/Class/MSC/Src/usbd_msc_scsi.c ****     if (SCSI_CheckAddressRange(pdev, lun, hmsc->scsi_blk_addr,
 547:Middlewares/ST/STM32_USB_Device_Library/Class/MSC/Src/usbd_msc_scsi.c ****                                hmsc->scsi_blk_len) < 0)
 548:Middlewares/ST/STM32_USB_Device_Library/Class/MSC/Src/usbd_msc_scsi.c ****     {
 549:Middlewares/ST/STM32_USB_Device_Library/Class/MSC/Src/usbd_msc_scsi.c ****       return -1; /* error */
 550:Middlewares/ST/STM32_USB_Device_Library/Class/MSC/Src/usbd_msc_scsi.c ****     }
 551:Middlewares/ST/STM32_USB_Device_Library/Class/MSC/Src/usbd_msc_scsi.c **** 
 552:Middlewares/ST/STM32_USB_Device_Library/Class/MSC/Src/usbd_msc_scsi.c ****     len = hmsc->scsi_blk_len * hmsc->scsi_blk_size;
 553:Middlewares/ST/STM32_USB_Device_Library/Class/MSC/Src/usbd_msc_scsi.c **** 
 554:Middlewares/ST/STM32_USB_Device_Library/Class/MSC/Src/usbd_msc_scsi.c ****     /* cases 3,11,13 : Hn,Ho <> D0 */
 555:Middlewares/ST/STM32_USB_Device_Library/Class/MSC/Src/usbd_msc_scsi.c ****     if (hmsc->cbw.dDataLength != len)
 556:Middlewares/ST/STM32_USB_Device_Library/Class/MSC/Src/usbd_msc_scsi.c ****     {
 557:Middlewares/ST/STM32_USB_Device_Library/Class/MSC/Src/usbd_msc_scsi.c ****       SCSI_SenseCode(pdev, hmsc->cbw.bLUN, ILLEGAL_REQUEST, INVALID_CDB);
 558:Middlewares/ST/STM32_USB_Device_Library/Class/MSC/Src/usbd_msc_scsi.c ****       return -1;
 559:Middlewares/ST/STM32_USB_Device_Library/Class/MSC/Src/usbd_msc_scsi.c ****     }
 560:Middlewares/ST/STM32_USB_Device_Library/Class/MSC/Src/usbd_msc_scsi.c **** 
 561:Middlewares/ST/STM32_USB_Device_Library/Class/MSC/Src/usbd_msc_scsi.c ****     len = MIN(len, MSC_MEDIA_PACKET);
 562:Middlewares/ST/STM32_USB_Device_Library/Class/MSC/Src/usbd_msc_scsi.c **** 
 563:Middlewares/ST/STM32_USB_Device_Library/Class/MSC/Src/usbd_msc_scsi.c ****     /* Prepare EP to receive first data packet */
 564:Middlewares/ST/STM32_USB_Device_Library/Class/MSC/Src/usbd_msc_scsi.c ****     hmsc->bot_state = USBD_BOT_DATA_OUT;
 565:Middlewares/ST/STM32_USB_Device_Library/Class/MSC/Src/usbd_msc_scsi.c ****     USBD_LL_PrepareReceive(pdev, MSC_EPOUT_ADDR, hmsc->bot_data, len);
 566:Middlewares/ST/STM32_USB_Device_Library/Class/MSC/Src/usbd_msc_scsi.c ****   }
 567:Middlewares/ST/STM32_USB_Device_Library/Class/MSC/Src/usbd_msc_scsi.c ****   else /* Write Process ongoing */
 568:Middlewares/ST/STM32_USB_Device_Library/Class/MSC/Src/usbd_msc_scsi.c ****   {
 569:Middlewares/ST/STM32_USB_Device_Library/Class/MSC/Src/usbd_msc_scsi.c ****     return SCSI_ProcessWrite(pdev, lun);
 570:Middlewares/ST/STM32_USB_Device_Library/Class/MSC/Src/usbd_msc_scsi.c ****   }
 571:Middlewares/ST/STM32_USB_Device_Library/Class/MSC/Src/usbd_msc_scsi.c ****   return 0;
 572:Middlewares/ST/STM32_USB_Device_Library/Class/MSC/Src/usbd_msc_scsi.c **** }
 573:Middlewares/ST/STM32_USB_Device_Library/Class/MSC/Src/usbd_msc_scsi.c **** 
 574:Middlewares/ST/STM32_USB_Device_Library/Class/MSC/Src/usbd_msc_scsi.c **** 
 575:Middlewares/ST/STM32_USB_Device_Library/Class/MSC/Src/usbd_msc_scsi.c **** /**
 576:Middlewares/ST/STM32_USB_Device_Library/Class/MSC/Src/usbd_msc_scsi.c **** * @brief  SCSI_Verify10
 577:Middlewares/ST/STM32_USB_Device_Library/Class/MSC/Src/usbd_msc_scsi.c **** *         Process Verify10 command
 578:Middlewares/ST/STM32_USB_Device_Library/Class/MSC/Src/usbd_msc_scsi.c **** * @param  lun: Logical unit number
 579:Middlewares/ST/STM32_USB_Device_Library/Class/MSC/Src/usbd_msc_scsi.c **** * @param  params: Command parameters
ARM GAS  C:\Users\Kaa\AppData\Local\Temp\cc61P2Ds.s 			page 29


 580:Middlewares/ST/STM32_USB_Device_Library/Class/MSC/Src/usbd_msc_scsi.c **** * @retval status
 581:Middlewares/ST/STM32_USB_Device_Library/Class/MSC/Src/usbd_msc_scsi.c **** */
 582:Middlewares/ST/STM32_USB_Device_Library/Class/MSC/Src/usbd_msc_scsi.c **** 
 583:Middlewares/ST/STM32_USB_Device_Library/Class/MSC/Src/usbd_msc_scsi.c **** static int8_t SCSI_Verify10(USBD_HandleTypeDef  *pdev, uint8_t lun, uint8_t *params)
 584:Middlewares/ST/STM32_USB_Device_Library/Class/MSC/Src/usbd_msc_scsi.c **** {
 585:Middlewares/ST/STM32_USB_Device_Library/Class/MSC/Src/usbd_msc_scsi.c ****   USBD_MSC_BOT_HandleTypeDef  *hmsc = (USBD_MSC_BOT_HandleTypeDef *) pdev->pClassData;
 586:Middlewares/ST/STM32_USB_Device_Library/Class/MSC/Src/usbd_msc_scsi.c **** 
 587:Middlewares/ST/STM32_USB_Device_Library/Class/MSC/Src/usbd_msc_scsi.c ****   if ((params[1] & 0x02U) == 0x02U)
 588:Middlewares/ST/STM32_USB_Device_Library/Class/MSC/Src/usbd_msc_scsi.c ****   {
 589:Middlewares/ST/STM32_USB_Device_Library/Class/MSC/Src/usbd_msc_scsi.c ****     SCSI_SenseCode(pdev, lun, ILLEGAL_REQUEST, INVALID_FIELED_IN_COMMAND);
 590:Middlewares/ST/STM32_USB_Device_Library/Class/MSC/Src/usbd_msc_scsi.c ****     return -1; /* Error, Verify Mode Not supported*/
 591:Middlewares/ST/STM32_USB_Device_Library/Class/MSC/Src/usbd_msc_scsi.c ****   }
 592:Middlewares/ST/STM32_USB_Device_Library/Class/MSC/Src/usbd_msc_scsi.c **** 
 593:Middlewares/ST/STM32_USB_Device_Library/Class/MSC/Src/usbd_msc_scsi.c ****   if (SCSI_CheckAddressRange(pdev, lun, hmsc->scsi_blk_addr,
 594:Middlewares/ST/STM32_USB_Device_Library/Class/MSC/Src/usbd_msc_scsi.c ****                              hmsc->scsi_blk_len) < 0)
 595:Middlewares/ST/STM32_USB_Device_Library/Class/MSC/Src/usbd_msc_scsi.c ****   {
 596:Middlewares/ST/STM32_USB_Device_Library/Class/MSC/Src/usbd_msc_scsi.c ****     return -1; /* error */
 597:Middlewares/ST/STM32_USB_Device_Library/Class/MSC/Src/usbd_msc_scsi.c ****   }
 598:Middlewares/ST/STM32_USB_Device_Library/Class/MSC/Src/usbd_msc_scsi.c ****   hmsc->bot_data_length = 0U;
 599:Middlewares/ST/STM32_USB_Device_Library/Class/MSC/Src/usbd_msc_scsi.c ****   return 0;
 600:Middlewares/ST/STM32_USB_Device_Library/Class/MSC/Src/usbd_msc_scsi.c **** }
 601:Middlewares/ST/STM32_USB_Device_Library/Class/MSC/Src/usbd_msc_scsi.c **** 
 602:Middlewares/ST/STM32_USB_Device_Library/Class/MSC/Src/usbd_msc_scsi.c **** /**
 603:Middlewares/ST/STM32_USB_Device_Library/Class/MSC/Src/usbd_msc_scsi.c **** * @brief  SCSI_CheckAddressRange
 604:Middlewares/ST/STM32_USB_Device_Library/Class/MSC/Src/usbd_msc_scsi.c **** *         Check address range
 605:Middlewares/ST/STM32_USB_Device_Library/Class/MSC/Src/usbd_msc_scsi.c **** * @param  lun: Logical unit number
 606:Middlewares/ST/STM32_USB_Device_Library/Class/MSC/Src/usbd_msc_scsi.c **** * @param  blk_offset: first block address
 607:Middlewares/ST/STM32_USB_Device_Library/Class/MSC/Src/usbd_msc_scsi.c **** * @param  blk_nbr: number of block to be processed
 608:Middlewares/ST/STM32_USB_Device_Library/Class/MSC/Src/usbd_msc_scsi.c **** * @retval status
 609:Middlewares/ST/STM32_USB_Device_Library/Class/MSC/Src/usbd_msc_scsi.c **** */
 610:Middlewares/ST/STM32_USB_Device_Library/Class/MSC/Src/usbd_msc_scsi.c **** static int8_t SCSI_CheckAddressRange(USBD_HandleTypeDef *pdev, uint8_t lun,
 611:Middlewares/ST/STM32_USB_Device_Library/Class/MSC/Src/usbd_msc_scsi.c ****                                      uint32_t blk_offset, uint32_t blk_nbr)
 612:Middlewares/ST/STM32_USB_Device_Library/Class/MSC/Src/usbd_msc_scsi.c **** {
 863              		.loc 1 612 1 is_stmt 1 view -0
 864              		.cfi_startproc
 865              		@ args = 0, pretend = 0, frame = 0
 866              		@ frame_needed = 0, uses_anonymous_args = 0
 867              		.loc 1 612 1 is_stmt 0 view .LVU282
 868 0000 10B5     		push	{r4, lr}
 869              	.LCFI12:
 870              		.cfi_def_cfa_offset 8
 871              		.cfi_offset 4, -8
 872              		.cfi_offset 14, -4
 613:Middlewares/ST/STM32_USB_Device_Library/Class/MSC/Src/usbd_msc_scsi.c ****   USBD_MSC_BOT_HandleTypeDef  *hmsc = (USBD_MSC_BOT_HandleTypeDef *) pdev->pClassData;
 873              		.loc 1 613 3 is_stmt 1 view .LVU283
 874              		.loc 1 613 32 is_stmt 0 view .LVU284
 875 0002 D0F8B842 		ldr	r4, [r0, #696]
 876              	.LVL77:
 614:Middlewares/ST/STM32_USB_Device_Library/Class/MSC/Src/usbd_msc_scsi.c **** 
 615:Middlewares/ST/STM32_USB_Device_Library/Class/MSC/Src/usbd_msc_scsi.c ****   if ((blk_offset + blk_nbr) > hmsc->scsi_blk_nbr)
 877              		.loc 1 615 3 is_stmt 1 view .LVU285
 878              		.loc 1 615 19 is_stmt 0 view .LVU286
 879 0006 1344     		add	r3, r3, r2
 880              	.LVL78:
 881              		.loc 1 615 36 view .LVU287
 882 0008 D4F86042 		ldr	r4, [r4, #608]
 883              	.LVL79:
ARM GAS  C:\Users\Kaa\AppData\Local\Temp\cc61P2Ds.s 			page 30


 884              		.loc 1 615 6 view .LVU288
 885 000c A342     		cmp	r3, r4
 886 000e 01D8     		bhi	.L58
 616:Middlewares/ST/STM32_USB_Device_Library/Class/MSC/Src/usbd_msc_scsi.c ****   {
 617:Middlewares/ST/STM32_USB_Device_Library/Class/MSC/Src/usbd_msc_scsi.c ****     SCSI_SenseCode(pdev, lun, ILLEGAL_REQUEST, ADDRESS_OUT_OF_RANGE);
 618:Middlewares/ST/STM32_USB_Device_Library/Class/MSC/Src/usbd_msc_scsi.c ****     return -1;
 619:Middlewares/ST/STM32_USB_Device_Library/Class/MSC/Src/usbd_msc_scsi.c ****   }
 620:Middlewares/ST/STM32_USB_Device_Library/Class/MSC/Src/usbd_msc_scsi.c ****   return 0;
 887              		.loc 1 620 10 view .LVU289
 888 0010 0020     		movs	r0, #0
 889              	.LVL80:
 890              	.L55:
 621:Middlewares/ST/STM32_USB_Device_Library/Class/MSC/Src/usbd_msc_scsi.c **** }
 891              		.loc 1 621 1 view .LVU290
 892 0012 10BD     		pop	{r4, pc}
 893              	.LVL81:
 894              	.L58:
 617:Middlewares/ST/STM32_USB_Device_Library/Class/MSC/Src/usbd_msc_scsi.c ****     return -1;
 895              		.loc 1 617 5 is_stmt 1 view .LVU291
 896 0014 2123     		movs	r3, #33
 897 0016 0522     		movs	r2, #5
 898              	.LVL82:
 617:Middlewares/ST/STM32_USB_Device_Library/Class/MSC/Src/usbd_msc_scsi.c ****     return -1;
 899              		.loc 1 617 5 is_stmt 0 view .LVU292
 900 0018 FFF7FEFF 		bl	SCSI_SenseCode
 901              	.LVL83:
 618:Middlewares/ST/STM32_USB_Device_Library/Class/MSC/Src/usbd_msc_scsi.c ****   }
 902              		.loc 1 618 5 is_stmt 1 view .LVU293
 618:Middlewares/ST/STM32_USB_Device_Library/Class/MSC/Src/usbd_msc_scsi.c ****   }
 903              		.loc 1 618 12 is_stmt 0 view .LVU294
 904 001c 4FF0FF30 		mov	r0, #-1
 905 0020 F7E7     		b	.L55
 906              		.cfi_endproc
 907              	.LFE414:
 909              		.section	.text.SCSI_ProcessRead,"ax",%progbits
 910              		.align	1
 911              		.syntax unified
 912              		.thumb
 913              		.thumb_func
 914              		.fpu softvfp
 916              	SCSI_ProcessRead:
 917              	.LVL84:
 918              	.LFB415:
 622:Middlewares/ST/STM32_USB_Device_Library/Class/MSC/Src/usbd_msc_scsi.c **** 
 623:Middlewares/ST/STM32_USB_Device_Library/Class/MSC/Src/usbd_msc_scsi.c **** /**
 624:Middlewares/ST/STM32_USB_Device_Library/Class/MSC/Src/usbd_msc_scsi.c **** * @brief  SCSI_ProcessRead
 625:Middlewares/ST/STM32_USB_Device_Library/Class/MSC/Src/usbd_msc_scsi.c **** *         Handle Read Process
 626:Middlewares/ST/STM32_USB_Device_Library/Class/MSC/Src/usbd_msc_scsi.c **** * @param  lun: Logical unit number
 627:Middlewares/ST/STM32_USB_Device_Library/Class/MSC/Src/usbd_msc_scsi.c **** * @retval status
 628:Middlewares/ST/STM32_USB_Device_Library/Class/MSC/Src/usbd_msc_scsi.c **** */
 629:Middlewares/ST/STM32_USB_Device_Library/Class/MSC/Src/usbd_msc_scsi.c **** static int8_t SCSI_ProcessRead(USBD_HandleTypeDef  *pdev, uint8_t lun)
 630:Middlewares/ST/STM32_USB_Device_Library/Class/MSC/Src/usbd_msc_scsi.c **** {
 919              		.loc 1 630 1 is_stmt 1 view -0
 920              		.cfi_startproc
 921              		@ args = 0, pretend = 0, frame = 0
 922              		@ frame_needed = 0, uses_anonymous_args = 0
 923              		.loc 1 630 1 is_stmt 0 view .LVU296
ARM GAS  C:\Users\Kaa\AppData\Local\Temp\cc61P2Ds.s 			page 31


 924 0000 2DE9F843 		push	{r3, r4, r5, r6, r7, r8, r9, lr}
 925              	.LCFI13:
 926              		.cfi_def_cfa_offset 32
 927              		.cfi_offset 3, -32
 928              		.cfi_offset 4, -28
 929              		.cfi_offset 5, -24
 930              		.cfi_offset 6, -20
 931              		.cfi_offset 7, -16
 932              		.cfi_offset 8, -12
 933              		.cfi_offset 9, -8
 934              		.cfi_offset 14, -4
 935 0004 0646     		mov	r6, r0
 936 0006 8946     		mov	r9, r1
 631:Middlewares/ST/STM32_USB_Device_Library/Class/MSC/Src/usbd_msc_scsi.c ****   USBD_MSC_BOT_HandleTypeDef *hmsc = (USBD_MSC_BOT_HandleTypeDef *)pdev->pClassData;
 937              		.loc 1 631 3 is_stmt 1 view .LVU297
 938              		.loc 1 631 31 is_stmt 0 view .LVU298
 939 0008 D0F8B842 		ldr	r4, [r0, #696]
 940              	.LVL85:
 632:Middlewares/ST/STM32_USB_Device_Library/Class/MSC/Src/usbd_msc_scsi.c ****   uint32_t len = hmsc->scsi_blk_len * hmsc->scsi_blk_size;
 941              		.loc 1 632 3 is_stmt 1 view .LVU299
 942              		.loc 1 632 22 is_stmt 0 view .LVU300
 943 000c D4F86852 		ldr	r5, [r4, #616]
 944              		.loc 1 632 43 view .LVU301
 945 0010 B4F85E32 		ldrh	r3, [r4, #606]
 946              		.loc 1 632 12 view .LVU302
 947 0014 03FB05F5 		mul	r5, r3, r5
 948              	.LVL86:
 633:Middlewares/ST/STM32_USB_Device_Library/Class/MSC/Src/usbd_msc_scsi.c **** 
 634:Middlewares/ST/STM32_USB_Device_Library/Class/MSC/Src/usbd_msc_scsi.c ****   len = MIN(len, MSC_MEDIA_PACKET);
 949              		.loc 1 634 3 is_stmt 1 view .LVU303
 950              		.loc 1 634 7 is_stmt 0 view .LVU304
 951 0018 B5F5007F 		cmp	r5, #512
 952 001c 28BF     		it	cs
 953 001e 4FF40075 		movcs	r5, #512
 954              	.LVL87:
 635:Middlewares/ST/STM32_USB_Device_Library/Class/MSC/Src/usbd_msc_scsi.c **** 
 636:Middlewares/ST/STM32_USB_Device_Library/Class/MSC/Src/usbd_msc_scsi.c ****   if (((USBD_StorageTypeDef *)pdev->pUserData)->Read(lun,
 955              		.loc 1 636 3 is_stmt 1 view .LVU305
 956              		.loc 1 636 35 is_stmt 0 view .LVU306
 957 0022 D0F8BC22 		ldr	r2, [r0, #700]
 958              		.loc 1 636 47 view .LVU307
 959 0026 1769     		ldr	r7, [r2, #16]
 637:Middlewares/ST/STM32_USB_Device_Library/Class/MSC/Src/usbd_msc_scsi.c ****                                                      hmsc->bot_data,
 960              		.loc 1 637 58 view .LVU308
 961 0028 04F10C08 		add	r8, r4, #12
 638:Middlewares/ST/STM32_USB_Device_Library/Class/MSC/Src/usbd_msc_scsi.c ****                                                      hmsc->scsi_blk_addr,
 639:Middlewares/ST/STM32_USB_Device_Library/Class/MSC/Src/usbd_msc_scsi.c ****                                                      (len / hmsc->scsi_blk_size)) < 0)
 962              		.loc 1 639 59 view .LVU309
 963 002c B5FBF3F3 		udiv	r3, r5, r3
 636:Middlewares/ST/STM32_USB_Device_Library/Class/MSC/Src/usbd_msc_scsi.c ****                                                      hmsc->bot_data,
 964              		.loc 1 636 8 view .LVU310
 965 0030 9BB2     		uxth	r3, r3
 966 0032 D4F86422 		ldr	r2, [r4, #612]
 967 0036 4146     		mov	r1, r8
 968              	.LVL88:
 636:Middlewares/ST/STM32_USB_Device_Library/Class/MSC/Src/usbd_msc_scsi.c ****                                                      hmsc->bot_data,
 969              		.loc 1 636 8 view .LVU311
ARM GAS  C:\Users\Kaa\AppData\Local\Temp\cc61P2Ds.s 			page 32


 970 0038 4846     		mov	r0, r9
 971              	.LVL89:
 636:Middlewares/ST/STM32_USB_Device_Library/Class/MSC/Src/usbd_msc_scsi.c ****                                                      hmsc->bot_data,
 972              		.loc 1 636 8 view .LVU312
 973 003a B847     		blx	r7
 974              	.LVL90:
 636:Middlewares/ST/STM32_USB_Device_Library/Class/MSC/Src/usbd_msc_scsi.c ****                                                      hmsc->bot_data,
 975              		.loc 1 636 6 view .LVU313
 976 003c 0028     		cmp	r0, #0
 977 003e 1DDB     		blt	.L64
 640:Middlewares/ST/STM32_USB_Device_Library/Class/MSC/Src/usbd_msc_scsi.c ****   {
 641:Middlewares/ST/STM32_USB_Device_Library/Class/MSC/Src/usbd_msc_scsi.c ****     SCSI_SenseCode(pdev, lun, HARDWARE_ERROR, UNRECOVERED_READ_ERROR);
 642:Middlewares/ST/STM32_USB_Device_Library/Class/MSC/Src/usbd_msc_scsi.c ****     return -1;
 643:Middlewares/ST/STM32_USB_Device_Library/Class/MSC/Src/usbd_msc_scsi.c ****   }
 644:Middlewares/ST/STM32_USB_Device_Library/Class/MSC/Src/usbd_msc_scsi.c **** 
 645:Middlewares/ST/STM32_USB_Device_Library/Class/MSC/Src/usbd_msc_scsi.c ****   USBD_LL_Transmit(pdev, MSC_EPIN_ADDR, hmsc->bot_data, len);
 978              		.loc 1 645 3 is_stmt 1 view .LVU314
 979 0040 ABB2     		uxth	r3, r5
 980 0042 4246     		mov	r2, r8
 981 0044 8121     		movs	r1, #129
 982 0046 3046     		mov	r0, r6
 983 0048 FFF7FEFF 		bl	USBD_LL_Transmit
 984              	.LVL91:
 646:Middlewares/ST/STM32_USB_Device_Library/Class/MSC/Src/usbd_msc_scsi.c **** 
 647:Middlewares/ST/STM32_USB_Device_Library/Class/MSC/Src/usbd_msc_scsi.c ****   hmsc->scsi_blk_addr += (len / hmsc->scsi_blk_size);
 985              		.loc 1 647 3 view .LVU315
 986              		.loc 1 647 37 is_stmt 0 view .LVU316
 987 004c B4F85E32 		ldrh	r3, [r4, #606]
 988              		.loc 1 647 31 view .LVU317
 989 0050 B5FBF3F2 		udiv	r2, r5, r3
 990              		.loc 1 647 23 view .LVU318
 991 0054 D4F86432 		ldr	r3, [r4, #612]
 992 0058 1344     		add	r3, r3, r2
 993 005a C4F86432 		str	r3, [r4, #612]
 648:Middlewares/ST/STM32_USB_Device_Library/Class/MSC/Src/usbd_msc_scsi.c ****   hmsc->scsi_blk_len -= (len / hmsc->scsi_blk_size);
 994              		.loc 1 648 3 is_stmt 1 view .LVU319
 995              		.loc 1 648 22 is_stmt 0 view .LVU320
 996 005e D4F86832 		ldr	r3, [r4, #616]
 997 0062 9B1A     		subs	r3, r3, r2
 998 0064 C4F86832 		str	r3, [r4, #616]
 649:Middlewares/ST/STM32_USB_Device_Library/Class/MSC/Src/usbd_msc_scsi.c **** 
 650:Middlewares/ST/STM32_USB_Device_Library/Class/MSC/Src/usbd_msc_scsi.c ****   /* case 6 : Hi = Di */
 651:Middlewares/ST/STM32_USB_Device_Library/Class/MSC/Src/usbd_msc_scsi.c ****   hmsc->csw.dDataResidue -= len;
 999              		.loc 1 651 3 is_stmt 1 view .LVU321
 1000              		.loc 1 651 26 is_stmt 0 view .LVU322
 1001 0068 D4F83422 		ldr	r2, [r4, #564]
 1002 006c 551B     		subs	r5, r2, r5
 1003              	.LVL92:
 1004              		.loc 1 651 26 view .LVU323
 1005 006e C4F83452 		str	r5, [r4, #564]
 652:Middlewares/ST/STM32_USB_Device_Library/Class/MSC/Src/usbd_msc_scsi.c **** 
 653:Middlewares/ST/STM32_USB_Device_Library/Class/MSC/Src/usbd_msc_scsi.c ****   if (hmsc->scsi_blk_len == 0U)
 1006              		.loc 1 653 3 is_stmt 1 view .LVU324
 1007              		.loc 1 653 6 is_stmt 0 view .LVU325
 1008 0072 63B9     		cbnz	r3, .L62
 654:Middlewares/ST/STM32_USB_Device_Library/Class/MSC/Src/usbd_msc_scsi.c ****   {
 655:Middlewares/ST/STM32_USB_Device_Library/Class/MSC/Src/usbd_msc_scsi.c ****     hmsc->bot_state = USBD_BOT_LAST_DATA_IN;
ARM GAS  C:\Users\Kaa\AppData\Local\Temp\cc61P2Ds.s 			page 33


 1009              		.loc 1 655 5 is_stmt 1 view .LVU326
 1010              		.loc 1 655 21 is_stmt 0 view .LVU327
 1011 0074 0323     		movs	r3, #3
 1012 0076 2372     		strb	r3, [r4, #8]
 656:Middlewares/ST/STM32_USB_Device_Library/Class/MSC/Src/usbd_msc_scsi.c ****   }
 657:Middlewares/ST/STM32_USB_Device_Library/Class/MSC/Src/usbd_msc_scsi.c ****   return 0;
 1013              		.loc 1 657 10 view .LVU328
 1014 0078 0020     		movs	r0, #0
 1015 007a 09E0     		b	.L61
 1016              	.LVL93:
 1017              	.L64:
 641:Middlewares/ST/STM32_USB_Device_Library/Class/MSC/Src/usbd_msc_scsi.c ****     return -1;
 1018              		.loc 1 641 5 is_stmt 1 view .LVU329
 1019 007c 1123     		movs	r3, #17
 1020 007e 0422     		movs	r2, #4
 1021 0080 4946     		mov	r1, r9
 1022 0082 3046     		mov	r0, r6
 1023 0084 FFF7FEFF 		bl	SCSI_SenseCode
 1024              	.LVL94:
 642:Middlewares/ST/STM32_USB_Device_Library/Class/MSC/Src/usbd_msc_scsi.c ****   }
 1025              		.loc 1 642 5 view .LVU330
 642:Middlewares/ST/STM32_USB_Device_Library/Class/MSC/Src/usbd_msc_scsi.c ****   }
 1026              		.loc 1 642 12 is_stmt 0 view .LVU331
 1027 0088 4FF0FF30 		mov	r0, #-1
 1028 008c 00E0     		b	.L61
 1029              	.LVL95:
 1030              	.L62:
 1031              		.loc 1 657 10 view .LVU332
 1032 008e 0020     		movs	r0, #0
 1033              	.L61:
 658:Middlewares/ST/STM32_USB_Device_Library/Class/MSC/Src/usbd_msc_scsi.c **** }
 1034              		.loc 1 658 1 view .LVU333
 1035 0090 BDE8F883 		pop	{r3, r4, r5, r6, r7, r8, r9, pc}
 1036              		.loc 1 658 1 view .LVU334
 1037              		.cfi_endproc
 1038              	.LFE415:
 1040              		.section	.text.SCSI_Read10,"ax",%progbits
 1041              		.align	1
 1042              		.syntax unified
 1043              		.thumb
 1044              		.thumb_func
 1045              		.fpu softvfp
 1047              	SCSI_Read10:
 1048              	.LVL96:
 1049              	.LFB411:
 456:Middlewares/ST/STM32_USB_Device_Library/Class/MSC/Src/usbd_msc_scsi.c ****   USBD_MSC_BOT_HandleTypeDef  *hmsc = (USBD_MSC_BOT_HandleTypeDef *) pdev->pClassData;
 1050              		.loc 1 456 1 is_stmt 1 view -0
 1051              		.cfi_startproc
 1052              		@ args = 0, pretend = 0, frame = 0
 1053              		@ frame_needed = 0, uses_anonymous_args = 0
 456:Middlewares/ST/STM32_USB_Device_Library/Class/MSC/Src/usbd_msc_scsi.c ****   USBD_MSC_BOT_HandleTypeDef  *hmsc = (USBD_MSC_BOT_HandleTypeDef *) pdev->pClassData;
 1054              		.loc 1 456 1 is_stmt 0 view .LVU336
 1055 0000 F8B5     		push	{r3, r4, r5, r6, r7, lr}
 1056              	.LCFI14:
 1057              		.cfi_def_cfa_offset 24
 1058              		.cfi_offset 3, -24
 1059              		.cfi_offset 4, -20
ARM GAS  C:\Users\Kaa\AppData\Local\Temp\cc61P2Ds.s 			page 34


 1060              		.cfi_offset 5, -16
 1061              		.cfi_offset 6, -12
 1062              		.cfi_offset 7, -8
 1063              		.cfi_offset 14, -4
 1064 0002 0646     		mov	r6, r0
 1065 0004 0F46     		mov	r7, r1
 457:Middlewares/ST/STM32_USB_Device_Library/Class/MSC/Src/usbd_msc_scsi.c **** 
 1066              		.loc 1 457 3 is_stmt 1 view .LVU337
 457:Middlewares/ST/STM32_USB_Device_Library/Class/MSC/Src/usbd_msc_scsi.c **** 
 1067              		.loc 1 457 32 is_stmt 0 view .LVU338
 1068 0006 D0F8B842 		ldr	r4, [r0, #696]
 1069              	.LVL97:
 459:Middlewares/ST/STM32_USB_Device_Library/Class/MSC/Src/usbd_msc_scsi.c ****   {
 1070              		.loc 1 459 3 is_stmt 1 view .LVU339
 459:Middlewares/ST/STM32_USB_Device_Library/Class/MSC/Src/usbd_msc_scsi.c ****   {
 1071              		.loc 1 459 11 is_stmt 0 view .LVU340
 1072 000a 237A     		ldrb	r3, [r4, #8]	@ zero_extendqisi2
 459:Middlewares/ST/STM32_USB_Device_Library/Class/MSC/Src/usbd_msc_scsi.c ****   {
 1073              		.loc 1 459 6 view .LVU341
 1074 000c 73BB     		cbnz	r3, .L66
 1075 000e 1546     		mov	r5, r2
 462:Middlewares/ST/STM32_USB_Device_Library/Class/MSC/Src/usbd_msc_scsi.c ****     {
 1076              		.loc 1 462 5 is_stmt 1 view .LVU342
 462:Middlewares/ST/STM32_USB_Device_Library/Class/MSC/Src/usbd_msc_scsi.c ****     {
 1077              		.loc 1 462 37 is_stmt 0 view .LVU343
 1078 0010 94F91832 		ldrsb	r3, [r4, #536]
 462:Middlewares/ST/STM32_USB_Device_Library/Class/MSC/Src/usbd_msc_scsi.c ****     {
 1079              		.loc 1 462 8 view .LVU344
 1080 0014 002B     		cmp	r3, #0
 1081 0016 31DA     		bge	.L72
 468:Middlewares/ST/STM32_USB_Device_Library/Class/MSC/Src/usbd_msc_scsi.c ****     {
 1082              		.loc 1 468 5 is_stmt 1 view .LVU345
 468:Middlewares/ST/STM32_USB_Device_Library/Class/MSC/Src/usbd_msc_scsi.c ****     {
 1083              		.loc 1 468 37 is_stmt 0 view .LVU346
 1084 0018 D0F8BC32 		ldr	r3, [r0, #700]
 468:Middlewares/ST/STM32_USB_Device_Library/Class/MSC/Src/usbd_msc_scsi.c ****     {
 1085              		.loc 1 468 49 view .LVU347
 1086 001c 9B68     		ldr	r3, [r3, #8]
 468:Middlewares/ST/STM32_USB_Device_Library/Class/MSC/Src/usbd_msc_scsi.c ****     {
 1087              		.loc 1 468 10 view .LVU348
 1088 001e 0846     		mov	r0, r1
 1089              	.LVL98:
 468:Middlewares/ST/STM32_USB_Device_Library/Class/MSC/Src/usbd_msc_scsi.c ****     {
 1090              		.loc 1 468 10 view .LVU349
 1091 0020 9847     		blx	r3
 1092              	.LVL99:
 468:Middlewares/ST/STM32_USB_Device_Library/Class/MSC/Src/usbd_msc_scsi.c ****     {
 1093              		.loc 1 468 8 view .LVU350
 1094 0022 A0BB     		cbnz	r0, .L73
 474:Middlewares/ST/STM32_USB_Device_Library/Class/MSC/Src/usbd_msc_scsi.c ****                           ((uint32_t)params[3] << 16) |
 1095              		.loc 1 474 5 is_stmt 1 view .LVU351
 474:Middlewares/ST/STM32_USB_Device_Library/Class/MSC/Src/usbd_msc_scsi.c ****                           ((uint32_t)params[3] << 16) |
 1096              		.loc 1 474 44 is_stmt 0 view .LVU352
 1097 0024 AB78     		ldrb	r3, [r5, #2]	@ zero_extendqisi2
 475:Middlewares/ST/STM32_USB_Device_Library/Class/MSC/Src/usbd_msc_scsi.c ****                           ((uint32_t)params[4] <<  8) |
 1098              		.loc 1 475 44 view .LVU353
 1099 0026 EA78     		ldrb	r2, [r5, #3]	@ zero_extendqisi2
ARM GAS  C:\Users\Kaa\AppData\Local\Temp\cc61P2Ds.s 			page 35


 475:Middlewares/ST/STM32_USB_Device_Library/Class/MSC/Src/usbd_msc_scsi.c ****                           ((uint32_t)params[4] <<  8) |
 1100              		.loc 1 475 48 view .LVU354
 1101 0028 1204     		lsls	r2, r2, #16
 474:Middlewares/ST/STM32_USB_Device_Library/Class/MSC/Src/usbd_msc_scsi.c ****                           ((uint32_t)params[3] << 16) |
 1102              		.loc 1 474 55 view .LVU355
 1103 002a 42EA0362 		orr	r2, r2, r3, lsl #24
 476:Middlewares/ST/STM32_USB_Device_Library/Class/MSC/Src/usbd_msc_scsi.c ****                           (uint32_t)params[5];
 1104              		.loc 1 476 44 view .LVU356
 1105 002e 2B79     		ldrb	r3, [r5, #4]	@ zero_extendqisi2
 475:Middlewares/ST/STM32_USB_Device_Library/Class/MSC/Src/usbd_msc_scsi.c ****                           ((uint32_t)params[4] <<  8) |
 1106              		.loc 1 475 55 view .LVU357
 1107 0030 42EA0322 		orr	r2, r2, r3, lsl #8
 477:Middlewares/ST/STM32_USB_Device_Library/Class/MSC/Src/usbd_msc_scsi.c **** 
 1108              		.loc 1 477 43 view .LVU358
 1109 0034 6B79     		ldrb	r3, [r5, #5]	@ zero_extendqisi2
 476:Middlewares/ST/STM32_USB_Device_Library/Class/MSC/Src/usbd_msc_scsi.c ****                           (uint32_t)params[5];
 1110              		.loc 1 476 55 view .LVU359
 1111 0036 1A43     		orrs	r2, r2, r3
 474:Middlewares/ST/STM32_USB_Device_Library/Class/MSC/Src/usbd_msc_scsi.c ****                           ((uint32_t)params[3] << 16) |
 1112              		.loc 1 474 25 view .LVU360
 1113 0038 C4F86422 		str	r2, [r4, #612]
 479:Middlewares/ST/STM32_USB_Device_Library/Class/MSC/Src/usbd_msc_scsi.c **** 
 1114              		.loc 1 479 5 is_stmt 1 view .LVU361
 479:Middlewares/ST/STM32_USB_Device_Library/Class/MSC/Src/usbd_msc_scsi.c **** 
 1115              		.loc 1 479 43 is_stmt 0 view .LVU362
 1116 003c E979     		ldrb	r1, [r5, #7]	@ zero_extendqisi2
 479:Middlewares/ST/STM32_USB_Device_Library/Class/MSC/Src/usbd_msc_scsi.c **** 
 1117              		.loc 1 479 72 view .LVU363
 1118 003e 2B7A     		ldrb	r3, [r5, #8]	@ zero_extendqisi2
 479:Middlewares/ST/STM32_USB_Device_Library/Class/MSC/Src/usbd_msc_scsi.c **** 
 1119              		.loc 1 479 54 view .LVU364
 1120 0040 43EA0123 		orr	r3, r3, r1, lsl #8
 479:Middlewares/ST/STM32_USB_Device_Library/Class/MSC/Src/usbd_msc_scsi.c **** 
 1121              		.loc 1 479 24 view .LVU365
 1122 0044 C4F86832 		str	r3, [r4, #616]
 481:Middlewares/ST/STM32_USB_Device_Library/Class/MSC/Src/usbd_msc_scsi.c ****                                hmsc->scsi_blk_len) < 0)
 1123              		.loc 1 481 5 is_stmt 1 view .LVU366
 481:Middlewares/ST/STM32_USB_Device_Library/Class/MSC/Src/usbd_msc_scsi.c ****                                hmsc->scsi_blk_len) < 0)
 1124              		.loc 1 481 9 is_stmt 0 view .LVU367
 1125 0048 3946     		mov	r1, r7
 1126 004a 3046     		mov	r0, r6
 1127 004c FFF7FEFF 		bl	SCSI_CheckAddressRange
 1128              	.LVL100:
 481:Middlewares/ST/STM32_USB_Device_Library/Class/MSC/Src/usbd_msc_scsi.c ****                                hmsc->scsi_blk_len) < 0)
 1129              		.loc 1 481 8 view .LVU368
 1130 0050 0028     		cmp	r0, #0
 1131 0052 2FDB     		blt	.L70
 487:Middlewares/ST/STM32_USB_Device_Library/Class/MSC/Src/usbd_msc_scsi.c **** 
 1132              		.loc 1 487 5 is_stmt 1 view .LVU369
 487:Middlewares/ST/STM32_USB_Device_Library/Class/MSC/Src/usbd_msc_scsi.c **** 
 1133              		.loc 1 487 21 is_stmt 0 view .LVU370
 1134 0054 0223     		movs	r3, #2
 1135 0056 2372     		strb	r3, [r4, #8]
 490:Middlewares/ST/STM32_USB_Device_Library/Class/MSC/Src/usbd_msc_scsi.c ****     {
 1136              		.loc 1 490 5 is_stmt 1 view .LVU371
 490:Middlewares/ST/STM32_USB_Device_Library/Class/MSC/Src/usbd_msc_scsi.c ****     {
 1137              		.loc 1 490 18 is_stmt 0 view .LVU372
ARM GAS  C:\Users\Kaa\AppData\Local\Temp\cc61P2Ds.s 			page 36


 1138 0058 D4F81422 		ldr	r2, [r4, #532]
 490:Middlewares/ST/STM32_USB_Device_Library/Class/MSC/Src/usbd_msc_scsi.c ****     {
 1139              		.loc 1 490 39 view .LVU373
 1140 005c D4F86812 		ldr	r1, [r4, #616]
 490:Middlewares/ST/STM32_USB_Device_Library/Class/MSC/Src/usbd_msc_scsi.c ****     {
 1141              		.loc 1 490 60 view .LVU374
 1142 0060 B4F85E32 		ldrh	r3, [r4, #606]
 490:Middlewares/ST/STM32_USB_Device_Library/Class/MSC/Src/usbd_msc_scsi.c ****     {
 1143              		.loc 1 490 54 view .LVU375
 1144 0064 03FB01F3 		mul	r3, r3, r1
 490:Middlewares/ST/STM32_USB_Device_Library/Class/MSC/Src/usbd_msc_scsi.c ****     {
 1145              		.loc 1 490 8 view .LVU376
 1146 0068 9A42     		cmp	r2, r3
 1147 006a 19D1     		bne	.L74
 1148              	.LVL101:
 1149              	.L66:
 496:Middlewares/ST/STM32_USB_Device_Library/Class/MSC/Src/usbd_msc_scsi.c **** 
 1150              		.loc 1 496 3 is_stmt 1 view .LVU377
 496:Middlewares/ST/STM32_USB_Device_Library/Class/MSC/Src/usbd_msc_scsi.c **** 
 1151              		.loc 1 496 25 is_stmt 0 view .LVU378
 1152 006c 4FF40073 		mov	r3, #512
 1153 0070 6381     		strh	r3, [r4, #10]	@ movhi
 498:Middlewares/ST/STM32_USB_Device_Library/Class/MSC/Src/usbd_msc_scsi.c **** }
 1154              		.loc 1 498 3 is_stmt 1 view .LVU379
 498:Middlewares/ST/STM32_USB_Device_Library/Class/MSC/Src/usbd_msc_scsi.c **** }
 1155              		.loc 1 498 10 is_stmt 0 view .LVU380
 1156 0072 3946     		mov	r1, r7
 1157 0074 3046     		mov	r0, r6
 1158 0076 FFF7FEFF 		bl	SCSI_ProcessRead
 1159              	.LVL102:
 1160              	.L68:
 499:Middlewares/ST/STM32_USB_Device_Library/Class/MSC/Src/usbd_msc_scsi.c **** 
 1161              		.loc 1 499 1 view .LVU381
 1162 007a F8BD     		pop	{r3, r4, r5, r6, r7, pc}
 1163              	.LVL103:
 1164              	.L72:
 464:Middlewares/ST/STM32_USB_Device_Library/Class/MSC/Src/usbd_msc_scsi.c ****       return -1;
 1165              		.loc 1 464 7 is_stmt 1 view .LVU382
 1166 007c 2023     		movs	r3, #32
 1167 007e 0522     		movs	r2, #5
 1168              	.LVL104:
 464:Middlewares/ST/STM32_USB_Device_Library/Class/MSC/Src/usbd_msc_scsi.c ****       return -1;
 1169              		.loc 1 464 7 is_stmt 0 view .LVU383
 1170 0080 94F81912 		ldrb	r1, [r4, #537]	@ zero_extendqisi2
 1171              	.LVL105:
 464:Middlewares/ST/STM32_USB_Device_Library/Class/MSC/Src/usbd_msc_scsi.c ****       return -1;
 1172              		.loc 1 464 7 view .LVU384
 1173 0084 FFF7FEFF 		bl	SCSI_SenseCode
 1174              	.LVL106:
 465:Middlewares/ST/STM32_USB_Device_Library/Class/MSC/Src/usbd_msc_scsi.c ****     }
 1175              		.loc 1 465 7 is_stmt 1 view .LVU385
 465:Middlewares/ST/STM32_USB_Device_Library/Class/MSC/Src/usbd_msc_scsi.c ****     }
 1176              		.loc 1 465 14 is_stmt 0 view .LVU386
 1177 0088 4FF0FF30 		mov	r0, #-1
 1178 008c F5E7     		b	.L68
 1179              	.L73:
 470:Middlewares/ST/STM32_USB_Device_Library/Class/MSC/Src/usbd_msc_scsi.c ****       return -1;
ARM GAS  C:\Users\Kaa\AppData\Local\Temp\cc61P2Ds.s 			page 37


 1180              		.loc 1 470 7 is_stmt 1 view .LVU387
 1181 008e 3A23     		movs	r3, #58
 1182 0090 0222     		movs	r2, #2
 1183 0092 3946     		mov	r1, r7
 1184 0094 3046     		mov	r0, r6
 1185 0096 FFF7FEFF 		bl	SCSI_SenseCode
 1186              	.LVL107:
 471:Middlewares/ST/STM32_USB_Device_Library/Class/MSC/Src/usbd_msc_scsi.c ****     }
 1187              		.loc 1 471 7 view .LVU388
 471:Middlewares/ST/STM32_USB_Device_Library/Class/MSC/Src/usbd_msc_scsi.c ****     }
 1188              		.loc 1 471 14 is_stmt 0 view .LVU389
 1189 009a 4FF0FF30 		mov	r0, #-1
 1190 009e ECE7     		b	.L68
 1191              	.L74:
 492:Middlewares/ST/STM32_USB_Device_Library/Class/MSC/Src/usbd_msc_scsi.c ****       return -1;
 1192              		.loc 1 492 7 is_stmt 1 view .LVU390
 1193 00a0 2023     		movs	r3, #32
 1194 00a2 0522     		movs	r2, #5
 1195 00a4 94F81912 		ldrb	r1, [r4, #537]	@ zero_extendqisi2
 1196 00a8 3046     		mov	r0, r6
 1197 00aa FFF7FEFF 		bl	SCSI_SenseCode
 1198              	.LVL108:
 493:Middlewares/ST/STM32_USB_Device_Library/Class/MSC/Src/usbd_msc_scsi.c ****     }
 1199              		.loc 1 493 7 view .LVU391
 493:Middlewares/ST/STM32_USB_Device_Library/Class/MSC/Src/usbd_msc_scsi.c ****     }
 1200              		.loc 1 493 14 is_stmt 0 view .LVU392
 1201 00ae 4FF0FF30 		mov	r0, #-1
 1202 00b2 E2E7     		b	.L68
 1203              	.L70:
 484:Middlewares/ST/STM32_USB_Device_Library/Class/MSC/Src/usbd_msc_scsi.c ****     }
 1204              		.loc 1 484 14 view .LVU393
 1205 00b4 4FF0FF30 		mov	r0, #-1
 1206 00b8 DFE7     		b	.L68
 1207              		.cfi_endproc
 1208              	.LFE411:
 1210              		.section	.text.SCSI_ProcessWrite,"ax",%progbits
 1211              		.align	1
 1212              		.syntax unified
 1213              		.thumb
 1214              		.thumb_func
 1215              		.fpu softvfp
 1217              	SCSI_ProcessWrite:
 1218              	.LVL109:
 1219              	.LFB416:
 659:Middlewares/ST/STM32_USB_Device_Library/Class/MSC/Src/usbd_msc_scsi.c **** 
 660:Middlewares/ST/STM32_USB_Device_Library/Class/MSC/Src/usbd_msc_scsi.c **** /**
 661:Middlewares/ST/STM32_USB_Device_Library/Class/MSC/Src/usbd_msc_scsi.c **** * @brief  SCSI_ProcessWrite
 662:Middlewares/ST/STM32_USB_Device_Library/Class/MSC/Src/usbd_msc_scsi.c **** *         Handle Write Process
 663:Middlewares/ST/STM32_USB_Device_Library/Class/MSC/Src/usbd_msc_scsi.c **** * @param  lun: Logical unit number
 664:Middlewares/ST/STM32_USB_Device_Library/Class/MSC/Src/usbd_msc_scsi.c **** * @retval status
 665:Middlewares/ST/STM32_USB_Device_Library/Class/MSC/Src/usbd_msc_scsi.c **** */
 666:Middlewares/ST/STM32_USB_Device_Library/Class/MSC/Src/usbd_msc_scsi.c **** 
 667:Middlewares/ST/STM32_USB_Device_Library/Class/MSC/Src/usbd_msc_scsi.c **** static int8_t SCSI_ProcessWrite(USBD_HandleTypeDef  *pdev, uint8_t lun)
 668:Middlewares/ST/STM32_USB_Device_Library/Class/MSC/Src/usbd_msc_scsi.c **** {
 1220              		.loc 1 668 1 is_stmt 1 view -0
 1221              		.cfi_startproc
 1222              		@ args = 0, pretend = 0, frame = 0
ARM GAS  C:\Users\Kaa\AppData\Local\Temp\cc61P2Ds.s 			page 38


 1223              		@ frame_needed = 0, uses_anonymous_args = 0
 1224              		.loc 1 668 1 is_stmt 0 view .LVU395
 1225 0000 2DE9F843 		push	{r3, r4, r5, r6, r7, r8, r9, lr}
 1226              	.LCFI15:
 1227              		.cfi_def_cfa_offset 32
 1228              		.cfi_offset 3, -32
 1229              		.cfi_offset 4, -28
 1230              		.cfi_offset 5, -24
 1231              		.cfi_offset 6, -20
 1232              		.cfi_offset 7, -16
 1233              		.cfi_offset 8, -12
 1234              		.cfi_offset 9, -8
 1235              		.cfi_offset 14, -4
 1236 0004 0646     		mov	r6, r0
 1237 0006 8846     		mov	r8, r1
 669:Middlewares/ST/STM32_USB_Device_Library/Class/MSC/Src/usbd_msc_scsi.c ****   USBD_MSC_BOT_HandleTypeDef *hmsc = (USBD_MSC_BOT_HandleTypeDef *) pdev->pClassData;
 1238              		.loc 1 669 3 is_stmt 1 view .LVU396
 1239              		.loc 1 669 31 is_stmt 0 view .LVU397
 1240 0008 D0F8B842 		ldr	r4, [r0, #696]
 1241              	.LVL110:
 670:Middlewares/ST/STM32_USB_Device_Library/Class/MSC/Src/usbd_msc_scsi.c ****   uint32_t len = hmsc->scsi_blk_len * hmsc->scsi_blk_size;
 1242              		.loc 1 670 3 is_stmt 1 view .LVU398
 1243              		.loc 1 670 22 is_stmt 0 view .LVU399
 1244 000c D4F86852 		ldr	r5, [r4, #616]
 1245              		.loc 1 670 43 view .LVU400
 1246 0010 B4F85E32 		ldrh	r3, [r4, #606]
 1247              		.loc 1 670 12 view .LVU401
 1248 0014 03FB05F5 		mul	r5, r3, r5
 1249              	.LVL111:
 671:Middlewares/ST/STM32_USB_Device_Library/Class/MSC/Src/usbd_msc_scsi.c **** 
 672:Middlewares/ST/STM32_USB_Device_Library/Class/MSC/Src/usbd_msc_scsi.c ****   len = MIN(len, MSC_MEDIA_PACKET);
 1250              		.loc 1 672 3 is_stmt 1 view .LVU402
 1251              		.loc 1 672 7 is_stmt 0 view .LVU403
 1252 0018 B5F5007F 		cmp	r5, #512
 1253 001c 28BF     		it	cs
 1254 001e 4FF40075 		movcs	r5, #512
 1255              	.LVL112:
 673:Middlewares/ST/STM32_USB_Device_Library/Class/MSC/Src/usbd_msc_scsi.c **** 
 674:Middlewares/ST/STM32_USB_Device_Library/Class/MSC/Src/usbd_msc_scsi.c ****   if (((USBD_StorageTypeDef *)pdev->pUserData)->Write(lun, hmsc->bot_data,
 1256              		.loc 1 674 3 is_stmt 1 view .LVU404
 1257              		.loc 1 674 35 is_stmt 0 view .LVU405
 1258 0022 D0F8BC22 		ldr	r2, [r0, #700]
 1259              		.loc 1 674 47 view .LVU406
 1260 0026 D2F81490 		ldr	r9, [r2, #20]
 1261              		.loc 1 674 64 view .LVU407
 1262 002a 04F10C07 		add	r7, r4, #12
 675:Middlewares/ST/STM32_USB_Device_Library/Class/MSC/Src/usbd_msc_scsi.c ****                                                       hmsc->scsi_blk_addr,
 676:Middlewares/ST/STM32_USB_Device_Library/Class/MSC/Src/usbd_msc_scsi.c ****                                                       (len / hmsc->scsi_blk_size)) < 0)
 1263              		.loc 1 676 60 view .LVU408
 1264 002e B5FBF3F3 		udiv	r3, r5, r3
 674:Middlewares/ST/STM32_USB_Device_Library/Class/MSC/Src/usbd_msc_scsi.c ****                                                       hmsc->scsi_blk_addr,
 1265              		.loc 1 674 8 view .LVU409
 1266 0032 9BB2     		uxth	r3, r3
 1267 0034 D4F86422 		ldr	r2, [r4, #612]
 1268 0038 3946     		mov	r1, r7
 1269              	.LVL113:
 674:Middlewares/ST/STM32_USB_Device_Library/Class/MSC/Src/usbd_msc_scsi.c ****                                                       hmsc->scsi_blk_addr,
ARM GAS  C:\Users\Kaa\AppData\Local\Temp\cc61P2Ds.s 			page 39


 1270              		.loc 1 674 8 view .LVU410
 1271 003a 4046     		mov	r0, r8
 1272              	.LVL114:
 674:Middlewares/ST/STM32_USB_Device_Library/Class/MSC/Src/usbd_msc_scsi.c ****                                                       hmsc->scsi_blk_addr,
 1273              		.loc 1 674 8 view .LVU411
 1274 003c C847     		blx	r9
 1275              	.LVL115:
 674:Middlewares/ST/STM32_USB_Device_Library/Class/MSC/Src/usbd_msc_scsi.c ****                                                       hmsc->scsi_blk_addr,
 1276              		.loc 1 674 6 view .LVU412
 1277 003e 0028     		cmp	r0, #0
 1278 0040 1ADB     		blt	.L80
 677:Middlewares/ST/STM32_USB_Device_Library/Class/MSC/Src/usbd_msc_scsi.c ****   {
 678:Middlewares/ST/STM32_USB_Device_Library/Class/MSC/Src/usbd_msc_scsi.c ****     SCSI_SenseCode(pdev, lun, HARDWARE_ERROR, WRITE_FAULT);
 679:Middlewares/ST/STM32_USB_Device_Library/Class/MSC/Src/usbd_msc_scsi.c **** 
 680:Middlewares/ST/STM32_USB_Device_Library/Class/MSC/Src/usbd_msc_scsi.c ****     return -1;
 681:Middlewares/ST/STM32_USB_Device_Library/Class/MSC/Src/usbd_msc_scsi.c ****   }
 682:Middlewares/ST/STM32_USB_Device_Library/Class/MSC/Src/usbd_msc_scsi.c **** 
 683:Middlewares/ST/STM32_USB_Device_Library/Class/MSC/Src/usbd_msc_scsi.c ****   hmsc->scsi_blk_addr += (len / hmsc->scsi_blk_size);
 1279              		.loc 1 683 3 is_stmt 1 view .LVU413
 1280              		.loc 1 683 37 is_stmt 0 view .LVU414
 1281 0042 B4F85E02 		ldrh	r0, [r4, #606]
 1282              		.loc 1 683 31 view .LVU415
 1283 0046 B5FBF0F1 		udiv	r1, r5, r0
 1284              		.loc 1 683 23 view .LVU416
 1285 004a D4F86422 		ldr	r2, [r4, #612]
 1286 004e 0A44     		add	r2, r2, r1
 1287 0050 C4F86422 		str	r2, [r4, #612]
 684:Middlewares/ST/STM32_USB_Device_Library/Class/MSC/Src/usbd_msc_scsi.c ****   hmsc->scsi_blk_len -= (len / hmsc->scsi_blk_size);
 1288              		.loc 1 684 3 is_stmt 1 view .LVU417
 1289              		.loc 1 684 22 is_stmt 0 view .LVU418
 1290 0054 D4F86832 		ldr	r3, [r4, #616]
 1291 0058 5B1A     		subs	r3, r3, r1
 1292 005a C4F86832 		str	r3, [r4, #616]
 685:Middlewares/ST/STM32_USB_Device_Library/Class/MSC/Src/usbd_msc_scsi.c **** 
 686:Middlewares/ST/STM32_USB_Device_Library/Class/MSC/Src/usbd_msc_scsi.c ****   /* case 12 : Ho = Do */
 687:Middlewares/ST/STM32_USB_Device_Library/Class/MSC/Src/usbd_msc_scsi.c ****   hmsc->csw.dDataResidue -= len;
 1293              		.loc 1 687 3 is_stmt 1 view .LVU419
 1294              		.loc 1 687 26 is_stmt 0 view .LVU420
 1295 005e D4F83422 		ldr	r2, [r4, #564]
 1296 0062 551B     		subs	r5, r2, r5
 1297              	.LVL116:
 1298              		.loc 1 687 26 view .LVU421
 1299 0064 C4F83452 		str	r5, [r4, #564]
 688:Middlewares/ST/STM32_USB_Device_Library/Class/MSC/Src/usbd_msc_scsi.c **** 
 689:Middlewares/ST/STM32_USB_Device_Library/Class/MSC/Src/usbd_msc_scsi.c ****   if (hmsc->scsi_blk_len == 0U)
 1300              		.loc 1 689 3 is_stmt 1 view .LVU422
 1301              		.loc 1 689 6 is_stmt 0 view .LVU423
 1302 0068 7BB9     		cbnz	r3, .L78
 690:Middlewares/ST/STM32_USB_Device_Library/Class/MSC/Src/usbd_msc_scsi.c ****   {
 691:Middlewares/ST/STM32_USB_Device_Library/Class/MSC/Src/usbd_msc_scsi.c ****     MSC_BOT_SendCSW(pdev, USBD_CSW_CMD_PASSED);
 1303              		.loc 1 691 5 is_stmt 1 view .LVU424
 1304 006a 0021     		movs	r1, #0
 1305 006c 3046     		mov	r0, r6
 1306 006e FFF7FEFF 		bl	MSC_BOT_SendCSW
 1307              	.LVL117:
 692:Middlewares/ST/STM32_USB_Device_Library/Class/MSC/Src/usbd_msc_scsi.c ****   }
 693:Middlewares/ST/STM32_USB_Device_Library/Class/MSC/Src/usbd_msc_scsi.c ****   else
ARM GAS  C:\Users\Kaa\AppData\Local\Temp\cc61P2Ds.s 			page 40


 694:Middlewares/ST/STM32_USB_Device_Library/Class/MSC/Src/usbd_msc_scsi.c ****   {
 695:Middlewares/ST/STM32_USB_Device_Library/Class/MSC/Src/usbd_msc_scsi.c ****     len = MIN((hmsc->scsi_blk_len * hmsc->scsi_blk_size), MSC_MEDIA_PACKET);
 696:Middlewares/ST/STM32_USB_Device_Library/Class/MSC/Src/usbd_msc_scsi.c ****     /* Prepare EP to Receive next packet */
 697:Middlewares/ST/STM32_USB_Device_Library/Class/MSC/Src/usbd_msc_scsi.c ****     USBD_LL_PrepareReceive(pdev, MSC_EPOUT_ADDR, hmsc->bot_data, len);
 698:Middlewares/ST/STM32_USB_Device_Library/Class/MSC/Src/usbd_msc_scsi.c ****   }
 699:Middlewares/ST/STM32_USB_Device_Library/Class/MSC/Src/usbd_msc_scsi.c **** 
 700:Middlewares/ST/STM32_USB_Device_Library/Class/MSC/Src/usbd_msc_scsi.c ****   return 0;
 1308              		.loc 1 700 10 is_stmt 0 view .LVU425
 1309 0072 0020     		movs	r0, #0
 1310              	.L77:
 701:Middlewares/ST/STM32_USB_Device_Library/Class/MSC/Src/usbd_msc_scsi.c **** }
 1311              		.loc 1 701 1 view .LVU426
 1312 0074 BDE8F883 		pop	{r3, r4, r5, r6, r7, r8, r9, pc}
 1313              	.LVL118:
 1314              	.L80:
 678:Middlewares/ST/STM32_USB_Device_Library/Class/MSC/Src/usbd_msc_scsi.c **** 
 1315              		.loc 1 678 5 is_stmt 1 view .LVU427
 1316 0078 0323     		movs	r3, #3
 1317 007a 0422     		movs	r2, #4
 1318 007c 4146     		mov	r1, r8
 1319 007e 3046     		mov	r0, r6
 1320 0080 FFF7FEFF 		bl	SCSI_SenseCode
 1321              	.LVL119:
 680:Middlewares/ST/STM32_USB_Device_Library/Class/MSC/Src/usbd_msc_scsi.c ****   }
 1322              		.loc 1 680 5 view .LVU428
 680:Middlewares/ST/STM32_USB_Device_Library/Class/MSC/Src/usbd_msc_scsi.c ****   }
 1323              		.loc 1 680 12 is_stmt 0 view .LVU429
 1324 0084 4FF0FF30 		mov	r0, #-1
 1325 0088 F4E7     		b	.L77
 1326              	.LVL120:
 1327              	.L78:
 695:Middlewares/ST/STM32_USB_Device_Library/Class/MSC/Src/usbd_msc_scsi.c ****     /* Prepare EP to Receive next packet */
 1328              		.loc 1 695 5 is_stmt 1 view .LVU430
 695:Middlewares/ST/STM32_USB_Device_Library/Class/MSC/Src/usbd_msc_scsi.c ****     /* Prepare EP to Receive next packet */
 1329              		.loc 1 695 11 is_stmt 0 view .LVU431
 1330 008a 03FB00F3 		mul	r3, r3, r0
 695:Middlewares/ST/STM32_USB_Device_Library/Class/MSC/Src/usbd_msc_scsi.c ****     /* Prepare EP to Receive next packet */
 1331              		.loc 1 695 9 view .LVU432
 1332 008e B3F5007F 		cmp	r3, #512
 1333 0092 28BF     		it	cs
 1334 0094 4FF40073 		movcs	r3, #512
 1335              	.LVL121:
 697:Middlewares/ST/STM32_USB_Device_Library/Class/MSC/Src/usbd_msc_scsi.c ****   }
 1336              		.loc 1 697 5 is_stmt 1 view .LVU433
 1337 0098 9BB2     		uxth	r3, r3
 1338              	.LVL122:
 697:Middlewares/ST/STM32_USB_Device_Library/Class/MSC/Src/usbd_msc_scsi.c ****   }
 1339              		.loc 1 697 5 is_stmt 0 view .LVU434
 1340 009a 3A46     		mov	r2, r7
 1341 009c 0121     		movs	r1, #1
 1342 009e 3046     		mov	r0, r6
 1343              	.LVL123:
 697:Middlewares/ST/STM32_USB_Device_Library/Class/MSC/Src/usbd_msc_scsi.c ****   }
 1344              		.loc 1 697 5 view .LVU435
 1345 00a0 FFF7FEFF 		bl	USBD_LL_PrepareReceive
 1346              	.LVL124:
 700:Middlewares/ST/STM32_USB_Device_Library/Class/MSC/Src/usbd_msc_scsi.c **** }
ARM GAS  C:\Users\Kaa\AppData\Local\Temp\cc61P2Ds.s 			page 41


 1347              		.loc 1 700 10 view .LVU436
 1348 00a4 0020     		movs	r0, #0
 1349 00a6 E5E7     		b	.L77
 1350              		.cfi_endproc
 1351              	.LFE416:
 1353              		.section	.text.SCSI_Write10,"ax",%progbits
 1354              		.align	1
 1355              		.syntax unified
 1356              		.thumb
 1357              		.thumb_func
 1358              		.fpu softvfp
 1360              	SCSI_Write10:
 1361              	.LVL125:
 1362              	.LFB412:
 510:Middlewares/ST/STM32_USB_Device_Library/Class/MSC/Src/usbd_msc_scsi.c ****   USBD_MSC_BOT_HandleTypeDef  *hmsc = (USBD_MSC_BOT_HandleTypeDef *) pdev->pClassData;
 1363              		.loc 1 510 1 is_stmt 1 view -0
 1364              		.cfi_startproc
 1365              		@ args = 0, pretend = 0, frame = 0
 1366              		@ frame_needed = 0, uses_anonymous_args = 0
 510:Middlewares/ST/STM32_USB_Device_Library/Class/MSC/Src/usbd_msc_scsi.c ****   USBD_MSC_BOT_HandleTypeDef  *hmsc = (USBD_MSC_BOT_HandleTypeDef *) pdev->pClassData;
 1367              		.loc 1 510 1 is_stmt 0 view .LVU438
 1368 0000 2DE9F041 		push	{r4, r5, r6, r7, r8, lr}
 1369              	.LCFI16:
 1370              		.cfi_def_cfa_offset 24
 1371              		.cfi_offset 4, -24
 1372              		.cfi_offset 5, -20
 1373              		.cfi_offset 6, -16
 1374              		.cfi_offset 7, -12
 1375              		.cfi_offset 8, -8
 1376              		.cfi_offset 14, -4
 1377 0004 0646     		mov	r6, r0
 1378 0006 0F46     		mov	r7, r1
 511:Middlewares/ST/STM32_USB_Device_Library/Class/MSC/Src/usbd_msc_scsi.c ****   uint32_t len;
 1379              		.loc 1 511 3 is_stmt 1 view .LVU439
 511:Middlewares/ST/STM32_USB_Device_Library/Class/MSC/Src/usbd_msc_scsi.c ****   uint32_t len;
 1380              		.loc 1 511 32 is_stmt 0 view .LVU440
 1381 0008 D0F8B842 		ldr	r4, [r0, #696]
 1382              	.LVL126:
 512:Middlewares/ST/STM32_USB_Device_Library/Class/MSC/Src/usbd_msc_scsi.c **** 
 1383              		.loc 1 512 3 is_stmt 1 view .LVU441
 514:Middlewares/ST/STM32_USB_Device_Library/Class/MSC/Src/usbd_msc_scsi.c ****   {
 1384              		.loc 1 514 3 view .LVU442
 514:Middlewares/ST/STM32_USB_Device_Library/Class/MSC/Src/usbd_msc_scsi.c ****   {
 1385              		.loc 1 514 11 is_stmt 0 view .LVU443
 1386 000c 237A     		ldrb	r3, [r4, #8]	@ zero_extendqisi2
 514:Middlewares/ST/STM32_USB_Device_Library/Class/MSC/Src/usbd_msc_scsi.c ****   {
 1387              		.loc 1 514 6 view .LVU444
 1388 000e 002B     		cmp	r3, #0
 1389 0010 6AD1     		bne	.L82
 1390 0012 1546     		mov	r5, r2
 517:Middlewares/ST/STM32_USB_Device_Library/Class/MSC/Src/usbd_msc_scsi.c ****     {
 1391              		.loc 1 517 5 is_stmt 1 view .LVU445
 517:Middlewares/ST/STM32_USB_Device_Library/Class/MSC/Src/usbd_msc_scsi.c ****     {
 1392              		.loc 1 517 37 is_stmt 0 view .LVU446
 1393 0014 94F91832 		ldrsb	r3, [r4, #536]
 517:Middlewares/ST/STM32_USB_Device_Library/Class/MSC/Src/usbd_msc_scsi.c ****     {
 1394              		.loc 1 517 8 view .LVU447
ARM GAS  C:\Users\Kaa\AppData\Local\Temp\cc61P2Ds.s 			page 42


 1395 0018 002B     		cmp	r3, #0
 1396 001a 40DB     		blt	.L90
 524:Middlewares/ST/STM32_USB_Device_Library/Class/MSC/Src/usbd_msc_scsi.c ****     {
 1397              		.loc 1 524 5 is_stmt 1 view .LVU448
 524:Middlewares/ST/STM32_USB_Device_Library/Class/MSC/Src/usbd_msc_scsi.c ****     {
 1398              		.loc 1 524 37 is_stmt 0 view .LVU449
 1399 001c D0F8BC32 		ldr	r3, [r0, #700]
 524:Middlewares/ST/STM32_USB_Device_Library/Class/MSC/Src/usbd_msc_scsi.c ****     {
 1400              		.loc 1 524 49 view .LVU450
 1401 0020 9B68     		ldr	r3, [r3, #8]
 524:Middlewares/ST/STM32_USB_Device_Library/Class/MSC/Src/usbd_msc_scsi.c ****     {
 1402              		.loc 1 524 10 view .LVU451
 1403 0022 0846     		mov	r0, r1
 1404              	.LVL127:
 524:Middlewares/ST/STM32_USB_Device_Library/Class/MSC/Src/usbd_msc_scsi.c ****     {
 1405              		.loc 1 524 10 view .LVU452
 1406 0024 9847     		blx	r3
 1407              	.LVL128:
 524:Middlewares/ST/STM32_USB_Device_Library/Class/MSC/Src/usbd_msc_scsi.c ****     {
 1408              		.loc 1 524 8 view .LVU453
 1409 0026 0028     		cmp	r0, #0
 1410 0028 42D1     		bne	.L91
 531:Middlewares/ST/STM32_USB_Device_Library/Class/MSC/Src/usbd_msc_scsi.c ****     {
 1411              		.loc 1 531 5 is_stmt 1 view .LVU454
 531:Middlewares/ST/STM32_USB_Device_Library/Class/MSC/Src/usbd_msc_scsi.c ****     {
 1412              		.loc 1 531 37 is_stmt 0 view .LVU455
 1413 002a D6F8BC32 		ldr	r3, [r6, #700]
 531:Middlewares/ST/STM32_USB_Device_Library/Class/MSC/Src/usbd_msc_scsi.c ****     {
 1414              		.loc 1 531 49 view .LVU456
 1415 002e DB68     		ldr	r3, [r3, #12]
 531:Middlewares/ST/STM32_USB_Device_Library/Class/MSC/Src/usbd_msc_scsi.c ****     {
 1416              		.loc 1 531 10 view .LVU457
 1417 0030 3846     		mov	r0, r7
 1418 0032 9847     		blx	r3
 1419              	.LVL129:
 531:Middlewares/ST/STM32_USB_Device_Library/Class/MSC/Src/usbd_msc_scsi.c ****     {
 1420              		.loc 1 531 8 view .LVU458
 1421 0034 8046     		mov	r8, r0
 1422 0036 0028     		cmp	r0, #0
 1423 0038 43D1     		bne	.L92
 537:Middlewares/ST/STM32_USB_Device_Library/Class/MSC/Src/usbd_msc_scsi.c ****                           ((uint32_t)params[3] << 16) |
 1424              		.loc 1 537 5 is_stmt 1 view .LVU459
 537:Middlewares/ST/STM32_USB_Device_Library/Class/MSC/Src/usbd_msc_scsi.c ****                           ((uint32_t)params[3] << 16) |
 1425              		.loc 1 537 44 is_stmt 0 view .LVU460
 1426 003a AB78     		ldrb	r3, [r5, #2]	@ zero_extendqisi2
 538:Middlewares/ST/STM32_USB_Device_Library/Class/MSC/Src/usbd_msc_scsi.c ****                           ((uint32_t)params[4] << 8) |
 1427              		.loc 1 538 44 view .LVU461
 1428 003c EA78     		ldrb	r2, [r5, #3]	@ zero_extendqisi2
 538:Middlewares/ST/STM32_USB_Device_Library/Class/MSC/Src/usbd_msc_scsi.c ****                           ((uint32_t)params[4] << 8) |
 1429              		.loc 1 538 48 view .LVU462
 1430 003e 1204     		lsls	r2, r2, #16
 537:Middlewares/ST/STM32_USB_Device_Library/Class/MSC/Src/usbd_msc_scsi.c ****                           ((uint32_t)params[3] << 16) |
 1431              		.loc 1 537 55 view .LVU463
 1432 0040 42EA0362 		orr	r2, r2, r3, lsl #24
 539:Middlewares/ST/STM32_USB_Device_Library/Class/MSC/Src/usbd_msc_scsi.c ****                           (uint32_t)params[5];
 1433              		.loc 1 539 44 view .LVU464
 1434 0044 2B79     		ldrb	r3, [r5, #4]	@ zero_extendqisi2
ARM GAS  C:\Users\Kaa\AppData\Local\Temp\cc61P2Ds.s 			page 43


 538:Middlewares/ST/STM32_USB_Device_Library/Class/MSC/Src/usbd_msc_scsi.c ****                           ((uint32_t)params[4] << 8) |
 1435              		.loc 1 538 55 view .LVU465
 1436 0046 42EA0322 		orr	r2, r2, r3, lsl #8
 540:Middlewares/ST/STM32_USB_Device_Library/Class/MSC/Src/usbd_msc_scsi.c **** 
 1437              		.loc 1 540 43 view .LVU466
 1438 004a 6B79     		ldrb	r3, [r5, #5]	@ zero_extendqisi2
 539:Middlewares/ST/STM32_USB_Device_Library/Class/MSC/Src/usbd_msc_scsi.c ****                           (uint32_t)params[5];
 1439              		.loc 1 539 54 view .LVU467
 1440 004c 1A43     		orrs	r2, r2, r3
 537:Middlewares/ST/STM32_USB_Device_Library/Class/MSC/Src/usbd_msc_scsi.c ****                           ((uint32_t)params[3] << 16) |
 1441              		.loc 1 537 25 view .LVU468
 1442 004e C4F86422 		str	r2, [r4, #612]
 542:Middlewares/ST/STM32_USB_Device_Library/Class/MSC/Src/usbd_msc_scsi.c ****                          (uint32_t)params[8];
 1443              		.loc 1 542 5 is_stmt 1 view .LVU469
 542:Middlewares/ST/STM32_USB_Device_Library/Class/MSC/Src/usbd_msc_scsi.c ****                          (uint32_t)params[8];
 1444              		.loc 1 542 43 is_stmt 0 view .LVU470
 1445 0052 E979     		ldrb	r1, [r5, #7]	@ zero_extendqisi2
 543:Middlewares/ST/STM32_USB_Device_Library/Class/MSC/Src/usbd_msc_scsi.c **** 
 1446              		.loc 1 543 42 view .LVU471
 1447 0054 2B7A     		ldrb	r3, [r5, #8]	@ zero_extendqisi2
 542:Middlewares/ST/STM32_USB_Device_Library/Class/MSC/Src/usbd_msc_scsi.c ****                          (uint32_t)params[8];
 1448              		.loc 1 542 53 view .LVU472
 1449 0056 43EA0123 		orr	r3, r3, r1, lsl #8
 542:Middlewares/ST/STM32_USB_Device_Library/Class/MSC/Src/usbd_msc_scsi.c ****                          (uint32_t)params[8];
 1450              		.loc 1 542 24 view .LVU473
 1451 005a C4F86832 		str	r3, [r4, #616]
 546:Middlewares/ST/STM32_USB_Device_Library/Class/MSC/Src/usbd_msc_scsi.c ****                                hmsc->scsi_blk_len) < 0)
 1452              		.loc 1 546 5 is_stmt 1 view .LVU474
 546:Middlewares/ST/STM32_USB_Device_Library/Class/MSC/Src/usbd_msc_scsi.c ****                                hmsc->scsi_blk_len) < 0)
 1453              		.loc 1 546 9 is_stmt 0 view .LVU475
 1454 005e 3946     		mov	r1, r7
 1455 0060 3046     		mov	r0, r6
 1456 0062 FFF7FEFF 		bl	SCSI_CheckAddressRange
 1457              	.LVL130:
 546:Middlewares/ST/STM32_USB_Device_Library/Class/MSC/Src/usbd_msc_scsi.c ****                                hmsc->scsi_blk_len) < 0)
 1458              		.loc 1 546 8 view .LVU476
 1459 0066 0028     		cmp	r0, #0
 1460 0068 42DB     		blt	.L88
 552:Middlewares/ST/STM32_USB_Device_Library/Class/MSC/Src/usbd_msc_scsi.c **** 
 1461              		.loc 1 552 5 is_stmt 1 view .LVU477
 552:Middlewares/ST/STM32_USB_Device_Library/Class/MSC/Src/usbd_msc_scsi.c **** 
 1462              		.loc 1 552 15 is_stmt 0 view .LVU478
 1463 006a D4F86822 		ldr	r2, [r4, #616]
 552:Middlewares/ST/STM32_USB_Device_Library/Class/MSC/Src/usbd_msc_scsi.c **** 
 1464              		.loc 1 552 36 view .LVU479
 1465 006e B4F85E32 		ldrh	r3, [r4, #606]
 552:Middlewares/ST/STM32_USB_Device_Library/Class/MSC/Src/usbd_msc_scsi.c **** 
 1466              		.loc 1 552 9 view .LVU480
 1467 0072 03FB02F3 		mul	r3, r3, r2
 1468              	.LVL131:
 555:Middlewares/ST/STM32_USB_Device_Library/Class/MSC/Src/usbd_msc_scsi.c ****     {
 1469              		.loc 1 555 5 is_stmt 1 view .LVU481
 555:Middlewares/ST/STM32_USB_Device_Library/Class/MSC/Src/usbd_msc_scsi.c ****     {
 1470              		.loc 1 555 18 is_stmt 0 view .LVU482
 1471 0076 D4F81422 		ldr	r2, [r4, #532]
 555:Middlewares/ST/STM32_USB_Device_Library/Class/MSC/Src/usbd_msc_scsi.c ****     {
 1472              		.loc 1 555 8 view .LVU483
ARM GAS  C:\Users\Kaa\AppData\Local\Temp\cc61P2Ds.s 			page 44


 1473 007a 9A42     		cmp	r2, r3
 1474 007c 2AD1     		bne	.L93
 561:Middlewares/ST/STM32_USB_Device_Library/Class/MSC/Src/usbd_msc_scsi.c **** 
 1475              		.loc 1 561 5 is_stmt 1 view .LVU484
 561:Middlewares/ST/STM32_USB_Device_Library/Class/MSC/Src/usbd_msc_scsi.c **** 
 1476              		.loc 1 561 9 is_stmt 0 view .LVU485
 1477 007e B3F5007F 		cmp	r3, #512
 1478 0082 28BF     		it	cs
 1479 0084 4FF40073 		movcs	r3, #512
 1480              	.LVL132:
 564:Middlewares/ST/STM32_USB_Device_Library/Class/MSC/Src/usbd_msc_scsi.c ****     USBD_LL_PrepareReceive(pdev, MSC_EPOUT_ADDR, hmsc->bot_data, len);
 1481              		.loc 1 564 5 is_stmt 1 view .LVU486
 564:Middlewares/ST/STM32_USB_Device_Library/Class/MSC/Src/usbd_msc_scsi.c ****     USBD_LL_PrepareReceive(pdev, MSC_EPOUT_ADDR, hmsc->bot_data, len);
 1482              		.loc 1 564 21 is_stmt 0 view .LVU487
 1483 0088 0121     		movs	r1, #1
 1484 008a 2172     		strb	r1, [r4, #8]
 565:Middlewares/ST/STM32_USB_Device_Library/Class/MSC/Src/usbd_msc_scsi.c ****   }
 1485              		.loc 1 565 5 is_stmt 1 view .LVU488
 1486 008c 9BB2     		uxth	r3, r3
 1487              	.LVL133:
 565:Middlewares/ST/STM32_USB_Device_Library/Class/MSC/Src/usbd_msc_scsi.c ****   }
 1488              		.loc 1 565 5 is_stmt 0 view .LVU489
 1489 008e 04F10C02 		add	r2, r4, #12
 1490 0092 3046     		mov	r0, r6
 1491 0094 FFF7FEFF 		bl	USBD_LL_PrepareReceive
 1492              	.LVL134:
 571:Middlewares/ST/STM32_USB_Device_Library/Class/MSC/Src/usbd_msc_scsi.c **** }
 1493              		.loc 1 571 3 is_stmt 1 view .LVU490
 1494              	.L84:
 572:Middlewares/ST/STM32_USB_Device_Library/Class/MSC/Src/usbd_msc_scsi.c **** 
 1495              		.loc 1 572 1 is_stmt 0 view .LVU491
 1496 0098 4046     		mov	r0, r8
 1497 009a BDE8F081 		pop	{r4, r5, r6, r7, r8, pc}
 1498              	.LVL135:
 1499              	.L90:
 519:Middlewares/ST/STM32_USB_Device_Library/Class/MSC/Src/usbd_msc_scsi.c ****       return -1;
 1500              		.loc 1 519 7 is_stmt 1 view .LVU492
 1501 009e 2023     		movs	r3, #32
 1502 00a0 0522     		movs	r2, #5
 1503              	.LVL136:
 519:Middlewares/ST/STM32_USB_Device_Library/Class/MSC/Src/usbd_msc_scsi.c ****       return -1;
 1504              		.loc 1 519 7 is_stmt 0 view .LVU493
 1505 00a2 94F81912 		ldrb	r1, [r4, #537]	@ zero_extendqisi2
 1506              	.LVL137:
 519:Middlewares/ST/STM32_USB_Device_Library/Class/MSC/Src/usbd_msc_scsi.c ****       return -1;
 1507              		.loc 1 519 7 view .LVU494
 1508 00a6 FFF7FEFF 		bl	SCSI_SenseCode
 1509              	.LVL138:
 520:Middlewares/ST/STM32_USB_Device_Library/Class/MSC/Src/usbd_msc_scsi.c ****     }
 1510              		.loc 1 520 7 is_stmt 1 view .LVU495
 520:Middlewares/ST/STM32_USB_Device_Library/Class/MSC/Src/usbd_msc_scsi.c ****     }
 1511              		.loc 1 520 14 is_stmt 0 view .LVU496
 1512 00aa 4FF0FF38 		mov	r8, #-1
 1513 00ae F3E7     		b	.L84
 1514              	.L91:
 526:Middlewares/ST/STM32_USB_Device_Library/Class/MSC/Src/usbd_msc_scsi.c ****       return -1;
 1515              		.loc 1 526 7 is_stmt 1 view .LVU497
ARM GAS  C:\Users\Kaa\AppData\Local\Temp\cc61P2Ds.s 			page 45


 1516 00b0 3A23     		movs	r3, #58
 1517 00b2 0222     		movs	r2, #2
 1518 00b4 3946     		mov	r1, r7
 1519 00b6 3046     		mov	r0, r6
 1520 00b8 FFF7FEFF 		bl	SCSI_SenseCode
 1521              	.LVL139:
 527:Middlewares/ST/STM32_USB_Device_Library/Class/MSC/Src/usbd_msc_scsi.c ****     }
 1522              		.loc 1 527 7 view .LVU498
 527:Middlewares/ST/STM32_USB_Device_Library/Class/MSC/Src/usbd_msc_scsi.c ****     }
 1523              		.loc 1 527 14 is_stmt 0 view .LVU499
 1524 00bc 4FF0FF38 		mov	r8, #-1
 1525 00c0 EAE7     		b	.L84
 1526              	.L92:
 533:Middlewares/ST/STM32_USB_Device_Library/Class/MSC/Src/usbd_msc_scsi.c ****       return -1;
 1527              		.loc 1 533 7 is_stmt 1 view .LVU500
 1528 00c2 2723     		movs	r3, #39
 1529 00c4 0222     		movs	r2, #2
 1530 00c6 3946     		mov	r1, r7
 1531 00c8 3046     		mov	r0, r6
 1532 00ca FFF7FEFF 		bl	SCSI_SenseCode
 1533              	.LVL140:
 534:Middlewares/ST/STM32_USB_Device_Library/Class/MSC/Src/usbd_msc_scsi.c ****     }
 1534              		.loc 1 534 7 view .LVU501
 534:Middlewares/ST/STM32_USB_Device_Library/Class/MSC/Src/usbd_msc_scsi.c ****     }
 1535              		.loc 1 534 14 is_stmt 0 view .LVU502
 1536 00ce 4FF0FF38 		mov	r8, #-1
 1537 00d2 E1E7     		b	.L84
 1538              	.LVL141:
 1539              	.L93:
 557:Middlewares/ST/STM32_USB_Device_Library/Class/MSC/Src/usbd_msc_scsi.c ****       return -1;
 1540              		.loc 1 557 7 is_stmt 1 view .LVU503
 1541 00d4 2023     		movs	r3, #32
 1542              	.LVL142:
 557:Middlewares/ST/STM32_USB_Device_Library/Class/MSC/Src/usbd_msc_scsi.c ****       return -1;
 1543              		.loc 1 557 7 is_stmt 0 view .LVU504
 1544 00d6 0522     		movs	r2, #5
 1545 00d8 94F81912 		ldrb	r1, [r4, #537]	@ zero_extendqisi2
 1546 00dc 3046     		mov	r0, r6
 1547 00de FFF7FEFF 		bl	SCSI_SenseCode
 1548              	.LVL143:
 558:Middlewares/ST/STM32_USB_Device_Library/Class/MSC/Src/usbd_msc_scsi.c ****     }
 1549              		.loc 1 558 7 is_stmt 1 view .LVU505
 558:Middlewares/ST/STM32_USB_Device_Library/Class/MSC/Src/usbd_msc_scsi.c ****     }
 1550              		.loc 1 558 14 is_stmt 0 view .LVU506
 1551 00e2 4FF0FF38 		mov	r8, #-1
 1552 00e6 D7E7     		b	.L84
 1553              	.LVL144:
 1554              	.L82:
 569:Middlewares/ST/STM32_USB_Device_Library/Class/MSC/Src/usbd_msc_scsi.c ****   }
 1555              		.loc 1 569 5 is_stmt 1 view .LVU507
 569:Middlewares/ST/STM32_USB_Device_Library/Class/MSC/Src/usbd_msc_scsi.c ****   }
 1556              		.loc 1 569 12 is_stmt 0 view .LVU508
 1557 00e8 FFF7FEFF 		bl	SCSI_ProcessWrite
 1558              	.LVL145:
 569:Middlewares/ST/STM32_USB_Device_Library/Class/MSC/Src/usbd_msc_scsi.c ****   }
 1559              		.loc 1 569 12 view .LVU509
 1560 00ec 8046     		mov	r8, r0
ARM GAS  C:\Users\Kaa\AppData\Local\Temp\cc61P2Ds.s 			page 46


 1561 00ee D3E7     		b	.L84
 1562              	.LVL146:
 1563              	.L88:
 549:Middlewares/ST/STM32_USB_Device_Library/Class/MSC/Src/usbd_msc_scsi.c ****     }
 1564              		.loc 1 549 14 view .LVU510
 1565 00f0 4FF0FF38 		mov	r8, #-1
 1566 00f4 D0E7     		b	.L84
 1567              		.cfi_endproc
 1568              	.LFE412:
 1570              		.section	.text.SCSI_Verify10,"ax",%progbits
 1571              		.align	1
 1572              		.syntax unified
 1573              		.thumb
 1574              		.thumb_func
 1575              		.fpu softvfp
 1577              	SCSI_Verify10:
 1578              	.LVL147:
 1579              	.LFB413:
 584:Middlewares/ST/STM32_USB_Device_Library/Class/MSC/Src/usbd_msc_scsi.c ****   USBD_MSC_BOT_HandleTypeDef  *hmsc = (USBD_MSC_BOT_HandleTypeDef *) pdev->pClassData;
 1580              		.loc 1 584 1 is_stmt 1 view -0
 1581              		.cfi_startproc
 1582              		@ args = 0, pretend = 0, frame = 0
 1583              		@ frame_needed = 0, uses_anonymous_args = 0
 584:Middlewares/ST/STM32_USB_Device_Library/Class/MSC/Src/usbd_msc_scsi.c ****   USBD_MSC_BOT_HandleTypeDef  *hmsc = (USBD_MSC_BOT_HandleTypeDef *) pdev->pClassData;
 1584              		.loc 1 584 1 is_stmt 0 view .LVU512
 1585 0000 10B5     		push	{r4, lr}
 1586              	.LCFI17:
 1587              		.cfi_def_cfa_offset 8
 1588              		.cfi_offset 4, -8
 1589              		.cfi_offset 14, -4
 585:Middlewares/ST/STM32_USB_Device_Library/Class/MSC/Src/usbd_msc_scsi.c **** 
 1590              		.loc 1 585 3 is_stmt 1 view .LVU513
 585:Middlewares/ST/STM32_USB_Device_Library/Class/MSC/Src/usbd_msc_scsi.c **** 
 1591              		.loc 1 585 32 is_stmt 0 view .LVU514
 1592 0002 D0F8B842 		ldr	r4, [r0, #696]
 1593              	.LVL148:
 587:Middlewares/ST/STM32_USB_Device_Library/Class/MSC/Src/usbd_msc_scsi.c ****   {
 1594              		.loc 1 587 3 is_stmt 1 view .LVU515
 587:Middlewares/ST/STM32_USB_Device_Library/Class/MSC/Src/usbd_msc_scsi.c ****   {
 1595              		.loc 1 587 14 is_stmt 0 view .LVU516
 1596 0006 5378     		ldrb	r3, [r2, #1]	@ zero_extendqisi2
 587:Middlewares/ST/STM32_USB_Device_Library/Class/MSC/Src/usbd_msc_scsi.c ****   {
 1597              		.loc 1 587 6 view .LVU517
 1598 0008 13F0020F 		tst	r3, #2
 1599 000c 0AD1     		bne	.L99
 593:Middlewares/ST/STM32_USB_Device_Library/Class/MSC/Src/usbd_msc_scsi.c ****                              hmsc->scsi_blk_len) < 0)
 1600              		.loc 1 593 3 is_stmt 1 view .LVU518
 593:Middlewares/ST/STM32_USB_Device_Library/Class/MSC/Src/usbd_msc_scsi.c ****                              hmsc->scsi_blk_len) < 0)
 1601              		.loc 1 593 7 is_stmt 0 view .LVU519
 1602 000e D4F86832 		ldr	r3, [r4, #616]
 1603 0012 D4F86422 		ldr	r2, [r4, #612]
 1604              	.LVL149:
 593:Middlewares/ST/STM32_USB_Device_Library/Class/MSC/Src/usbd_msc_scsi.c ****                              hmsc->scsi_blk_len) < 0)
 1605              		.loc 1 593 7 view .LVU520
 1606 0016 FFF7FEFF 		bl	SCSI_CheckAddressRange
 1607              	.LVL150:
 593:Middlewares/ST/STM32_USB_Device_Library/Class/MSC/Src/usbd_msc_scsi.c ****                              hmsc->scsi_blk_len) < 0)
ARM GAS  C:\Users\Kaa\AppData\Local\Temp\cc61P2Ds.s 			page 47


 1608              		.loc 1 593 6 view .LVU521
 1609 001a 0028     		cmp	r0, #0
 1610 001c 09DB     		blt	.L97
 598:Middlewares/ST/STM32_USB_Device_Library/Class/MSC/Src/usbd_msc_scsi.c ****   return 0;
 1611              		.loc 1 598 3 is_stmt 1 view .LVU522
 598:Middlewares/ST/STM32_USB_Device_Library/Class/MSC/Src/usbd_msc_scsi.c ****   return 0;
 1612              		.loc 1 598 25 is_stmt 0 view .LVU523
 1613 001e 0020     		movs	r0, #0
 1614 0020 6081     		strh	r0, [r4, #10]	@ movhi
 599:Middlewares/ST/STM32_USB_Device_Library/Class/MSC/Src/usbd_msc_scsi.c **** }
 1615              		.loc 1 599 3 is_stmt 1 view .LVU524
 1616              	.L96:
 600:Middlewares/ST/STM32_USB_Device_Library/Class/MSC/Src/usbd_msc_scsi.c **** 
 1617              		.loc 1 600 1 is_stmt 0 view .LVU525
 1618 0022 10BD     		pop	{r4, pc}
 1619              	.LVL151:
 1620              	.L99:
 589:Middlewares/ST/STM32_USB_Device_Library/Class/MSC/Src/usbd_msc_scsi.c ****     return -1; /* Error, Verify Mode Not supported*/
 1621              		.loc 1 589 5 is_stmt 1 view .LVU526
 1622 0024 2423     		movs	r3, #36
 1623 0026 0522     		movs	r2, #5
 1624              	.LVL152:
 589:Middlewares/ST/STM32_USB_Device_Library/Class/MSC/Src/usbd_msc_scsi.c ****     return -1; /* Error, Verify Mode Not supported*/
 1625              		.loc 1 589 5 is_stmt 0 view .LVU527
 1626 0028 FFF7FEFF 		bl	SCSI_SenseCode
 1627              	.LVL153:
 590:Middlewares/ST/STM32_USB_Device_Library/Class/MSC/Src/usbd_msc_scsi.c ****   }
 1628              		.loc 1 590 5 is_stmt 1 view .LVU528
 590:Middlewares/ST/STM32_USB_Device_Library/Class/MSC/Src/usbd_msc_scsi.c ****   }
 1629              		.loc 1 590 12 is_stmt 0 view .LVU529
 1630 002c 4FF0FF30 		mov	r0, #-1
 1631 0030 F7E7     		b	.L96
 1632              	.L97:
 596:Middlewares/ST/STM32_USB_Device_Library/Class/MSC/Src/usbd_msc_scsi.c ****   }
 1633              		.loc 1 596 12 view .LVU530
 1634 0032 4FF0FF30 		mov	r0, #-1
 1635 0036 F4E7     		b	.L96
 1636              		.cfi_endproc
 1637              	.LFE413:
 1639              		.section	.text.SCSI_ProcessCmd,"ax",%progbits
 1640              		.align	1
 1641              		.global	SCSI_ProcessCmd
 1642              		.syntax unified
 1643              		.thumb
 1644              		.thumb_func
 1645              		.fpu softvfp
 1647              	SCSI_ProcessCmd:
 1648              	.LVL154:
 1649              	.LFB401:
 116:Middlewares/ST/STM32_USB_Device_Library/Class/MSC/Src/usbd_msc_scsi.c ****   switch (cmd[0])
 1650              		.loc 1 116 1 is_stmt 1 view -0
 1651              		.cfi_startproc
 1652              		@ args = 0, pretend = 0, frame = 0
 1653              		@ frame_needed = 0, uses_anonymous_args = 0
 116:Middlewares/ST/STM32_USB_Device_Library/Class/MSC/Src/usbd_msc_scsi.c ****   switch (cmd[0])
 1654              		.loc 1 116 1 is_stmt 0 view .LVU532
 1655 0000 08B5     		push	{r3, lr}
ARM GAS  C:\Users\Kaa\AppData\Local\Temp\cc61P2Ds.s 			page 48


 1656              	.LCFI18:
 1657              		.cfi_def_cfa_offset 8
 1658              		.cfi_offset 3, -8
 1659              		.cfi_offset 14, -4
 117:Middlewares/ST/STM32_USB_Device_Library/Class/MSC/Src/usbd_msc_scsi.c ****   {
 1660              		.loc 1 117 3 is_stmt 1 view .LVU533
 117:Middlewares/ST/STM32_USB_Device_Library/Class/MSC/Src/usbd_msc_scsi.c ****   {
 1661              		.loc 1 117 14 is_stmt 0 view .LVU534
 1662 0002 1378     		ldrb	r3, [r2]	@ zero_extendqisi2
 117:Middlewares/ST/STM32_USB_Device_Library/Class/MSC/Src/usbd_msc_scsi.c ****   {
 1663              		.loc 1 117 3 view .LVU535
 1664 0004 5A2B     		cmp	r3, #90
 1665 0006 5FD8     		bhi	.L101
 1666 0008 DFE803F0 		tbb	[pc, r3]
 1667              	.L103:
 1668 000c 2E       		.byte	(.L114-.L103)/2
 1669 000d 5E       		.byte	(.L101-.L103)/2
 1670 000e 5E       		.byte	(.L101-.L103)/2
 1671 000f 32       		.byte	(.L113-.L103)/2
 1672 0010 5E       		.byte	(.L101-.L103)/2
 1673 0011 5E       		.byte	(.L101-.L103)/2
 1674 0012 5E       		.byte	(.L101-.L103)/2
 1675 0013 5E       		.byte	(.L101-.L103)/2
 1676 0014 5E       		.byte	(.L101-.L103)/2
 1677 0015 5E       		.byte	(.L101-.L103)/2
 1678 0016 5E       		.byte	(.L101-.L103)/2
 1679 0017 5E       		.byte	(.L101-.L103)/2
 1680 0018 5E       		.byte	(.L101-.L103)/2
 1681 0019 5E       		.byte	(.L101-.L103)/2
 1682 001a 5E       		.byte	(.L101-.L103)/2
 1683 001b 5E       		.byte	(.L101-.L103)/2
 1684 001c 5E       		.byte	(.L101-.L103)/2
 1685 001d 5E       		.byte	(.L101-.L103)/2
 1686 001e 36       		.byte	(.L112-.L103)/2
 1687 001f 5E       		.byte	(.L101-.L103)/2
 1688 0020 5E       		.byte	(.L101-.L103)/2
 1689 0021 5E       		.byte	(.L101-.L103)/2
 1690 0022 5E       		.byte	(.L101-.L103)/2
 1691 0023 5E       		.byte	(.L101-.L103)/2
 1692 0024 5E       		.byte	(.L101-.L103)/2
 1693 0025 5E       		.byte	(.L101-.L103)/2
 1694 0026 42       		.byte	(.L111-.L103)/2
 1695 0027 3A       		.byte	(.L110-.L103)/2
 1696 0028 5E       		.byte	(.L101-.L103)/2
 1697 0029 5E       		.byte	(.L101-.L103)/2
 1698 002a 3E       		.byte	(.L109-.L103)/2
 1699 002b 5E       		.byte	(.L101-.L103)/2
 1700 002c 5E       		.byte	(.L101-.L103)/2
 1701 002d 5E       		.byte	(.L101-.L103)/2
 1702 002e 5E       		.byte	(.L101-.L103)/2
 1703 002f 4A       		.byte	(.L108-.L103)/2
 1704 0030 5E       		.byte	(.L101-.L103)/2
 1705 0031 4E       		.byte	(.L107-.L103)/2
 1706 0032 5E       		.byte	(.L101-.L103)/2
 1707 0033 5E       		.byte	(.L101-.L103)/2
 1708 0034 52       		.byte	(.L106-.L103)/2
 1709 0035 5E       		.byte	(.L101-.L103)/2
ARM GAS  C:\Users\Kaa\AppData\Local\Temp\cc61P2Ds.s 			page 49


 1710 0036 56       		.byte	(.L105-.L103)/2
 1711 0037 5E       		.byte	(.L101-.L103)/2
 1712 0038 5E       		.byte	(.L101-.L103)/2
 1713 0039 5E       		.byte	(.L101-.L103)/2
 1714 003a 5E       		.byte	(.L101-.L103)/2
 1715 003b 5A       		.byte	(.L104-.L103)/2
 1716 003c 5E       		.byte	(.L101-.L103)/2
 1717 003d 5E       		.byte	(.L101-.L103)/2
 1718 003e 5E       		.byte	(.L101-.L103)/2
 1719 003f 5E       		.byte	(.L101-.L103)/2
 1720 0040 5E       		.byte	(.L101-.L103)/2
 1721 0041 5E       		.byte	(.L101-.L103)/2
 1722 0042 5E       		.byte	(.L101-.L103)/2
 1723 0043 5E       		.byte	(.L101-.L103)/2
 1724 0044 5E       		.byte	(.L101-.L103)/2
 1725 0045 5E       		.byte	(.L101-.L103)/2
 1726 0046 5E       		.byte	(.L101-.L103)/2
 1727 0047 5E       		.byte	(.L101-.L103)/2
 1728 0048 5E       		.byte	(.L101-.L103)/2
 1729 0049 5E       		.byte	(.L101-.L103)/2
 1730 004a 5E       		.byte	(.L101-.L103)/2
 1731 004b 5E       		.byte	(.L101-.L103)/2
 1732 004c 5E       		.byte	(.L101-.L103)/2
 1733 004d 5E       		.byte	(.L101-.L103)/2
 1734 004e 5E       		.byte	(.L101-.L103)/2
 1735 004f 5E       		.byte	(.L101-.L103)/2
 1736 0050 5E       		.byte	(.L101-.L103)/2
 1737 0051 5E       		.byte	(.L101-.L103)/2
 1738 0052 5E       		.byte	(.L101-.L103)/2
 1739 0053 5E       		.byte	(.L101-.L103)/2
 1740 0054 5E       		.byte	(.L101-.L103)/2
 1741 0055 5E       		.byte	(.L101-.L103)/2
 1742 0056 5E       		.byte	(.L101-.L103)/2
 1743 0057 5E       		.byte	(.L101-.L103)/2
 1744 0058 5E       		.byte	(.L101-.L103)/2
 1745 0059 5E       		.byte	(.L101-.L103)/2
 1746 005a 5E       		.byte	(.L101-.L103)/2
 1747 005b 5E       		.byte	(.L101-.L103)/2
 1748 005c 5E       		.byte	(.L101-.L103)/2
 1749 005d 5E       		.byte	(.L101-.L103)/2
 1750 005e 5E       		.byte	(.L101-.L103)/2
 1751 005f 5E       		.byte	(.L101-.L103)/2
 1752 0060 5E       		.byte	(.L101-.L103)/2
 1753 0061 5E       		.byte	(.L101-.L103)/2
 1754 0062 5E       		.byte	(.L101-.L103)/2
 1755 0063 5E       		.byte	(.L101-.L103)/2
 1756 0064 5E       		.byte	(.L101-.L103)/2
 1757 0065 5E       		.byte	(.L101-.L103)/2
 1758 0066 46       		.byte	(.L102-.L103)/2
 1759 0067 00       		.p2align 1
 1760              	.L114:
 120:Middlewares/ST/STM32_USB_Device_Library/Class/MSC/Src/usbd_msc_scsi.c ****       break;
 1761              		.loc 1 120 7 is_stmt 1 view .LVU536
 1762 0068 FFF7FEFF 		bl	SCSI_TestUnitReady
 1763              	.LVL155:
 121:Middlewares/ST/STM32_USB_Device_Library/Class/MSC/Src/usbd_msc_scsi.c **** 
 1764              		.loc 1 121 7 view .LVU537
ARM GAS  C:\Users\Kaa\AppData\Local\Temp\cc61P2Ds.s 			page 50


 171:Middlewares/ST/STM32_USB_Device_Library/Class/MSC/Src/usbd_msc_scsi.c **** }
 1765              		.loc 1 171 10 is_stmt 0 view .LVU538
 1766 006c 0020     		movs	r0, #0
 1767              	.L115:
 172:Middlewares/ST/STM32_USB_Device_Library/Class/MSC/Src/usbd_msc_scsi.c **** 
 1768              		.loc 1 172 1 view .LVU539
 1769 006e 08BD     		pop	{r3, pc}
 1770              	.LVL156:
 1771              	.L113:
 124:Middlewares/ST/STM32_USB_Device_Library/Class/MSC/Src/usbd_msc_scsi.c ****       break;
 1772              		.loc 1 124 7 is_stmt 1 view .LVU540
 1773 0070 FFF7FEFF 		bl	SCSI_RequestSense
 1774              	.LVL157:
 125:Middlewares/ST/STM32_USB_Device_Library/Class/MSC/Src/usbd_msc_scsi.c ****     case SCSI_INQUIRY:
 1775              		.loc 1 125 7 view .LVU541
 171:Middlewares/ST/STM32_USB_Device_Library/Class/MSC/Src/usbd_msc_scsi.c **** }
 1776              		.loc 1 171 10 is_stmt 0 view .LVU542
 1777 0074 0020     		movs	r0, #0
 125:Middlewares/ST/STM32_USB_Device_Library/Class/MSC/Src/usbd_msc_scsi.c ****     case SCSI_INQUIRY:
 1778              		.loc 1 125 7 view .LVU543
 1779 0076 FAE7     		b	.L115
 1780              	.LVL158:
 1781              	.L112:
 127:Middlewares/ST/STM32_USB_Device_Library/Class/MSC/Src/usbd_msc_scsi.c ****       break;
 1782              		.loc 1 127 7 is_stmt 1 view .LVU544
 1783 0078 FFF7FEFF 		bl	SCSI_Inquiry
 1784              	.LVL159:
 128:Middlewares/ST/STM32_USB_Device_Library/Class/MSC/Src/usbd_msc_scsi.c **** 
 1785              		.loc 1 128 7 view .LVU545
 171:Middlewares/ST/STM32_USB_Device_Library/Class/MSC/Src/usbd_msc_scsi.c **** }
 1786              		.loc 1 171 10 is_stmt 0 view .LVU546
 1787 007c 0020     		movs	r0, #0
 128:Middlewares/ST/STM32_USB_Device_Library/Class/MSC/Src/usbd_msc_scsi.c **** 
 1788              		.loc 1 128 7 view .LVU547
 1789 007e F6E7     		b	.L115
 1790              	.LVL160:
 1791              	.L110:
 131:Middlewares/ST/STM32_USB_Device_Library/Class/MSC/Src/usbd_msc_scsi.c ****       break;
 1792              		.loc 1 131 7 is_stmt 1 view .LVU548
 1793 0080 FFF7FEFF 		bl	SCSI_StartStopUnit
 1794              	.LVL161:
 132:Middlewares/ST/STM32_USB_Device_Library/Class/MSC/Src/usbd_msc_scsi.c **** 
 1795              		.loc 1 132 7 view .LVU549
 171:Middlewares/ST/STM32_USB_Device_Library/Class/MSC/Src/usbd_msc_scsi.c **** }
 1796              		.loc 1 171 10 is_stmt 0 view .LVU550
 1797 0084 0020     		movs	r0, #0
 132:Middlewares/ST/STM32_USB_Device_Library/Class/MSC/Src/usbd_msc_scsi.c **** 
 1798              		.loc 1 132 7 view .LVU551
 1799 0086 F2E7     		b	.L115
 1800              	.LVL162:
 1801              	.L109:
 135:Middlewares/ST/STM32_USB_Device_Library/Class/MSC/Src/usbd_msc_scsi.c ****       break;
 1802              		.loc 1 135 7 is_stmt 1 view .LVU552
 1803 0088 FFF7FEFF 		bl	SCSI_StartStopUnit
 1804              	.LVL163:
 136:Middlewares/ST/STM32_USB_Device_Library/Class/MSC/Src/usbd_msc_scsi.c **** 
 1805              		.loc 1 136 7 view .LVU553
ARM GAS  C:\Users\Kaa\AppData\Local\Temp\cc61P2Ds.s 			page 51


 171:Middlewares/ST/STM32_USB_Device_Library/Class/MSC/Src/usbd_msc_scsi.c **** }
 1806              		.loc 1 171 10 is_stmt 0 view .LVU554
 1807 008c 0020     		movs	r0, #0
 136:Middlewares/ST/STM32_USB_Device_Library/Class/MSC/Src/usbd_msc_scsi.c **** 
 1808              		.loc 1 136 7 view .LVU555
 1809 008e EEE7     		b	.L115
 1810              	.LVL164:
 1811              	.L111:
 139:Middlewares/ST/STM32_USB_Device_Library/Class/MSC/Src/usbd_msc_scsi.c ****       break;
 1812              		.loc 1 139 7 is_stmt 1 view .LVU556
 1813 0090 FFF7FEFF 		bl	SCSI_ModeSense6
 1814              	.LVL165:
 140:Middlewares/ST/STM32_USB_Device_Library/Class/MSC/Src/usbd_msc_scsi.c **** 
 1815              		.loc 1 140 7 view .LVU557
 171:Middlewares/ST/STM32_USB_Device_Library/Class/MSC/Src/usbd_msc_scsi.c **** }
 1816              		.loc 1 171 10 is_stmt 0 view .LVU558
 1817 0094 0020     		movs	r0, #0
 140:Middlewares/ST/STM32_USB_Device_Library/Class/MSC/Src/usbd_msc_scsi.c **** 
 1818              		.loc 1 140 7 view .LVU559
 1819 0096 EAE7     		b	.L115
 1820              	.LVL166:
 1821              	.L102:
 143:Middlewares/ST/STM32_USB_Device_Library/Class/MSC/Src/usbd_msc_scsi.c ****       break;
 1822              		.loc 1 143 7 is_stmt 1 view .LVU560
 1823 0098 FFF7FEFF 		bl	SCSI_ModeSense10
 1824              	.LVL167:
 144:Middlewares/ST/STM32_USB_Device_Library/Class/MSC/Src/usbd_msc_scsi.c **** 
 1825              		.loc 1 144 7 view .LVU561
 171:Middlewares/ST/STM32_USB_Device_Library/Class/MSC/Src/usbd_msc_scsi.c **** }
 1826              		.loc 1 171 10 is_stmt 0 view .LVU562
 1827 009c 0020     		movs	r0, #0
 144:Middlewares/ST/STM32_USB_Device_Library/Class/MSC/Src/usbd_msc_scsi.c **** 
 1828              		.loc 1 144 7 view .LVU563
 1829 009e E6E7     		b	.L115
 1830              	.LVL168:
 1831              	.L108:
 147:Middlewares/ST/STM32_USB_Device_Library/Class/MSC/Src/usbd_msc_scsi.c ****       break;
 1832              		.loc 1 147 7 is_stmt 1 view .LVU564
 1833 00a0 FFF7FEFF 		bl	SCSI_ReadFormatCapacity
 1834              	.LVL169:
 148:Middlewares/ST/STM32_USB_Device_Library/Class/MSC/Src/usbd_msc_scsi.c **** 
 1835              		.loc 1 148 7 view .LVU565
 171:Middlewares/ST/STM32_USB_Device_Library/Class/MSC/Src/usbd_msc_scsi.c **** }
 1836              		.loc 1 171 10 is_stmt 0 view .LVU566
 1837 00a4 0020     		movs	r0, #0
 148:Middlewares/ST/STM32_USB_Device_Library/Class/MSC/Src/usbd_msc_scsi.c **** 
 1838              		.loc 1 148 7 view .LVU567
 1839 00a6 E2E7     		b	.L115
 1840              	.LVL170:
 1841              	.L107:
 151:Middlewares/ST/STM32_USB_Device_Library/Class/MSC/Src/usbd_msc_scsi.c ****       break;
 1842              		.loc 1 151 7 is_stmt 1 view .LVU568
 1843 00a8 FFF7FEFF 		bl	SCSI_ReadCapacity10
 1844              	.LVL171:
 152:Middlewares/ST/STM32_USB_Device_Library/Class/MSC/Src/usbd_msc_scsi.c **** 
 1845              		.loc 1 152 7 view .LVU569
 171:Middlewares/ST/STM32_USB_Device_Library/Class/MSC/Src/usbd_msc_scsi.c **** }
ARM GAS  C:\Users\Kaa\AppData\Local\Temp\cc61P2Ds.s 			page 52


 1846              		.loc 1 171 10 is_stmt 0 view .LVU570
 1847 00ac 0020     		movs	r0, #0
 152:Middlewares/ST/STM32_USB_Device_Library/Class/MSC/Src/usbd_msc_scsi.c **** 
 1848              		.loc 1 152 7 view .LVU571
 1849 00ae DEE7     		b	.L115
 1850              	.LVL172:
 1851              	.L106:
 155:Middlewares/ST/STM32_USB_Device_Library/Class/MSC/Src/usbd_msc_scsi.c ****       break;
 1852              		.loc 1 155 7 is_stmt 1 view .LVU572
 1853 00b0 FFF7FEFF 		bl	SCSI_Read10
 1854              	.LVL173:
 156:Middlewares/ST/STM32_USB_Device_Library/Class/MSC/Src/usbd_msc_scsi.c **** 
 1855              		.loc 1 156 7 view .LVU573
 171:Middlewares/ST/STM32_USB_Device_Library/Class/MSC/Src/usbd_msc_scsi.c **** }
 1856              		.loc 1 171 10 is_stmt 0 view .LVU574
 1857 00b4 0020     		movs	r0, #0
 156:Middlewares/ST/STM32_USB_Device_Library/Class/MSC/Src/usbd_msc_scsi.c **** 
 1858              		.loc 1 156 7 view .LVU575
 1859 00b6 DAE7     		b	.L115
 1860              	.LVL174:
 1861              	.L105:
 159:Middlewares/ST/STM32_USB_Device_Library/Class/MSC/Src/usbd_msc_scsi.c ****       break;
 1862              		.loc 1 159 7 is_stmt 1 view .LVU576
 1863 00b8 FFF7FEFF 		bl	SCSI_Write10
 1864              	.LVL175:
 160:Middlewares/ST/STM32_USB_Device_Library/Class/MSC/Src/usbd_msc_scsi.c **** 
 1865              		.loc 1 160 7 view .LVU577
 171:Middlewares/ST/STM32_USB_Device_Library/Class/MSC/Src/usbd_msc_scsi.c **** }
 1866              		.loc 1 171 10 is_stmt 0 view .LVU578
 1867 00bc 0020     		movs	r0, #0
 160:Middlewares/ST/STM32_USB_Device_Library/Class/MSC/Src/usbd_msc_scsi.c **** 
 1868              		.loc 1 160 7 view .LVU579
 1869 00be D6E7     		b	.L115
 1870              	.LVL176:
 1871              	.L104:
 163:Middlewares/ST/STM32_USB_Device_Library/Class/MSC/Src/usbd_msc_scsi.c ****       break;
 1872              		.loc 1 163 7 is_stmt 1 view .LVU580
 1873 00c0 FFF7FEFF 		bl	SCSI_Verify10
 1874              	.LVL177:
 164:Middlewares/ST/STM32_USB_Device_Library/Class/MSC/Src/usbd_msc_scsi.c **** 
 1875              		.loc 1 164 7 view .LVU581
 171:Middlewares/ST/STM32_USB_Device_Library/Class/MSC/Src/usbd_msc_scsi.c **** }
 1876              		.loc 1 171 10 is_stmt 0 view .LVU582
 1877 00c4 0020     		movs	r0, #0
 164:Middlewares/ST/STM32_USB_Device_Library/Class/MSC/Src/usbd_msc_scsi.c **** 
 1878              		.loc 1 164 7 view .LVU583
 1879 00c6 D2E7     		b	.L115
 1880              	.LVL178:
 1881              	.L101:
 167:Middlewares/ST/STM32_USB_Device_Library/Class/MSC/Src/usbd_msc_scsi.c ****       return -1;
 1882              		.loc 1 167 7 is_stmt 1 view .LVU584
 1883 00c8 2023     		movs	r3, #32
 1884 00ca 0522     		movs	r2, #5
 1885              	.LVL179:
 167:Middlewares/ST/STM32_USB_Device_Library/Class/MSC/Src/usbd_msc_scsi.c ****       return -1;
 1886              		.loc 1 167 7 is_stmt 0 view .LVU585
 1887 00cc FFF7FEFF 		bl	SCSI_SenseCode
ARM GAS  C:\Users\Kaa\AppData\Local\Temp\cc61P2Ds.s 			page 53


 1888              	.LVL180:
 168:Middlewares/ST/STM32_USB_Device_Library/Class/MSC/Src/usbd_msc_scsi.c ****   }
 1889              		.loc 1 168 7 is_stmt 1 view .LVU586
 168:Middlewares/ST/STM32_USB_Device_Library/Class/MSC/Src/usbd_msc_scsi.c ****   }
 1890              		.loc 1 168 14 is_stmt 0 view .LVU587
 1891 00d0 4FF0FF30 		mov	r0, #-1
 1892 00d4 CBE7     		b	.L115
 1893              		.cfi_endproc
 1894              	.LFE401:
 1896              		.text
 1897              	.Letext0:
 1898              		.file 2 "c:\\arm_tool\\gcc\\arm-none-eabi\\include\\machine\\_default_types.h"
 1899              		.file 3 "c:\\arm_tool\\gcc\\arm-none-eabi\\include\\sys\\lock.h"
 1900              		.file 4 "c:\\arm_tool\\gcc\\arm-none-eabi\\include\\sys\\_types.h"
 1901              		.file 5 "c:\\arm_tool\\gcc\\lib\\gcc\\arm-none-eabi\\8.2.1\\include\\stddef.h"
 1902              		.file 6 "c:\\arm_tool\\gcc\\arm-none-eabi\\include\\sys\\reent.h"
 1903              		.file 7 "c:\\arm_tool\\gcc\\arm-none-eabi\\include\\sys\\_stdint.h"
 1904              		.file 8 "c:\\arm_tool\\gcc\\arm-none-eabi\\include\\stdlib.h"
 1905              		.file 9 "Drivers/CMSIS/Include/core_cm3.h"
 1906              		.file 10 "Drivers/CMSIS/Device/ST/STM32F1xx/Include/system_stm32f1xx.h"
 1907              		.file 11 "Drivers/STM32F1xx_HAL_Driver/Inc/stm32f1xx_hal.h"
 1908              		.file 12 "Core/Inc/main.h"
 1909              		.file 13 "Middlewares/ST/STM32_USB_Device_Library/Core/Inc/usbd_def.h"
 1910              		.file 14 "Middlewares/ST/STM32_USB_Device_Library/Class/MSC/Inc/usbd_msc_bot.h"
 1911              		.file 15 "Middlewares/ST/STM32_USB_Device_Library/Class/MSC/Inc/usbd_msc_scsi.h"
 1912              		.file 16 "Middlewares/ST/STM32_USB_Device_Library/Class/MSC/Inc/usbd_msc.h"
 1913              		.file 17 "Middlewares/ST/STM32_USB_Device_Library/Class/MSC/Inc/usbd_msc_data.h"
 1914              		.file 18 "Drivers/STM32F1xx_HAL_Driver/Inc/stm32f1xx_ll_dma.h"
 1915              		.file 19 "Middlewares/ST/STM32_USB_Device_Library/Core/Inc/usbd_core.h"
ARM GAS  C:\Users\Kaa\AppData\Local\Temp\cc61P2Ds.s 			page 54

