ARM GAS  C:\Users\Kaa\AppData\Local\Temp\ccMt5vPx.s 			page 1


   1              		.cpu cortex-m3
   2              		.eabi_attribute 20, 1
   3              		.eabi_attribute 21, 1
   4              		.eabi_attribute 23, 3
   5              		.eabi_attribute 24, 1
   6              		.eabi_attribute 25, 1
   7              		.eabi_attribute 26, 1
   8              		.eabi_attribute 30, 1
   9              		.eabi_attribute 34, 1
  10              		.eabi_attribute 18, 4
  11              		.file	"z80ramm_gpio.c"
  12              		.text
  13              	.Ltext0:
  14              		.cfi_sections	.debug_frame
  15              		.section	.text.z80ramm_adr_pins2output,"ax",%progbits
  16              		.align	1
  17              		.global	z80ramm_adr_pins2output
  18              		.arch armv7-m
  19              		.syntax unified
  20              		.thumb
  21              		.thumb_func
  22              		.fpu softvfp
  24              	z80ramm_adr_pins2output:
  25              	.LFB398:
  26              		.file 1 "App/z80ramm/z80ramm_gpio.c"
   1:App/z80ramm/z80ramm_gpio.c **** // Header: z80 ram manager gpio control
   2:App/z80ramm/z80ramm_gpio.c **** // File Name: z80ramm_gpio.c
   3:App/z80ramm/z80ramm_gpio.c **** // Author: Mikhail Kaa
   4:App/z80ramm/z80ramm_gpio.c **** // Date: 10.11.2023
   5:App/z80ramm/z80ramm_gpio.c **** 
   6:App/z80ramm/z80ramm_gpio.c **** /*
   7:App/z80ramm/z80ramm_gpio.c **** –ó–Ω–∞—é, —á—Ç–æ —Ç—É—Ç —Ä—É–∫–∞-–ª–∏—Ü–æ, –Ω–æ –º–Ω–µ –ª–µ–Ω—å –¥–µ–ª–∞—Ç—å –ø–æ –¥—Ä—É–≥–æ–º—É.
   8:App/z80ramm/z80ramm_gpio.c **** –ù–µ —Å—Ç–∞–ª —Ä–∞–∑–±–∏—Ä–∞—Ç—å—Å—è, –ø–æ—á–µ–º—É –≥—Ä—É–ø–ø–æ–π –Ω–µ —É–¥–∞–µ—Ç—Å—è –Ω–∞–∑–Ω–∞—á–
   9:App/z80ramm/z80ramm_gpio.c **** */
  10:App/z80ramm/z80ramm_gpio.c **** 
  11:App/z80ramm/z80ramm_gpio.c **** #include "z80ramm_.h"
  12:App/z80ramm/z80ramm_gpio.c **** 
  13:App/z80ramm/z80ramm_gpio.c **** void z80ramm_adr_pins2output(void){
  27              		.loc 1 13 35 view -0
  28              		.cfi_startproc
  29              		@ args = 0, pretend = 0, frame = 0
  30              		@ frame_needed = 0, uses_anonymous_args = 0
  31              		@ link register save eliminated.
  32 0000 F0B4     		push	{r4, r5, r6, r7}
  33              	.LCFI0:
  34              		.cfi_def_cfa_offset 16
  35              		.cfi_offset 4, -16
  36              		.cfi_offset 5, -12
  37              		.cfi_offset 6, -8
  38              		.cfi_offset 7, -4
  14:App/z80ramm/z80ramm_gpio.c **** // –ê–¥—Ä–µ—Å–Ω–∞—è —à–∏–Ω–∞.
  15:App/z80ramm/z80ramm_gpio.c ****     LL_GPIO_SetPinMode(RAMM_ADR_PORT, A0_Pin, LL_GPIO_MODE_OUTPUT);
  39              		.loc 1 15 5 view .LVU1
  40              	.LVL0:
  41              	.LBB690:
  42              	.LBI690:
  43              		.file 2 "Drivers/STM32F1xx_HAL_Driver/Inc/stm32f1xx_ll_gpio.h"
ARM GAS  C:\Users\Kaa\AppData\Local\Temp\ccMt5vPx.s 			page 2


   1:Drivers/STM32F1xx_HAL_Driver/Inc/stm32f1xx_ll_gpio.h **** /**
   2:Drivers/STM32F1xx_HAL_Driver/Inc/stm32f1xx_ll_gpio.h ****   ******************************************************************************
   3:Drivers/STM32F1xx_HAL_Driver/Inc/stm32f1xx_ll_gpio.h ****   * @file    stm32f1xx_ll_gpio.h
   4:Drivers/STM32F1xx_HAL_Driver/Inc/stm32f1xx_ll_gpio.h ****   * @author  MCD Application Team
   5:Drivers/STM32F1xx_HAL_Driver/Inc/stm32f1xx_ll_gpio.h ****   * @brief   Header file of GPIO LL module.
   6:Drivers/STM32F1xx_HAL_Driver/Inc/stm32f1xx_ll_gpio.h ****   ******************************************************************************
   7:Drivers/STM32F1xx_HAL_Driver/Inc/stm32f1xx_ll_gpio.h ****   * @attention
   8:Drivers/STM32F1xx_HAL_Driver/Inc/stm32f1xx_ll_gpio.h ****   *
   9:Drivers/STM32F1xx_HAL_Driver/Inc/stm32f1xx_ll_gpio.h ****   * Copyright (c) 2016 STMicroelectronics.
  10:Drivers/STM32F1xx_HAL_Driver/Inc/stm32f1xx_ll_gpio.h ****   * All rights reserved.
  11:Drivers/STM32F1xx_HAL_Driver/Inc/stm32f1xx_ll_gpio.h ****   *
  12:Drivers/STM32F1xx_HAL_Driver/Inc/stm32f1xx_ll_gpio.h ****   * This software is licensed under terms that can be found in the LICENSE file
  13:Drivers/STM32F1xx_HAL_Driver/Inc/stm32f1xx_ll_gpio.h ****   * in the root directory of this software component.
  14:Drivers/STM32F1xx_HAL_Driver/Inc/stm32f1xx_ll_gpio.h ****   * If no LICENSE file comes with this software, it is provided AS-IS.
  15:Drivers/STM32F1xx_HAL_Driver/Inc/stm32f1xx_ll_gpio.h ****   *
  16:Drivers/STM32F1xx_HAL_Driver/Inc/stm32f1xx_ll_gpio.h ****   ******************************************************************************
  17:Drivers/STM32F1xx_HAL_Driver/Inc/stm32f1xx_ll_gpio.h ****   */
  18:Drivers/STM32F1xx_HAL_Driver/Inc/stm32f1xx_ll_gpio.h **** 
  19:Drivers/STM32F1xx_HAL_Driver/Inc/stm32f1xx_ll_gpio.h **** /* Define to prevent recursive inclusion -------------------------------------*/
  20:Drivers/STM32F1xx_HAL_Driver/Inc/stm32f1xx_ll_gpio.h **** #ifndef STM32F1xx_LL_GPIO_H
  21:Drivers/STM32F1xx_HAL_Driver/Inc/stm32f1xx_ll_gpio.h **** #define STM32F1xx_LL_GPIO_H
  22:Drivers/STM32F1xx_HAL_Driver/Inc/stm32f1xx_ll_gpio.h **** 
  23:Drivers/STM32F1xx_HAL_Driver/Inc/stm32f1xx_ll_gpio.h **** #ifdef __cplusplus
  24:Drivers/STM32F1xx_HAL_Driver/Inc/stm32f1xx_ll_gpio.h **** extern "C" {
  25:Drivers/STM32F1xx_HAL_Driver/Inc/stm32f1xx_ll_gpio.h **** #endif
  26:Drivers/STM32F1xx_HAL_Driver/Inc/stm32f1xx_ll_gpio.h **** 
  27:Drivers/STM32F1xx_HAL_Driver/Inc/stm32f1xx_ll_gpio.h **** /* Includes ------------------------------------------------------------------*/
  28:Drivers/STM32F1xx_HAL_Driver/Inc/stm32f1xx_ll_gpio.h **** #include "stm32f1xx.h"
  29:Drivers/STM32F1xx_HAL_Driver/Inc/stm32f1xx_ll_gpio.h **** 
  30:Drivers/STM32F1xx_HAL_Driver/Inc/stm32f1xx_ll_gpio.h **** /** @addtogroup STM32F1xx_LL_Driver
  31:Drivers/STM32F1xx_HAL_Driver/Inc/stm32f1xx_ll_gpio.h ****   * @{
  32:Drivers/STM32F1xx_HAL_Driver/Inc/stm32f1xx_ll_gpio.h ****   */
  33:Drivers/STM32F1xx_HAL_Driver/Inc/stm32f1xx_ll_gpio.h **** 
  34:Drivers/STM32F1xx_HAL_Driver/Inc/stm32f1xx_ll_gpio.h **** #if defined (GPIOA) || defined (GPIOB) || defined (GPIOC) || defined (GPIOD) || defined (GPIOE) || 
  35:Drivers/STM32F1xx_HAL_Driver/Inc/stm32f1xx_ll_gpio.h **** 
  36:Drivers/STM32F1xx_HAL_Driver/Inc/stm32f1xx_ll_gpio.h **** /** @defgroup GPIO_LL GPIO
  37:Drivers/STM32F1xx_HAL_Driver/Inc/stm32f1xx_ll_gpio.h ****   * @{
  38:Drivers/STM32F1xx_HAL_Driver/Inc/stm32f1xx_ll_gpio.h ****   */
  39:Drivers/STM32F1xx_HAL_Driver/Inc/stm32f1xx_ll_gpio.h **** 
  40:Drivers/STM32F1xx_HAL_Driver/Inc/stm32f1xx_ll_gpio.h **** /* Private types -------------------------------------------------------------*/
  41:Drivers/STM32F1xx_HAL_Driver/Inc/stm32f1xx_ll_gpio.h **** /* Private variables ---------------------------------------------------------*/
  42:Drivers/STM32F1xx_HAL_Driver/Inc/stm32f1xx_ll_gpio.h **** /* Private constants ---------------------------------------------------------*/
  43:Drivers/STM32F1xx_HAL_Driver/Inc/stm32f1xx_ll_gpio.h **** 
  44:Drivers/STM32F1xx_HAL_Driver/Inc/stm32f1xx_ll_gpio.h **** /** @defgroup GPIO_LL_Private_Constants GPIO Private Constants
  45:Drivers/STM32F1xx_HAL_Driver/Inc/stm32f1xx_ll_gpio.h ****   * @{
  46:Drivers/STM32F1xx_HAL_Driver/Inc/stm32f1xx_ll_gpio.h ****   */
  47:Drivers/STM32F1xx_HAL_Driver/Inc/stm32f1xx_ll_gpio.h **** /* Defines used for Pin Mask Initialization */
  48:Drivers/STM32F1xx_HAL_Driver/Inc/stm32f1xx_ll_gpio.h **** #define GPIO_PIN_MASK_POS   8U
  49:Drivers/STM32F1xx_HAL_Driver/Inc/stm32f1xx_ll_gpio.h **** #define GPIO_PIN_NB         16U
  50:Drivers/STM32F1xx_HAL_Driver/Inc/stm32f1xx_ll_gpio.h **** /**
  51:Drivers/STM32F1xx_HAL_Driver/Inc/stm32f1xx_ll_gpio.h ****   * @}
  52:Drivers/STM32F1xx_HAL_Driver/Inc/stm32f1xx_ll_gpio.h ****   */
  53:Drivers/STM32F1xx_HAL_Driver/Inc/stm32f1xx_ll_gpio.h **** 
  54:Drivers/STM32F1xx_HAL_Driver/Inc/stm32f1xx_ll_gpio.h **** /* Private macros ------------------------------------------------------------*/
  55:Drivers/STM32F1xx_HAL_Driver/Inc/stm32f1xx_ll_gpio.h **** #if defined(USE_FULL_LL_DRIVER)
  56:Drivers/STM32F1xx_HAL_Driver/Inc/stm32f1xx_ll_gpio.h **** /** @defgroup GPIO_LL_Private_Macros GPIO Private Macros
  57:Drivers/STM32F1xx_HAL_Driver/Inc/stm32f1xx_ll_gpio.h ****   * @{
ARM GAS  C:\Users\Kaa\AppData\Local\Temp\ccMt5vPx.s 			page 3


  58:Drivers/STM32F1xx_HAL_Driver/Inc/stm32f1xx_ll_gpio.h ****   */
  59:Drivers/STM32F1xx_HAL_Driver/Inc/stm32f1xx_ll_gpio.h **** 
  60:Drivers/STM32F1xx_HAL_Driver/Inc/stm32f1xx_ll_gpio.h **** /**
  61:Drivers/STM32F1xx_HAL_Driver/Inc/stm32f1xx_ll_gpio.h ****   * @}
  62:Drivers/STM32F1xx_HAL_Driver/Inc/stm32f1xx_ll_gpio.h ****   */
  63:Drivers/STM32F1xx_HAL_Driver/Inc/stm32f1xx_ll_gpio.h **** #endif /*USE_FULL_LL_DRIVER*/
  64:Drivers/STM32F1xx_HAL_Driver/Inc/stm32f1xx_ll_gpio.h **** 
  65:Drivers/STM32F1xx_HAL_Driver/Inc/stm32f1xx_ll_gpio.h **** /* Exported types ------------------------------------------------------------*/
  66:Drivers/STM32F1xx_HAL_Driver/Inc/stm32f1xx_ll_gpio.h **** #if defined(USE_FULL_LL_DRIVER)
  67:Drivers/STM32F1xx_HAL_Driver/Inc/stm32f1xx_ll_gpio.h **** /** @defgroup GPIO_LL_ES_INIT GPIO Exported Init structures
  68:Drivers/STM32F1xx_HAL_Driver/Inc/stm32f1xx_ll_gpio.h ****   * @{
  69:Drivers/STM32F1xx_HAL_Driver/Inc/stm32f1xx_ll_gpio.h ****   */
  70:Drivers/STM32F1xx_HAL_Driver/Inc/stm32f1xx_ll_gpio.h **** 
  71:Drivers/STM32F1xx_HAL_Driver/Inc/stm32f1xx_ll_gpio.h **** /**
  72:Drivers/STM32F1xx_HAL_Driver/Inc/stm32f1xx_ll_gpio.h ****   * @brief LL GPIO Init Structure definition
  73:Drivers/STM32F1xx_HAL_Driver/Inc/stm32f1xx_ll_gpio.h ****   */
  74:Drivers/STM32F1xx_HAL_Driver/Inc/stm32f1xx_ll_gpio.h **** typedef struct
  75:Drivers/STM32F1xx_HAL_Driver/Inc/stm32f1xx_ll_gpio.h **** {
  76:Drivers/STM32F1xx_HAL_Driver/Inc/stm32f1xx_ll_gpio.h ****   uint32_t Pin;          /*!< Specifies the GPIO pins to be configured.
  77:Drivers/STM32F1xx_HAL_Driver/Inc/stm32f1xx_ll_gpio.h ****                               This parameter can be any value of @ref GPIO_LL_EC_PIN */
  78:Drivers/STM32F1xx_HAL_Driver/Inc/stm32f1xx_ll_gpio.h **** 
  79:Drivers/STM32F1xx_HAL_Driver/Inc/stm32f1xx_ll_gpio.h ****   uint32_t Mode;         /*!< Specifies the operating mode for the selected pins.
  80:Drivers/STM32F1xx_HAL_Driver/Inc/stm32f1xx_ll_gpio.h ****                               This parameter can be a value of @ref GPIO_LL_EC_MODE.
  81:Drivers/STM32F1xx_HAL_Driver/Inc/stm32f1xx_ll_gpio.h **** 
  82:Drivers/STM32F1xx_HAL_Driver/Inc/stm32f1xx_ll_gpio.h ****                               GPIO HW configuration can be modified afterwards using unitary functi
  83:Drivers/STM32F1xx_HAL_Driver/Inc/stm32f1xx_ll_gpio.h **** 
  84:Drivers/STM32F1xx_HAL_Driver/Inc/stm32f1xx_ll_gpio.h ****   uint32_t Speed;        /*!< Specifies the speed for the selected pins.
  85:Drivers/STM32F1xx_HAL_Driver/Inc/stm32f1xx_ll_gpio.h ****                               This parameter can be a value of @ref GPIO_LL_EC_SPEED.
  86:Drivers/STM32F1xx_HAL_Driver/Inc/stm32f1xx_ll_gpio.h **** 
  87:Drivers/STM32F1xx_HAL_Driver/Inc/stm32f1xx_ll_gpio.h ****                               GPIO HW configuration can be modified afterwards using unitary functi
  88:Drivers/STM32F1xx_HAL_Driver/Inc/stm32f1xx_ll_gpio.h **** 
  89:Drivers/STM32F1xx_HAL_Driver/Inc/stm32f1xx_ll_gpio.h ****   uint32_t OutputType;   /*!< Specifies the operating output type for the selected pins.
  90:Drivers/STM32F1xx_HAL_Driver/Inc/stm32f1xx_ll_gpio.h ****                               This parameter can be a value of @ref GPIO_LL_EC_OUTPUT.
  91:Drivers/STM32F1xx_HAL_Driver/Inc/stm32f1xx_ll_gpio.h **** 
  92:Drivers/STM32F1xx_HAL_Driver/Inc/stm32f1xx_ll_gpio.h ****                               GPIO HW configuration can be modified afterwards using unitary functi
  93:Drivers/STM32F1xx_HAL_Driver/Inc/stm32f1xx_ll_gpio.h **** 
  94:Drivers/STM32F1xx_HAL_Driver/Inc/stm32f1xx_ll_gpio.h ****   uint32_t Pull;         /*!< Specifies the operating Pull-up/Pull down for the selected pins.
  95:Drivers/STM32F1xx_HAL_Driver/Inc/stm32f1xx_ll_gpio.h ****                               This parameter can be a value of @ref GPIO_LL_EC_PULL.
  96:Drivers/STM32F1xx_HAL_Driver/Inc/stm32f1xx_ll_gpio.h **** 
  97:Drivers/STM32F1xx_HAL_Driver/Inc/stm32f1xx_ll_gpio.h ****                               GPIO HW configuration can be modified afterwards using unitary functi
  98:Drivers/STM32F1xx_HAL_Driver/Inc/stm32f1xx_ll_gpio.h **** } LL_GPIO_InitTypeDef;
  99:Drivers/STM32F1xx_HAL_Driver/Inc/stm32f1xx_ll_gpio.h **** 
 100:Drivers/STM32F1xx_HAL_Driver/Inc/stm32f1xx_ll_gpio.h **** /**
 101:Drivers/STM32F1xx_HAL_Driver/Inc/stm32f1xx_ll_gpio.h ****   * @}
 102:Drivers/STM32F1xx_HAL_Driver/Inc/stm32f1xx_ll_gpio.h ****   */
 103:Drivers/STM32F1xx_HAL_Driver/Inc/stm32f1xx_ll_gpio.h **** #endif /* USE_FULL_LL_DRIVER */
 104:Drivers/STM32F1xx_HAL_Driver/Inc/stm32f1xx_ll_gpio.h **** 
 105:Drivers/STM32F1xx_HAL_Driver/Inc/stm32f1xx_ll_gpio.h **** /* Exported constants --------------------------------------------------------*/
 106:Drivers/STM32F1xx_HAL_Driver/Inc/stm32f1xx_ll_gpio.h **** /** @defgroup GPIO_LL_Exported_Constants GPIO Exported Constants
 107:Drivers/STM32F1xx_HAL_Driver/Inc/stm32f1xx_ll_gpio.h ****   * @{
 108:Drivers/STM32F1xx_HAL_Driver/Inc/stm32f1xx_ll_gpio.h ****   */
 109:Drivers/STM32F1xx_HAL_Driver/Inc/stm32f1xx_ll_gpio.h **** 
 110:Drivers/STM32F1xx_HAL_Driver/Inc/stm32f1xx_ll_gpio.h **** /** @defgroup GPIO_LL_EC_PIN PIN
 111:Drivers/STM32F1xx_HAL_Driver/Inc/stm32f1xx_ll_gpio.h ****   * @{
 112:Drivers/STM32F1xx_HAL_Driver/Inc/stm32f1xx_ll_gpio.h ****   */
 113:Drivers/STM32F1xx_HAL_Driver/Inc/stm32f1xx_ll_gpio.h **** #define LL_GPIO_PIN_0                    ((GPIO_BSRR_BS0  << GPIO_PIN_MASK_POS) | 0x00000001U)  /*!
 114:Drivers/STM32F1xx_HAL_Driver/Inc/stm32f1xx_ll_gpio.h **** #define LL_GPIO_PIN_1                    ((GPIO_BSRR_BS1  << GPIO_PIN_MASK_POS) | 0x00000002U)  /*!
ARM GAS  C:\Users\Kaa\AppData\Local\Temp\ccMt5vPx.s 			page 4


 115:Drivers/STM32F1xx_HAL_Driver/Inc/stm32f1xx_ll_gpio.h **** #define LL_GPIO_PIN_2                    ((GPIO_BSRR_BS2  << GPIO_PIN_MASK_POS) | 0x00000004U)  /*!
 116:Drivers/STM32F1xx_HAL_Driver/Inc/stm32f1xx_ll_gpio.h **** #define LL_GPIO_PIN_3                    ((GPIO_BSRR_BS3  << GPIO_PIN_MASK_POS) | 0x00000008U)  /*!
 117:Drivers/STM32F1xx_HAL_Driver/Inc/stm32f1xx_ll_gpio.h **** #define LL_GPIO_PIN_4                    ((GPIO_BSRR_BS4  << GPIO_PIN_MASK_POS) | 0x00000010U)  /*!
 118:Drivers/STM32F1xx_HAL_Driver/Inc/stm32f1xx_ll_gpio.h **** #define LL_GPIO_PIN_5                    ((GPIO_BSRR_BS5  << GPIO_PIN_MASK_POS) | 0x00000020U)  /*!
 119:Drivers/STM32F1xx_HAL_Driver/Inc/stm32f1xx_ll_gpio.h **** #define LL_GPIO_PIN_6                    ((GPIO_BSRR_BS6  << GPIO_PIN_MASK_POS) | 0x00000040U)  /*!
 120:Drivers/STM32F1xx_HAL_Driver/Inc/stm32f1xx_ll_gpio.h **** #define LL_GPIO_PIN_7                    ((GPIO_BSRR_BS7  << GPIO_PIN_MASK_POS) | 0x00000080U)  /*!
 121:Drivers/STM32F1xx_HAL_Driver/Inc/stm32f1xx_ll_gpio.h **** #define LL_GPIO_PIN_8                    ((GPIO_BSRR_BS8  << GPIO_PIN_MASK_POS) | 0x04000001U)  /*!
 122:Drivers/STM32F1xx_HAL_Driver/Inc/stm32f1xx_ll_gpio.h **** #define LL_GPIO_PIN_9                    ((GPIO_BSRR_BS9  << GPIO_PIN_MASK_POS) | 0x04000002U)  /*!
 123:Drivers/STM32F1xx_HAL_Driver/Inc/stm32f1xx_ll_gpio.h **** #define LL_GPIO_PIN_10                   ((GPIO_BSRR_BS10 << GPIO_PIN_MASK_POS) | 0x04000004U)  /*!
 124:Drivers/STM32F1xx_HAL_Driver/Inc/stm32f1xx_ll_gpio.h **** #define LL_GPIO_PIN_11                   ((GPIO_BSRR_BS11 << GPIO_PIN_MASK_POS) | 0x04000008U)  /*!
 125:Drivers/STM32F1xx_HAL_Driver/Inc/stm32f1xx_ll_gpio.h **** #define LL_GPIO_PIN_12                   ((GPIO_BSRR_BS12 << GPIO_PIN_MASK_POS) | 0x04000010U)  /*!
 126:Drivers/STM32F1xx_HAL_Driver/Inc/stm32f1xx_ll_gpio.h **** #define LL_GPIO_PIN_13                   ((GPIO_BSRR_BS13 << GPIO_PIN_MASK_POS) | 0x04000020U)  /*!
 127:Drivers/STM32F1xx_HAL_Driver/Inc/stm32f1xx_ll_gpio.h **** #define LL_GPIO_PIN_14                   ((GPIO_BSRR_BS14 << GPIO_PIN_MASK_POS) | 0x04000040U)  /*!
 128:Drivers/STM32F1xx_HAL_Driver/Inc/stm32f1xx_ll_gpio.h **** #define LL_GPIO_PIN_15                   ((GPIO_BSRR_BS15 << GPIO_PIN_MASK_POS) | 0x04000080U)  /*!
 129:Drivers/STM32F1xx_HAL_Driver/Inc/stm32f1xx_ll_gpio.h **** #define LL_GPIO_PIN_ALL                  (LL_GPIO_PIN_0  | LL_GPIO_PIN_1  | LL_GPIO_PIN_2  | \
 130:Drivers/STM32F1xx_HAL_Driver/Inc/stm32f1xx_ll_gpio.h ****                                           LL_GPIO_PIN_3  | LL_GPIO_PIN_4  | LL_GPIO_PIN_5  | \
 131:Drivers/STM32F1xx_HAL_Driver/Inc/stm32f1xx_ll_gpio.h ****                                           LL_GPIO_PIN_6  | LL_GPIO_PIN_7  | LL_GPIO_PIN_8  | \
 132:Drivers/STM32F1xx_HAL_Driver/Inc/stm32f1xx_ll_gpio.h ****                                           LL_GPIO_PIN_9  | LL_GPIO_PIN_10 | LL_GPIO_PIN_11 | \
 133:Drivers/STM32F1xx_HAL_Driver/Inc/stm32f1xx_ll_gpio.h ****                                           LL_GPIO_PIN_12 | LL_GPIO_PIN_13 | LL_GPIO_PIN_14 | \
 134:Drivers/STM32F1xx_HAL_Driver/Inc/stm32f1xx_ll_gpio.h ****                                           LL_GPIO_PIN_15)                                      /*!<
 135:Drivers/STM32F1xx_HAL_Driver/Inc/stm32f1xx_ll_gpio.h **** /**
 136:Drivers/STM32F1xx_HAL_Driver/Inc/stm32f1xx_ll_gpio.h ****   * @}
 137:Drivers/STM32F1xx_HAL_Driver/Inc/stm32f1xx_ll_gpio.h ****   */
 138:Drivers/STM32F1xx_HAL_Driver/Inc/stm32f1xx_ll_gpio.h **** 
 139:Drivers/STM32F1xx_HAL_Driver/Inc/stm32f1xx_ll_gpio.h **** /** @defgroup GPIO_LL_EC_MODE Mode
 140:Drivers/STM32F1xx_HAL_Driver/Inc/stm32f1xx_ll_gpio.h ****   * @{
 141:Drivers/STM32F1xx_HAL_Driver/Inc/stm32f1xx_ll_gpio.h ****   */
 142:Drivers/STM32F1xx_HAL_Driver/Inc/stm32f1xx_ll_gpio.h **** #define LL_GPIO_MODE_ANALOG              0x00000000U       /*!< Select analog mode */
 143:Drivers/STM32F1xx_HAL_Driver/Inc/stm32f1xx_ll_gpio.h **** #define LL_GPIO_MODE_FLOATING            GPIO_CRL_CNF0_0   /*!< Select floating mode */
 144:Drivers/STM32F1xx_HAL_Driver/Inc/stm32f1xx_ll_gpio.h **** #define LL_GPIO_MODE_INPUT               GPIO_CRL_CNF0_1   /*!< Select input mode */
 145:Drivers/STM32F1xx_HAL_Driver/Inc/stm32f1xx_ll_gpio.h **** #define LL_GPIO_MODE_OUTPUT              GPIO_CRL_MODE0_0  /*!< Select general purpose output mode 
 146:Drivers/STM32F1xx_HAL_Driver/Inc/stm32f1xx_ll_gpio.h **** #define LL_GPIO_MODE_ALTERNATE           (GPIO_CRL_CNF0_1 | GPIO_CRL_MODE0_0) /*!< Select alternate
 147:Drivers/STM32F1xx_HAL_Driver/Inc/stm32f1xx_ll_gpio.h **** /**
 148:Drivers/STM32F1xx_HAL_Driver/Inc/stm32f1xx_ll_gpio.h ****   * @}
 149:Drivers/STM32F1xx_HAL_Driver/Inc/stm32f1xx_ll_gpio.h ****   */
 150:Drivers/STM32F1xx_HAL_Driver/Inc/stm32f1xx_ll_gpio.h **** 
 151:Drivers/STM32F1xx_HAL_Driver/Inc/stm32f1xx_ll_gpio.h **** /** @defgroup GPIO_LL_EC_OUTPUT Output Type
 152:Drivers/STM32F1xx_HAL_Driver/Inc/stm32f1xx_ll_gpio.h ****   * @{
 153:Drivers/STM32F1xx_HAL_Driver/Inc/stm32f1xx_ll_gpio.h ****   */
 154:Drivers/STM32F1xx_HAL_Driver/Inc/stm32f1xx_ll_gpio.h **** #define LL_GPIO_OUTPUT_PUSHPULL          0x00000000U                /*!< Select push-pull as output
 155:Drivers/STM32F1xx_HAL_Driver/Inc/stm32f1xx_ll_gpio.h **** #define LL_GPIO_OUTPUT_OPENDRAIN         GPIO_CRL_CNF0_0            /*!< Select open-drain as outpu
 156:Drivers/STM32F1xx_HAL_Driver/Inc/stm32f1xx_ll_gpio.h **** /**
 157:Drivers/STM32F1xx_HAL_Driver/Inc/stm32f1xx_ll_gpio.h ****   * @}
 158:Drivers/STM32F1xx_HAL_Driver/Inc/stm32f1xx_ll_gpio.h ****   */
 159:Drivers/STM32F1xx_HAL_Driver/Inc/stm32f1xx_ll_gpio.h **** 
 160:Drivers/STM32F1xx_HAL_Driver/Inc/stm32f1xx_ll_gpio.h **** /** @defgroup GPIO_LL_EC_SPEED Output Speed
 161:Drivers/STM32F1xx_HAL_Driver/Inc/stm32f1xx_ll_gpio.h ****   * @{
 162:Drivers/STM32F1xx_HAL_Driver/Inc/stm32f1xx_ll_gpio.h ****   */
 163:Drivers/STM32F1xx_HAL_Driver/Inc/stm32f1xx_ll_gpio.h **** #define LL_GPIO_MODE_OUTPUT_10MHz        GPIO_CRL_MODE0_0            /*!< Select Output mode, max s
 164:Drivers/STM32F1xx_HAL_Driver/Inc/stm32f1xx_ll_gpio.h **** #define LL_GPIO_MODE_OUTPUT_2MHz         GPIO_CRL_MODE0_1            /*!< Select Output mode, max s
 165:Drivers/STM32F1xx_HAL_Driver/Inc/stm32f1xx_ll_gpio.h **** #define LL_GPIO_MODE_OUTPUT_50MHz        GPIO_CRL_MODE0              /*!< Select Output mode, max s
 166:Drivers/STM32F1xx_HAL_Driver/Inc/stm32f1xx_ll_gpio.h **** /**
 167:Drivers/STM32F1xx_HAL_Driver/Inc/stm32f1xx_ll_gpio.h ****   * @}
 168:Drivers/STM32F1xx_HAL_Driver/Inc/stm32f1xx_ll_gpio.h ****   */
 169:Drivers/STM32F1xx_HAL_Driver/Inc/stm32f1xx_ll_gpio.h **** 
 170:Drivers/STM32F1xx_HAL_Driver/Inc/stm32f1xx_ll_gpio.h **** #define LL_GPIO_SPEED_FREQ_LOW           LL_GPIO_MODE_OUTPUT_2MHz    /*!< Select I/O low output spe
 171:Drivers/STM32F1xx_HAL_Driver/Inc/stm32f1xx_ll_gpio.h **** #define LL_GPIO_SPEED_FREQ_MEDIUM        LL_GPIO_MODE_OUTPUT_10MHz   /*!< Select I/O medium output 
ARM GAS  C:\Users\Kaa\AppData\Local\Temp\ccMt5vPx.s 			page 5


 172:Drivers/STM32F1xx_HAL_Driver/Inc/stm32f1xx_ll_gpio.h **** #define LL_GPIO_SPEED_FREQ_HIGH          LL_GPIO_MODE_OUTPUT_50MHz   /*!< Select I/O high output sp
 173:Drivers/STM32F1xx_HAL_Driver/Inc/stm32f1xx_ll_gpio.h **** 
 174:Drivers/STM32F1xx_HAL_Driver/Inc/stm32f1xx_ll_gpio.h **** /** @defgroup GPIO_LL_EC_PULL Pull Up Pull Down
 175:Drivers/STM32F1xx_HAL_Driver/Inc/stm32f1xx_ll_gpio.h ****   * @{
 176:Drivers/STM32F1xx_HAL_Driver/Inc/stm32f1xx_ll_gpio.h ****   */
 177:Drivers/STM32F1xx_HAL_Driver/Inc/stm32f1xx_ll_gpio.h **** #define LL_GPIO_PULL_DOWN                0x00000000U    /*!< Select I/O pull down */
 178:Drivers/STM32F1xx_HAL_Driver/Inc/stm32f1xx_ll_gpio.h **** #define LL_GPIO_PULL_UP                  GPIO_ODR_ODR0  /*!< Select I/O pull up */
 179:Drivers/STM32F1xx_HAL_Driver/Inc/stm32f1xx_ll_gpio.h **** 
 180:Drivers/STM32F1xx_HAL_Driver/Inc/stm32f1xx_ll_gpio.h **** /**
 181:Drivers/STM32F1xx_HAL_Driver/Inc/stm32f1xx_ll_gpio.h ****   * @}
 182:Drivers/STM32F1xx_HAL_Driver/Inc/stm32f1xx_ll_gpio.h ****   */
 183:Drivers/STM32F1xx_HAL_Driver/Inc/stm32f1xx_ll_gpio.h **** 
 184:Drivers/STM32F1xx_HAL_Driver/Inc/stm32f1xx_ll_gpio.h **** /** @defgroup GPIO_LL_EVENTOUT_PIN EVENTOUT Pin
 185:Drivers/STM32F1xx_HAL_Driver/Inc/stm32f1xx_ll_gpio.h ****   * @{
 186:Drivers/STM32F1xx_HAL_Driver/Inc/stm32f1xx_ll_gpio.h ****   */
 187:Drivers/STM32F1xx_HAL_Driver/Inc/stm32f1xx_ll_gpio.h **** 
 188:Drivers/STM32F1xx_HAL_Driver/Inc/stm32f1xx_ll_gpio.h **** #define LL_GPIO_AF_EVENTOUT_PIN_0        AFIO_EVCR_PIN_PX0   /*!< EVENTOUT on pin 0 */
 189:Drivers/STM32F1xx_HAL_Driver/Inc/stm32f1xx_ll_gpio.h **** #define LL_GPIO_AF_EVENTOUT_PIN_1        AFIO_EVCR_PIN_PX1   /*!< EVENTOUT on pin 1 */
 190:Drivers/STM32F1xx_HAL_Driver/Inc/stm32f1xx_ll_gpio.h **** #define LL_GPIO_AF_EVENTOUT_PIN_2        AFIO_EVCR_PIN_PX2   /*!< EVENTOUT on pin 2 */
 191:Drivers/STM32F1xx_HAL_Driver/Inc/stm32f1xx_ll_gpio.h **** #define LL_GPIO_AF_EVENTOUT_PIN_3        AFIO_EVCR_PIN_PX3   /*!< EVENTOUT on pin 3 */
 192:Drivers/STM32F1xx_HAL_Driver/Inc/stm32f1xx_ll_gpio.h **** #define LL_GPIO_AF_EVENTOUT_PIN_4        AFIO_EVCR_PIN_PX4   /*!< EVENTOUT on pin 4 */
 193:Drivers/STM32F1xx_HAL_Driver/Inc/stm32f1xx_ll_gpio.h **** #define LL_GPIO_AF_EVENTOUT_PIN_5        AFIO_EVCR_PIN_PX5   /*!< EVENTOUT on pin 5 */
 194:Drivers/STM32F1xx_HAL_Driver/Inc/stm32f1xx_ll_gpio.h **** #define LL_GPIO_AF_EVENTOUT_PIN_6        AFIO_EVCR_PIN_PX6   /*!< EVENTOUT on pin 6 */
 195:Drivers/STM32F1xx_HAL_Driver/Inc/stm32f1xx_ll_gpio.h **** #define LL_GPIO_AF_EVENTOUT_PIN_7        AFIO_EVCR_PIN_PX7   /*!< EVENTOUT on pin 7 */
 196:Drivers/STM32F1xx_HAL_Driver/Inc/stm32f1xx_ll_gpio.h **** #define LL_GPIO_AF_EVENTOUT_PIN_8        AFIO_EVCR_PIN_PX8   /*!< EVENTOUT on pin 8 */
 197:Drivers/STM32F1xx_HAL_Driver/Inc/stm32f1xx_ll_gpio.h **** #define LL_GPIO_AF_EVENTOUT_PIN_9        AFIO_EVCR_PIN_PX9   /*!< EVENTOUT on pin 9 */
 198:Drivers/STM32F1xx_HAL_Driver/Inc/stm32f1xx_ll_gpio.h **** #define LL_GPIO_AF_EVENTOUT_PIN_10       AFIO_EVCR_PIN_PX10  /*!< EVENTOUT on pin 10 */
 199:Drivers/STM32F1xx_HAL_Driver/Inc/stm32f1xx_ll_gpio.h **** #define LL_GPIO_AF_EVENTOUT_PIN_11       AFIO_EVCR_PIN_PX11  /*!< EVENTOUT on pin 11 */
 200:Drivers/STM32F1xx_HAL_Driver/Inc/stm32f1xx_ll_gpio.h **** #define LL_GPIO_AF_EVENTOUT_PIN_12       AFIO_EVCR_PIN_PX12  /*!< EVENTOUT on pin 12 */
 201:Drivers/STM32F1xx_HAL_Driver/Inc/stm32f1xx_ll_gpio.h **** #define LL_GPIO_AF_EVENTOUT_PIN_13       AFIO_EVCR_PIN_PX13  /*!< EVENTOUT on pin 13 */
 202:Drivers/STM32F1xx_HAL_Driver/Inc/stm32f1xx_ll_gpio.h **** #define LL_GPIO_AF_EVENTOUT_PIN_14       AFIO_EVCR_PIN_PX14  /*!< EVENTOUT on pin 14 */
 203:Drivers/STM32F1xx_HAL_Driver/Inc/stm32f1xx_ll_gpio.h **** #define LL_GPIO_AF_EVENTOUT_PIN_15       AFIO_EVCR_PIN_PX15  /*!< EVENTOUT on pin 15 */
 204:Drivers/STM32F1xx_HAL_Driver/Inc/stm32f1xx_ll_gpio.h **** 
 205:Drivers/STM32F1xx_HAL_Driver/Inc/stm32f1xx_ll_gpio.h **** /**
 206:Drivers/STM32F1xx_HAL_Driver/Inc/stm32f1xx_ll_gpio.h ****   * @}
 207:Drivers/STM32F1xx_HAL_Driver/Inc/stm32f1xx_ll_gpio.h ****   */
 208:Drivers/STM32F1xx_HAL_Driver/Inc/stm32f1xx_ll_gpio.h **** 
 209:Drivers/STM32F1xx_HAL_Driver/Inc/stm32f1xx_ll_gpio.h **** /** @defgroup GPIO_LL_EVENTOUT_PORT EVENTOUT Port
 210:Drivers/STM32F1xx_HAL_Driver/Inc/stm32f1xx_ll_gpio.h ****   * @{
 211:Drivers/STM32F1xx_HAL_Driver/Inc/stm32f1xx_ll_gpio.h ****   */
 212:Drivers/STM32F1xx_HAL_Driver/Inc/stm32f1xx_ll_gpio.h **** 
 213:Drivers/STM32F1xx_HAL_Driver/Inc/stm32f1xx_ll_gpio.h **** #define LL_GPIO_AF_EVENTOUT_PORT_A       AFIO_EVCR_PORT_PA  /*!< EVENTOUT on port A */
 214:Drivers/STM32F1xx_HAL_Driver/Inc/stm32f1xx_ll_gpio.h **** #define LL_GPIO_AF_EVENTOUT_PORT_B       AFIO_EVCR_PORT_PB  /*!< EVENTOUT on port B */
 215:Drivers/STM32F1xx_HAL_Driver/Inc/stm32f1xx_ll_gpio.h **** #define LL_GPIO_AF_EVENTOUT_PORT_C       AFIO_EVCR_PORT_PC  /*!< EVENTOUT on port C */
 216:Drivers/STM32F1xx_HAL_Driver/Inc/stm32f1xx_ll_gpio.h **** #define LL_GPIO_AF_EVENTOUT_PORT_D       AFIO_EVCR_PORT_PD  /*!< EVENTOUT on port D */
 217:Drivers/STM32F1xx_HAL_Driver/Inc/stm32f1xx_ll_gpio.h **** #define LL_GPIO_AF_EVENTOUT_PORT_E       AFIO_EVCR_PORT_PE  /*!< EVENTOUT on port E */
 218:Drivers/STM32F1xx_HAL_Driver/Inc/stm32f1xx_ll_gpio.h **** 
 219:Drivers/STM32F1xx_HAL_Driver/Inc/stm32f1xx_ll_gpio.h **** /**
 220:Drivers/STM32F1xx_HAL_Driver/Inc/stm32f1xx_ll_gpio.h ****   * @}
 221:Drivers/STM32F1xx_HAL_Driver/Inc/stm32f1xx_ll_gpio.h ****   */
 222:Drivers/STM32F1xx_HAL_Driver/Inc/stm32f1xx_ll_gpio.h **** 
 223:Drivers/STM32F1xx_HAL_Driver/Inc/stm32f1xx_ll_gpio.h **** /** @defgroup GPIO_LL_EC_EXTI_PORT GPIO EXTI PORT
 224:Drivers/STM32F1xx_HAL_Driver/Inc/stm32f1xx_ll_gpio.h ****   * @{
 225:Drivers/STM32F1xx_HAL_Driver/Inc/stm32f1xx_ll_gpio.h ****   */
 226:Drivers/STM32F1xx_HAL_Driver/Inc/stm32f1xx_ll_gpio.h **** #define LL_GPIO_AF_EXTI_PORTA            0U   /*!< EXTI PORT A */
 227:Drivers/STM32F1xx_HAL_Driver/Inc/stm32f1xx_ll_gpio.h **** #define LL_GPIO_AF_EXTI_PORTB            1U   /*!< EXTI PORT B */
 228:Drivers/STM32F1xx_HAL_Driver/Inc/stm32f1xx_ll_gpio.h **** #define LL_GPIO_AF_EXTI_PORTC            2U   /*!< EXTI PORT C */
ARM GAS  C:\Users\Kaa\AppData\Local\Temp\ccMt5vPx.s 			page 6


 229:Drivers/STM32F1xx_HAL_Driver/Inc/stm32f1xx_ll_gpio.h **** #define LL_GPIO_AF_EXTI_PORTD            3U   /*!< EXTI PORT D */
 230:Drivers/STM32F1xx_HAL_Driver/Inc/stm32f1xx_ll_gpio.h **** #define LL_GPIO_AF_EXTI_PORTE            4U   /*!< EXTI PORT E */
 231:Drivers/STM32F1xx_HAL_Driver/Inc/stm32f1xx_ll_gpio.h **** #define LL_GPIO_AF_EXTI_PORTF            5U   /*!< EXTI PORT F */
 232:Drivers/STM32F1xx_HAL_Driver/Inc/stm32f1xx_ll_gpio.h **** #define LL_GPIO_AF_EXTI_PORTG            6U   /*!< EXTI PORT G */
 233:Drivers/STM32F1xx_HAL_Driver/Inc/stm32f1xx_ll_gpio.h **** /**
 234:Drivers/STM32F1xx_HAL_Driver/Inc/stm32f1xx_ll_gpio.h ****   * @}
 235:Drivers/STM32F1xx_HAL_Driver/Inc/stm32f1xx_ll_gpio.h ****   */
 236:Drivers/STM32F1xx_HAL_Driver/Inc/stm32f1xx_ll_gpio.h **** 
 237:Drivers/STM32F1xx_HAL_Driver/Inc/stm32f1xx_ll_gpio.h **** /** @defgroup GPIO_LL_EC_EXTI_LINE GPIO EXTI LINE
 238:Drivers/STM32F1xx_HAL_Driver/Inc/stm32f1xx_ll_gpio.h ****   * @{
 239:Drivers/STM32F1xx_HAL_Driver/Inc/stm32f1xx_ll_gpio.h ****   */
 240:Drivers/STM32F1xx_HAL_Driver/Inc/stm32f1xx_ll_gpio.h **** #define LL_GPIO_AF_EXTI_LINE0            (0x000FU << 16U | 0U)  /*!< EXTI_POSITION_0  | EXTICR[0] *
 241:Drivers/STM32F1xx_HAL_Driver/Inc/stm32f1xx_ll_gpio.h **** #define LL_GPIO_AF_EXTI_LINE1            (0x00F0U << 16U | 0U)  /*!< EXTI_POSITION_4  | EXTICR[0] *
 242:Drivers/STM32F1xx_HAL_Driver/Inc/stm32f1xx_ll_gpio.h **** #define LL_GPIO_AF_EXTI_LINE2            (0x0F00U << 16U | 0U)  /*!< EXTI_POSITION_8  | EXTICR[0] *
 243:Drivers/STM32F1xx_HAL_Driver/Inc/stm32f1xx_ll_gpio.h **** #define LL_GPIO_AF_EXTI_LINE3            (0xF000U << 16U | 0U)  /*!< EXTI_POSITION_12 | EXTICR[0] *
 244:Drivers/STM32F1xx_HAL_Driver/Inc/stm32f1xx_ll_gpio.h **** #define LL_GPIO_AF_EXTI_LINE4            (0x000FU << 16U | 1U)  /*!< EXTI_POSITION_0  | EXTICR[1] *
 245:Drivers/STM32F1xx_HAL_Driver/Inc/stm32f1xx_ll_gpio.h **** #define LL_GPIO_AF_EXTI_LINE5            (0x00F0U << 16U | 1U)  /*!< EXTI_POSITION_4  | EXTICR[1] *
 246:Drivers/STM32F1xx_HAL_Driver/Inc/stm32f1xx_ll_gpio.h **** #define LL_GPIO_AF_EXTI_LINE6            (0x0F00U << 16U | 1U)  /*!< EXTI_POSITION_8  | EXTICR[1] *
 247:Drivers/STM32F1xx_HAL_Driver/Inc/stm32f1xx_ll_gpio.h **** #define LL_GPIO_AF_EXTI_LINE7            (0xF000U << 16U | 1U)  /*!< EXTI_POSITION_12 | EXTICR[1] *
 248:Drivers/STM32F1xx_HAL_Driver/Inc/stm32f1xx_ll_gpio.h **** #define LL_GPIO_AF_EXTI_LINE8            (0x000FU << 16U | 2U)  /*!< EXTI_POSITION_0  | EXTICR[2] *
 249:Drivers/STM32F1xx_HAL_Driver/Inc/stm32f1xx_ll_gpio.h **** #define LL_GPIO_AF_EXTI_LINE9            (0x00F0U << 16U | 2U)  /*!< EXTI_POSITION_4  | EXTICR[2] *
 250:Drivers/STM32F1xx_HAL_Driver/Inc/stm32f1xx_ll_gpio.h **** #define LL_GPIO_AF_EXTI_LINE10           (0x0F00U << 16U | 2U)  /*!< EXTI_POSITION_8  | EXTICR[2] *
 251:Drivers/STM32F1xx_HAL_Driver/Inc/stm32f1xx_ll_gpio.h **** #define LL_GPIO_AF_EXTI_LINE11           (0xF000U << 16U | 2U)  /*!< EXTI_POSITION_12 | EXTICR[2] *
 252:Drivers/STM32F1xx_HAL_Driver/Inc/stm32f1xx_ll_gpio.h **** #define LL_GPIO_AF_EXTI_LINE12           (0x000FU << 16U | 3U)  /*!< EXTI_POSITION_0  | EXTICR[3] *
 253:Drivers/STM32F1xx_HAL_Driver/Inc/stm32f1xx_ll_gpio.h **** #define LL_GPIO_AF_EXTI_LINE13           (0x00F0U << 16U | 3U)  /*!< EXTI_POSITION_4  | EXTICR[3] *
 254:Drivers/STM32F1xx_HAL_Driver/Inc/stm32f1xx_ll_gpio.h **** #define LL_GPIO_AF_EXTI_LINE14           (0x0F00U << 16U | 3U)  /*!< EXTI_POSITION_8  | EXTICR[3] *
 255:Drivers/STM32F1xx_HAL_Driver/Inc/stm32f1xx_ll_gpio.h **** #define LL_GPIO_AF_EXTI_LINE15           (0xF000U << 16U | 3U)  /*!< EXTI_POSITION_12 | EXTICR[3] *
 256:Drivers/STM32F1xx_HAL_Driver/Inc/stm32f1xx_ll_gpio.h **** /**
 257:Drivers/STM32F1xx_HAL_Driver/Inc/stm32f1xx_ll_gpio.h ****   * @}
 258:Drivers/STM32F1xx_HAL_Driver/Inc/stm32f1xx_ll_gpio.h ****   */
 259:Drivers/STM32F1xx_HAL_Driver/Inc/stm32f1xx_ll_gpio.h **** 
 260:Drivers/STM32F1xx_HAL_Driver/Inc/stm32f1xx_ll_gpio.h **** /**
 261:Drivers/STM32F1xx_HAL_Driver/Inc/stm32f1xx_ll_gpio.h ****   * @}
 262:Drivers/STM32F1xx_HAL_Driver/Inc/stm32f1xx_ll_gpio.h ****   */
 263:Drivers/STM32F1xx_HAL_Driver/Inc/stm32f1xx_ll_gpio.h **** 
 264:Drivers/STM32F1xx_HAL_Driver/Inc/stm32f1xx_ll_gpio.h **** /* Exported macro ------------------------------------------------------------*/
 265:Drivers/STM32F1xx_HAL_Driver/Inc/stm32f1xx_ll_gpio.h **** /** @defgroup GPIO_LL_Exported_Macros GPIO Exported Macros
 266:Drivers/STM32F1xx_HAL_Driver/Inc/stm32f1xx_ll_gpio.h ****   * @{
 267:Drivers/STM32F1xx_HAL_Driver/Inc/stm32f1xx_ll_gpio.h ****   */
 268:Drivers/STM32F1xx_HAL_Driver/Inc/stm32f1xx_ll_gpio.h **** 
 269:Drivers/STM32F1xx_HAL_Driver/Inc/stm32f1xx_ll_gpio.h **** /** @defgroup GPIO_LL_EM_WRITE_READ Common Write and read registers Macros
 270:Drivers/STM32F1xx_HAL_Driver/Inc/stm32f1xx_ll_gpio.h ****   * @{
 271:Drivers/STM32F1xx_HAL_Driver/Inc/stm32f1xx_ll_gpio.h ****   */
 272:Drivers/STM32F1xx_HAL_Driver/Inc/stm32f1xx_ll_gpio.h **** 
 273:Drivers/STM32F1xx_HAL_Driver/Inc/stm32f1xx_ll_gpio.h **** /**
 274:Drivers/STM32F1xx_HAL_Driver/Inc/stm32f1xx_ll_gpio.h ****   * @brief  Write a value in GPIO register
 275:Drivers/STM32F1xx_HAL_Driver/Inc/stm32f1xx_ll_gpio.h ****   * @param  __INSTANCE__ GPIO Instance
 276:Drivers/STM32F1xx_HAL_Driver/Inc/stm32f1xx_ll_gpio.h ****   * @param  __REG__ Register to be written
 277:Drivers/STM32F1xx_HAL_Driver/Inc/stm32f1xx_ll_gpio.h ****   * @param  __VALUE__ Value to be written in the register
 278:Drivers/STM32F1xx_HAL_Driver/Inc/stm32f1xx_ll_gpio.h ****   * @retval None
 279:Drivers/STM32F1xx_HAL_Driver/Inc/stm32f1xx_ll_gpio.h ****   */
 280:Drivers/STM32F1xx_HAL_Driver/Inc/stm32f1xx_ll_gpio.h **** #define LL_GPIO_WriteReg(__INSTANCE__, __REG__, __VALUE__) WRITE_REG(__INSTANCE__->__REG__, (__VALU
 281:Drivers/STM32F1xx_HAL_Driver/Inc/stm32f1xx_ll_gpio.h **** 
 282:Drivers/STM32F1xx_HAL_Driver/Inc/stm32f1xx_ll_gpio.h **** /**
 283:Drivers/STM32F1xx_HAL_Driver/Inc/stm32f1xx_ll_gpio.h ****   * @brief  Read a value in GPIO register
 284:Drivers/STM32F1xx_HAL_Driver/Inc/stm32f1xx_ll_gpio.h ****   * @param  __INSTANCE__ GPIO Instance
 285:Drivers/STM32F1xx_HAL_Driver/Inc/stm32f1xx_ll_gpio.h ****   * @param  __REG__ Register to be read
ARM GAS  C:\Users\Kaa\AppData\Local\Temp\ccMt5vPx.s 			page 7


 286:Drivers/STM32F1xx_HAL_Driver/Inc/stm32f1xx_ll_gpio.h ****   * @retval Register value
 287:Drivers/STM32F1xx_HAL_Driver/Inc/stm32f1xx_ll_gpio.h ****   */
 288:Drivers/STM32F1xx_HAL_Driver/Inc/stm32f1xx_ll_gpio.h **** #define LL_GPIO_ReadReg(__INSTANCE__, __REG__) READ_REG(__INSTANCE__->__REG__)
 289:Drivers/STM32F1xx_HAL_Driver/Inc/stm32f1xx_ll_gpio.h **** /**
 290:Drivers/STM32F1xx_HAL_Driver/Inc/stm32f1xx_ll_gpio.h ****   * @}
 291:Drivers/STM32F1xx_HAL_Driver/Inc/stm32f1xx_ll_gpio.h ****   */
 292:Drivers/STM32F1xx_HAL_Driver/Inc/stm32f1xx_ll_gpio.h **** 
 293:Drivers/STM32F1xx_HAL_Driver/Inc/stm32f1xx_ll_gpio.h **** /**
 294:Drivers/STM32F1xx_HAL_Driver/Inc/stm32f1xx_ll_gpio.h ****   * @}
 295:Drivers/STM32F1xx_HAL_Driver/Inc/stm32f1xx_ll_gpio.h ****   */
 296:Drivers/STM32F1xx_HAL_Driver/Inc/stm32f1xx_ll_gpio.h **** 
 297:Drivers/STM32F1xx_HAL_Driver/Inc/stm32f1xx_ll_gpio.h **** /* Exported functions --------------------------------------------------------*/
 298:Drivers/STM32F1xx_HAL_Driver/Inc/stm32f1xx_ll_gpio.h **** /** @defgroup GPIO_LL_Exported_Functions GPIO Exported Functions
 299:Drivers/STM32F1xx_HAL_Driver/Inc/stm32f1xx_ll_gpio.h ****   * @{
 300:Drivers/STM32F1xx_HAL_Driver/Inc/stm32f1xx_ll_gpio.h ****   */
 301:Drivers/STM32F1xx_HAL_Driver/Inc/stm32f1xx_ll_gpio.h **** 
 302:Drivers/STM32F1xx_HAL_Driver/Inc/stm32f1xx_ll_gpio.h **** /** @defgroup GPIO_LL_EF_Port_Configuration Port Configuration
 303:Drivers/STM32F1xx_HAL_Driver/Inc/stm32f1xx_ll_gpio.h ****   * @{
 304:Drivers/STM32F1xx_HAL_Driver/Inc/stm32f1xx_ll_gpio.h ****   */
 305:Drivers/STM32F1xx_HAL_Driver/Inc/stm32f1xx_ll_gpio.h **** 
 306:Drivers/STM32F1xx_HAL_Driver/Inc/stm32f1xx_ll_gpio.h **** /**
 307:Drivers/STM32F1xx_HAL_Driver/Inc/stm32f1xx_ll_gpio.h ****   * @brief  Configure gpio mode for a dedicated pin on dedicated port.
 308:Drivers/STM32F1xx_HAL_Driver/Inc/stm32f1xx_ll_gpio.h ****   * @note   I/O mode can be Analog, Floating input, Input with pull-up/pull-down, General purpose O
 309:Drivers/STM32F1xx_HAL_Driver/Inc/stm32f1xx_ll_gpio.h ****   *         Alternate function Output.
 310:Drivers/STM32F1xx_HAL_Driver/Inc/stm32f1xx_ll_gpio.h ****   * @note   Warning: only one pin can be passed as parameter.
 311:Drivers/STM32F1xx_HAL_Driver/Inc/stm32f1xx_ll_gpio.h ****   * @rmtoll CRL        CNFy         LL_GPIO_SetPinMode
 312:Drivers/STM32F1xx_HAL_Driver/Inc/stm32f1xx_ll_gpio.h ****   * @rmtoll CRL        MODEy        LL_GPIO_SetPinMode
 313:Drivers/STM32F1xx_HAL_Driver/Inc/stm32f1xx_ll_gpio.h ****   * @rmtoll CRH        CNFy         LL_GPIO_SetPinMode
 314:Drivers/STM32F1xx_HAL_Driver/Inc/stm32f1xx_ll_gpio.h ****   * @rmtoll CRH        MODEy        LL_GPIO_SetPinMode
 315:Drivers/STM32F1xx_HAL_Driver/Inc/stm32f1xx_ll_gpio.h ****   * @param  GPIOx GPIO Port
 316:Drivers/STM32F1xx_HAL_Driver/Inc/stm32f1xx_ll_gpio.h ****   * @param  Pin This parameter can be one of the following values:
 317:Drivers/STM32F1xx_HAL_Driver/Inc/stm32f1xx_ll_gpio.h ****   *         @arg @ref LL_GPIO_PIN_0
 318:Drivers/STM32F1xx_HAL_Driver/Inc/stm32f1xx_ll_gpio.h ****   *         @arg @ref LL_GPIO_PIN_1
 319:Drivers/STM32F1xx_HAL_Driver/Inc/stm32f1xx_ll_gpio.h ****   *         @arg @ref LL_GPIO_PIN_2
 320:Drivers/STM32F1xx_HAL_Driver/Inc/stm32f1xx_ll_gpio.h ****   *         @arg @ref LL_GPIO_PIN_3
 321:Drivers/STM32F1xx_HAL_Driver/Inc/stm32f1xx_ll_gpio.h ****   *         @arg @ref LL_GPIO_PIN_4
 322:Drivers/STM32F1xx_HAL_Driver/Inc/stm32f1xx_ll_gpio.h ****   *         @arg @ref LL_GPIO_PIN_5
 323:Drivers/STM32F1xx_HAL_Driver/Inc/stm32f1xx_ll_gpio.h ****   *         @arg @ref LL_GPIO_PIN_6
 324:Drivers/STM32F1xx_HAL_Driver/Inc/stm32f1xx_ll_gpio.h ****   *         @arg @ref LL_GPIO_PIN_7
 325:Drivers/STM32F1xx_HAL_Driver/Inc/stm32f1xx_ll_gpio.h ****   *         @arg @ref LL_GPIO_PIN_8
 326:Drivers/STM32F1xx_HAL_Driver/Inc/stm32f1xx_ll_gpio.h ****   *         @arg @ref LL_GPIO_PIN_9
 327:Drivers/STM32F1xx_HAL_Driver/Inc/stm32f1xx_ll_gpio.h ****   *         @arg @ref LL_GPIO_PIN_10
 328:Drivers/STM32F1xx_HAL_Driver/Inc/stm32f1xx_ll_gpio.h ****   *         @arg @ref LL_GPIO_PIN_11
 329:Drivers/STM32F1xx_HAL_Driver/Inc/stm32f1xx_ll_gpio.h ****   *         @arg @ref LL_GPIO_PIN_12
 330:Drivers/STM32F1xx_HAL_Driver/Inc/stm32f1xx_ll_gpio.h ****   *         @arg @ref LL_GPIO_PIN_13
 331:Drivers/STM32F1xx_HAL_Driver/Inc/stm32f1xx_ll_gpio.h ****   *         @arg @ref LL_GPIO_PIN_14
 332:Drivers/STM32F1xx_HAL_Driver/Inc/stm32f1xx_ll_gpio.h ****   *         @arg @ref LL_GPIO_PIN_15
 333:Drivers/STM32F1xx_HAL_Driver/Inc/stm32f1xx_ll_gpio.h ****   * @param  Mode This parameter can be one of the following values:
 334:Drivers/STM32F1xx_HAL_Driver/Inc/stm32f1xx_ll_gpio.h ****   *         @arg @ref LL_GPIO_MODE_ANALOG
 335:Drivers/STM32F1xx_HAL_Driver/Inc/stm32f1xx_ll_gpio.h ****   *         @arg @ref LL_GPIO_MODE_FLOATING
 336:Drivers/STM32F1xx_HAL_Driver/Inc/stm32f1xx_ll_gpio.h ****   *         @arg @ref LL_GPIO_MODE_INPUT
 337:Drivers/STM32F1xx_HAL_Driver/Inc/stm32f1xx_ll_gpio.h ****   *         @arg @ref LL_GPIO_MODE_OUTPUT
 338:Drivers/STM32F1xx_HAL_Driver/Inc/stm32f1xx_ll_gpio.h ****   *         @arg @ref LL_GPIO_MODE_ALTERNATE
 339:Drivers/STM32F1xx_HAL_Driver/Inc/stm32f1xx_ll_gpio.h ****   * @retval None
 340:Drivers/STM32F1xx_HAL_Driver/Inc/stm32f1xx_ll_gpio.h ****   */
 341:Drivers/STM32F1xx_HAL_Driver/Inc/stm32f1xx_ll_gpio.h **** __STATIC_INLINE void LL_GPIO_SetPinMode(GPIO_TypeDef *GPIOx, uint32_t Pin, uint32_t Mode)
  44              		.loc 2 341 22 view .LVU2
ARM GAS  C:\Users\Kaa\AppData\Local\Temp\ccMt5vPx.s 			page 8


  45              	.LBB691:
 342:Drivers/STM32F1xx_HAL_Driver/Inc/stm32f1xx_ll_gpio.h **** {
 343:Drivers/STM32F1xx_HAL_Driver/Inc/stm32f1xx_ll_gpio.h ****   register uint32_t *pReg = (uint32_t *)((uint32_t)((uint32_t)(&GPIOx->CRL) + (Pin >> 24)));
  46              		.loc 2 343 3 view .LVU3
  47              		.loc 2 343 64 is_stmt 0 view .LVU4
  48 0002 FB49     		ldr	r1, .L3
  49              	.LVL1:
 344:Drivers/STM32F1xx_HAL_Driver/Inc/stm32f1xx_ll_gpio.h ****   MODIFY_REG(*pReg, ((GPIO_CRL_CNF0 | GPIO_CRL_MODE0) << (POSITION_VAL(Pin) * 4U)), (Mode << (POSIT
  50              		.loc 2 344 3 is_stmt 1 view .LVU5
  51 0004 0B68     		ldr	r3, [r1]
  52              	.LVL2:
  53              	.LBB692:
  54              	.LBI692:
  55              		.file 3 "Drivers/CMSIS/Include/cmsis_gcc.h"
   1:Drivers/CMSIS/Include/cmsis_gcc.h **** /**************************************************************************//**
   2:Drivers/CMSIS/Include/cmsis_gcc.h ****  * @file     cmsis_gcc.h
   3:Drivers/CMSIS/Include/cmsis_gcc.h ****  * @brief    CMSIS compiler GCC header file
   4:Drivers/CMSIS/Include/cmsis_gcc.h ****  * @version  V5.0.4
   5:Drivers/CMSIS/Include/cmsis_gcc.h ****  * @date     09. April 2018
   6:Drivers/CMSIS/Include/cmsis_gcc.h ****  ******************************************************************************/
   7:Drivers/CMSIS/Include/cmsis_gcc.h **** /*
   8:Drivers/CMSIS/Include/cmsis_gcc.h ****  * Copyright (c) 2009-2018 Arm Limited. All rights reserved.
   9:Drivers/CMSIS/Include/cmsis_gcc.h ****  *
  10:Drivers/CMSIS/Include/cmsis_gcc.h ****  * SPDX-License-Identifier: Apache-2.0
  11:Drivers/CMSIS/Include/cmsis_gcc.h ****  *
  12:Drivers/CMSIS/Include/cmsis_gcc.h ****  * Licensed under the Apache License, Version 2.0 (the License); you may
  13:Drivers/CMSIS/Include/cmsis_gcc.h ****  * not use this file except in compliance with the License.
  14:Drivers/CMSIS/Include/cmsis_gcc.h ****  * You may obtain a copy of the License at
  15:Drivers/CMSIS/Include/cmsis_gcc.h ****  *
  16:Drivers/CMSIS/Include/cmsis_gcc.h ****  * www.apache.org/licenses/LICENSE-2.0
  17:Drivers/CMSIS/Include/cmsis_gcc.h ****  *
  18:Drivers/CMSIS/Include/cmsis_gcc.h ****  * Unless required by applicable law or agreed to in writing, software
  19:Drivers/CMSIS/Include/cmsis_gcc.h ****  * distributed under the License is distributed on an AS IS BASIS, WITHOUT
  20:Drivers/CMSIS/Include/cmsis_gcc.h ****  * WARRANTIES OR CONDITIONS OF ANY KIND, either express or implied.
  21:Drivers/CMSIS/Include/cmsis_gcc.h ****  * See the License for the specific language governing permissions and
  22:Drivers/CMSIS/Include/cmsis_gcc.h ****  * limitations under the License.
  23:Drivers/CMSIS/Include/cmsis_gcc.h ****  */
  24:Drivers/CMSIS/Include/cmsis_gcc.h **** 
  25:Drivers/CMSIS/Include/cmsis_gcc.h **** #ifndef __CMSIS_GCC_H
  26:Drivers/CMSIS/Include/cmsis_gcc.h **** #define __CMSIS_GCC_H
  27:Drivers/CMSIS/Include/cmsis_gcc.h **** 
  28:Drivers/CMSIS/Include/cmsis_gcc.h **** /* ignore some GCC warnings */
  29:Drivers/CMSIS/Include/cmsis_gcc.h **** #pragma GCC diagnostic push
  30:Drivers/CMSIS/Include/cmsis_gcc.h **** #pragma GCC diagnostic ignored "-Wsign-conversion"
  31:Drivers/CMSIS/Include/cmsis_gcc.h **** #pragma GCC diagnostic ignored "-Wconversion"
  32:Drivers/CMSIS/Include/cmsis_gcc.h **** #pragma GCC diagnostic ignored "-Wunused-parameter"
  33:Drivers/CMSIS/Include/cmsis_gcc.h **** 
  34:Drivers/CMSIS/Include/cmsis_gcc.h **** /* Fallback for __has_builtin */
  35:Drivers/CMSIS/Include/cmsis_gcc.h **** #ifndef __has_builtin
  36:Drivers/CMSIS/Include/cmsis_gcc.h ****   #define __has_builtin(x) (0)
  37:Drivers/CMSIS/Include/cmsis_gcc.h **** #endif
  38:Drivers/CMSIS/Include/cmsis_gcc.h **** 
  39:Drivers/CMSIS/Include/cmsis_gcc.h **** /* CMSIS compiler specific defines */
  40:Drivers/CMSIS/Include/cmsis_gcc.h **** #ifndef   __ASM
  41:Drivers/CMSIS/Include/cmsis_gcc.h ****   #define __ASM                                  __asm
  42:Drivers/CMSIS/Include/cmsis_gcc.h **** #endif
  43:Drivers/CMSIS/Include/cmsis_gcc.h **** #ifndef   __INLINE
ARM GAS  C:\Users\Kaa\AppData\Local\Temp\ccMt5vPx.s 			page 9


  44:Drivers/CMSIS/Include/cmsis_gcc.h ****   #define __INLINE                               inline
  45:Drivers/CMSIS/Include/cmsis_gcc.h **** #endif
  46:Drivers/CMSIS/Include/cmsis_gcc.h **** #ifndef   __STATIC_INLINE
  47:Drivers/CMSIS/Include/cmsis_gcc.h ****   #define __STATIC_INLINE                        static inline
  48:Drivers/CMSIS/Include/cmsis_gcc.h **** #endif
  49:Drivers/CMSIS/Include/cmsis_gcc.h **** #ifndef   __STATIC_FORCEINLINE                 
  50:Drivers/CMSIS/Include/cmsis_gcc.h ****   #define __STATIC_FORCEINLINE                   __attribute__((always_inline)) static inline
  51:Drivers/CMSIS/Include/cmsis_gcc.h **** #endif                                           
  52:Drivers/CMSIS/Include/cmsis_gcc.h **** #ifndef   __NO_RETURN
  53:Drivers/CMSIS/Include/cmsis_gcc.h ****   #define __NO_RETURN                            __attribute__((__noreturn__))
  54:Drivers/CMSIS/Include/cmsis_gcc.h **** #endif
  55:Drivers/CMSIS/Include/cmsis_gcc.h **** #ifndef   __USED
  56:Drivers/CMSIS/Include/cmsis_gcc.h ****   #define __USED                                 __attribute__((used))
  57:Drivers/CMSIS/Include/cmsis_gcc.h **** #endif
  58:Drivers/CMSIS/Include/cmsis_gcc.h **** #ifndef   __WEAK
  59:Drivers/CMSIS/Include/cmsis_gcc.h ****   #define __WEAK                                 __attribute__((weak))
  60:Drivers/CMSIS/Include/cmsis_gcc.h **** #endif
  61:Drivers/CMSIS/Include/cmsis_gcc.h **** #ifndef   __PACKED
  62:Drivers/CMSIS/Include/cmsis_gcc.h ****   #define __PACKED                               __attribute__((packed, aligned(1)))
  63:Drivers/CMSIS/Include/cmsis_gcc.h **** #endif
  64:Drivers/CMSIS/Include/cmsis_gcc.h **** #ifndef   __PACKED_STRUCT
  65:Drivers/CMSIS/Include/cmsis_gcc.h ****   #define __PACKED_STRUCT                        struct __attribute__((packed, aligned(1)))
  66:Drivers/CMSIS/Include/cmsis_gcc.h **** #endif
  67:Drivers/CMSIS/Include/cmsis_gcc.h **** #ifndef   __PACKED_UNION
  68:Drivers/CMSIS/Include/cmsis_gcc.h ****   #define __PACKED_UNION                         union __attribute__((packed, aligned(1)))
  69:Drivers/CMSIS/Include/cmsis_gcc.h **** #endif
  70:Drivers/CMSIS/Include/cmsis_gcc.h **** #ifndef   __UNALIGNED_UINT32        /* deprecated */
  71:Drivers/CMSIS/Include/cmsis_gcc.h ****   #pragma GCC diagnostic push
  72:Drivers/CMSIS/Include/cmsis_gcc.h ****   #pragma GCC diagnostic ignored "-Wpacked"
  73:Drivers/CMSIS/Include/cmsis_gcc.h ****   #pragma GCC diagnostic ignored "-Wattributes"
  74:Drivers/CMSIS/Include/cmsis_gcc.h ****   struct __attribute__((packed)) T_UINT32 { uint32_t v; };
  75:Drivers/CMSIS/Include/cmsis_gcc.h ****   #pragma GCC diagnostic pop
  76:Drivers/CMSIS/Include/cmsis_gcc.h ****   #define __UNALIGNED_UINT32(x)                  (((struct T_UINT32 *)(x))->v)
  77:Drivers/CMSIS/Include/cmsis_gcc.h **** #endif
  78:Drivers/CMSIS/Include/cmsis_gcc.h **** #ifndef   __UNALIGNED_UINT16_WRITE
  79:Drivers/CMSIS/Include/cmsis_gcc.h ****   #pragma GCC diagnostic push
  80:Drivers/CMSIS/Include/cmsis_gcc.h ****   #pragma GCC diagnostic ignored "-Wpacked"
  81:Drivers/CMSIS/Include/cmsis_gcc.h ****   #pragma GCC diagnostic ignored "-Wattributes"
  82:Drivers/CMSIS/Include/cmsis_gcc.h ****   __PACKED_STRUCT T_UINT16_WRITE { uint16_t v; };
  83:Drivers/CMSIS/Include/cmsis_gcc.h ****   #pragma GCC diagnostic pop
  84:Drivers/CMSIS/Include/cmsis_gcc.h ****   #define __UNALIGNED_UINT16_WRITE(addr, val)    (void)((((struct T_UINT16_WRITE *)(void *)(addr))-
  85:Drivers/CMSIS/Include/cmsis_gcc.h **** #endif
  86:Drivers/CMSIS/Include/cmsis_gcc.h **** #ifndef   __UNALIGNED_UINT16_READ
  87:Drivers/CMSIS/Include/cmsis_gcc.h ****   #pragma GCC diagnostic push
  88:Drivers/CMSIS/Include/cmsis_gcc.h ****   #pragma GCC diagnostic ignored "-Wpacked"
  89:Drivers/CMSIS/Include/cmsis_gcc.h ****   #pragma GCC diagnostic ignored "-Wattributes"
  90:Drivers/CMSIS/Include/cmsis_gcc.h ****   __PACKED_STRUCT T_UINT16_READ { uint16_t v; };
  91:Drivers/CMSIS/Include/cmsis_gcc.h ****   #pragma GCC diagnostic pop
  92:Drivers/CMSIS/Include/cmsis_gcc.h ****   #define __UNALIGNED_UINT16_READ(addr)          (((const struct T_UINT16_READ *)(const void *)(add
  93:Drivers/CMSIS/Include/cmsis_gcc.h **** #endif
  94:Drivers/CMSIS/Include/cmsis_gcc.h **** #ifndef   __UNALIGNED_UINT32_WRITE
  95:Drivers/CMSIS/Include/cmsis_gcc.h ****   #pragma GCC diagnostic push
  96:Drivers/CMSIS/Include/cmsis_gcc.h ****   #pragma GCC diagnostic ignored "-Wpacked"
  97:Drivers/CMSIS/Include/cmsis_gcc.h ****   #pragma GCC diagnostic ignored "-Wattributes"
  98:Drivers/CMSIS/Include/cmsis_gcc.h ****   __PACKED_STRUCT T_UINT32_WRITE { uint32_t v; };
  99:Drivers/CMSIS/Include/cmsis_gcc.h ****   #pragma GCC diagnostic pop
 100:Drivers/CMSIS/Include/cmsis_gcc.h ****   #define __UNALIGNED_UINT32_WRITE(addr, val)    (void)((((struct T_UINT32_WRITE *)(void *)(addr))-
ARM GAS  C:\Users\Kaa\AppData\Local\Temp\ccMt5vPx.s 			page 10


 101:Drivers/CMSIS/Include/cmsis_gcc.h **** #endif
 102:Drivers/CMSIS/Include/cmsis_gcc.h **** #ifndef   __UNALIGNED_UINT32_READ
 103:Drivers/CMSIS/Include/cmsis_gcc.h ****   #pragma GCC diagnostic push
 104:Drivers/CMSIS/Include/cmsis_gcc.h ****   #pragma GCC diagnostic ignored "-Wpacked"
 105:Drivers/CMSIS/Include/cmsis_gcc.h ****   #pragma GCC diagnostic ignored "-Wattributes"
 106:Drivers/CMSIS/Include/cmsis_gcc.h ****   __PACKED_STRUCT T_UINT32_READ { uint32_t v; };
 107:Drivers/CMSIS/Include/cmsis_gcc.h ****   #pragma GCC diagnostic pop
 108:Drivers/CMSIS/Include/cmsis_gcc.h ****   #define __UNALIGNED_UINT32_READ(addr)          (((const struct T_UINT32_READ *)(const void *)(add
 109:Drivers/CMSIS/Include/cmsis_gcc.h **** #endif
 110:Drivers/CMSIS/Include/cmsis_gcc.h **** #ifndef   __ALIGNED
 111:Drivers/CMSIS/Include/cmsis_gcc.h ****   #define __ALIGNED(x)                           __attribute__((aligned(x)))
 112:Drivers/CMSIS/Include/cmsis_gcc.h **** #endif
 113:Drivers/CMSIS/Include/cmsis_gcc.h **** #ifndef   __RESTRICT
 114:Drivers/CMSIS/Include/cmsis_gcc.h ****   #define __RESTRICT                             __restrict
 115:Drivers/CMSIS/Include/cmsis_gcc.h **** #endif
 116:Drivers/CMSIS/Include/cmsis_gcc.h **** 
 117:Drivers/CMSIS/Include/cmsis_gcc.h **** 
 118:Drivers/CMSIS/Include/cmsis_gcc.h **** /* ###########################  Core Function Access  ########################### */
 119:Drivers/CMSIS/Include/cmsis_gcc.h **** /** \ingroup  CMSIS_Core_FunctionInterface
 120:Drivers/CMSIS/Include/cmsis_gcc.h ****     \defgroup CMSIS_Core_RegAccFunctions CMSIS Core Register Access Functions
 121:Drivers/CMSIS/Include/cmsis_gcc.h ****   @{
 122:Drivers/CMSIS/Include/cmsis_gcc.h ****  */
 123:Drivers/CMSIS/Include/cmsis_gcc.h **** 
 124:Drivers/CMSIS/Include/cmsis_gcc.h **** /**
 125:Drivers/CMSIS/Include/cmsis_gcc.h ****   \brief   Enable IRQ Interrupts
 126:Drivers/CMSIS/Include/cmsis_gcc.h ****   \details Enables IRQ interrupts by clearing the I-bit in the CPSR.
 127:Drivers/CMSIS/Include/cmsis_gcc.h ****            Can only be executed in Privileged modes.
 128:Drivers/CMSIS/Include/cmsis_gcc.h ****  */
 129:Drivers/CMSIS/Include/cmsis_gcc.h **** __STATIC_FORCEINLINE void __enable_irq(void)
 130:Drivers/CMSIS/Include/cmsis_gcc.h **** {
 131:Drivers/CMSIS/Include/cmsis_gcc.h ****   __ASM volatile ("cpsie i" : : : "memory");
 132:Drivers/CMSIS/Include/cmsis_gcc.h **** }
 133:Drivers/CMSIS/Include/cmsis_gcc.h **** 
 134:Drivers/CMSIS/Include/cmsis_gcc.h **** 
 135:Drivers/CMSIS/Include/cmsis_gcc.h **** /**
 136:Drivers/CMSIS/Include/cmsis_gcc.h ****   \brief   Disable IRQ Interrupts
 137:Drivers/CMSIS/Include/cmsis_gcc.h ****   \details Disables IRQ interrupts by setting the I-bit in the CPSR.
 138:Drivers/CMSIS/Include/cmsis_gcc.h ****            Can only be executed in Privileged modes.
 139:Drivers/CMSIS/Include/cmsis_gcc.h ****  */
 140:Drivers/CMSIS/Include/cmsis_gcc.h **** __STATIC_FORCEINLINE void __disable_irq(void)
 141:Drivers/CMSIS/Include/cmsis_gcc.h **** {
 142:Drivers/CMSIS/Include/cmsis_gcc.h ****   __ASM volatile ("cpsid i" : : : "memory");
 143:Drivers/CMSIS/Include/cmsis_gcc.h **** }
 144:Drivers/CMSIS/Include/cmsis_gcc.h **** 
 145:Drivers/CMSIS/Include/cmsis_gcc.h **** 
 146:Drivers/CMSIS/Include/cmsis_gcc.h **** /**
 147:Drivers/CMSIS/Include/cmsis_gcc.h ****   \brief   Get Control Register
 148:Drivers/CMSIS/Include/cmsis_gcc.h ****   \details Returns the content of the Control Register.
 149:Drivers/CMSIS/Include/cmsis_gcc.h ****   \return               Control Register value
 150:Drivers/CMSIS/Include/cmsis_gcc.h ****  */
 151:Drivers/CMSIS/Include/cmsis_gcc.h **** __STATIC_FORCEINLINE uint32_t __get_CONTROL(void)
 152:Drivers/CMSIS/Include/cmsis_gcc.h **** {
 153:Drivers/CMSIS/Include/cmsis_gcc.h ****   uint32_t result;
 154:Drivers/CMSIS/Include/cmsis_gcc.h **** 
 155:Drivers/CMSIS/Include/cmsis_gcc.h ****   __ASM volatile ("MRS %0, control" : "=r" (result) );
 156:Drivers/CMSIS/Include/cmsis_gcc.h ****   return(result);
 157:Drivers/CMSIS/Include/cmsis_gcc.h **** }
ARM GAS  C:\Users\Kaa\AppData\Local\Temp\ccMt5vPx.s 			page 11


 158:Drivers/CMSIS/Include/cmsis_gcc.h **** 
 159:Drivers/CMSIS/Include/cmsis_gcc.h **** 
 160:Drivers/CMSIS/Include/cmsis_gcc.h **** #if (defined (__ARM_FEATURE_CMSE ) && (__ARM_FEATURE_CMSE == 3))
 161:Drivers/CMSIS/Include/cmsis_gcc.h **** /**
 162:Drivers/CMSIS/Include/cmsis_gcc.h ****   \brief   Get Control Register (non-secure)
 163:Drivers/CMSIS/Include/cmsis_gcc.h ****   \details Returns the content of the non-secure Control Register when in secure mode.
 164:Drivers/CMSIS/Include/cmsis_gcc.h ****   \return               non-secure Control Register value
 165:Drivers/CMSIS/Include/cmsis_gcc.h ****  */
 166:Drivers/CMSIS/Include/cmsis_gcc.h **** __STATIC_FORCEINLINE uint32_t __TZ_get_CONTROL_NS(void)
 167:Drivers/CMSIS/Include/cmsis_gcc.h **** {
 168:Drivers/CMSIS/Include/cmsis_gcc.h ****   uint32_t result;
 169:Drivers/CMSIS/Include/cmsis_gcc.h **** 
 170:Drivers/CMSIS/Include/cmsis_gcc.h ****   __ASM volatile ("MRS %0, control_ns" : "=r" (result) );
 171:Drivers/CMSIS/Include/cmsis_gcc.h ****   return(result);
 172:Drivers/CMSIS/Include/cmsis_gcc.h **** }
 173:Drivers/CMSIS/Include/cmsis_gcc.h **** #endif
 174:Drivers/CMSIS/Include/cmsis_gcc.h **** 
 175:Drivers/CMSIS/Include/cmsis_gcc.h **** 
 176:Drivers/CMSIS/Include/cmsis_gcc.h **** /**
 177:Drivers/CMSIS/Include/cmsis_gcc.h ****   \brief   Set Control Register
 178:Drivers/CMSIS/Include/cmsis_gcc.h ****   \details Writes the given value to the Control Register.
 179:Drivers/CMSIS/Include/cmsis_gcc.h ****   \param [in]    control  Control Register value to set
 180:Drivers/CMSIS/Include/cmsis_gcc.h ****  */
 181:Drivers/CMSIS/Include/cmsis_gcc.h **** __STATIC_FORCEINLINE void __set_CONTROL(uint32_t control)
 182:Drivers/CMSIS/Include/cmsis_gcc.h **** {
 183:Drivers/CMSIS/Include/cmsis_gcc.h ****   __ASM volatile ("MSR control, %0" : : "r" (control) : "memory");
 184:Drivers/CMSIS/Include/cmsis_gcc.h **** }
 185:Drivers/CMSIS/Include/cmsis_gcc.h **** 
 186:Drivers/CMSIS/Include/cmsis_gcc.h **** 
 187:Drivers/CMSIS/Include/cmsis_gcc.h **** #if (defined (__ARM_FEATURE_CMSE ) && (__ARM_FEATURE_CMSE == 3))
 188:Drivers/CMSIS/Include/cmsis_gcc.h **** /**
 189:Drivers/CMSIS/Include/cmsis_gcc.h ****   \brief   Set Control Register (non-secure)
 190:Drivers/CMSIS/Include/cmsis_gcc.h ****   \details Writes the given value to the non-secure Control Register when in secure state.
 191:Drivers/CMSIS/Include/cmsis_gcc.h ****   \param [in]    control  Control Register value to set
 192:Drivers/CMSIS/Include/cmsis_gcc.h ****  */
 193:Drivers/CMSIS/Include/cmsis_gcc.h **** __STATIC_FORCEINLINE void __TZ_set_CONTROL_NS(uint32_t control)
 194:Drivers/CMSIS/Include/cmsis_gcc.h **** {
 195:Drivers/CMSIS/Include/cmsis_gcc.h ****   __ASM volatile ("MSR control_ns, %0" : : "r" (control) : "memory");
 196:Drivers/CMSIS/Include/cmsis_gcc.h **** }
 197:Drivers/CMSIS/Include/cmsis_gcc.h **** #endif
 198:Drivers/CMSIS/Include/cmsis_gcc.h **** 
 199:Drivers/CMSIS/Include/cmsis_gcc.h **** 
 200:Drivers/CMSIS/Include/cmsis_gcc.h **** /**
 201:Drivers/CMSIS/Include/cmsis_gcc.h ****   \brief   Get IPSR Register
 202:Drivers/CMSIS/Include/cmsis_gcc.h ****   \details Returns the content of the IPSR Register.
 203:Drivers/CMSIS/Include/cmsis_gcc.h ****   \return               IPSR Register value
 204:Drivers/CMSIS/Include/cmsis_gcc.h ****  */
 205:Drivers/CMSIS/Include/cmsis_gcc.h **** __STATIC_FORCEINLINE uint32_t __get_IPSR(void)
 206:Drivers/CMSIS/Include/cmsis_gcc.h **** {
 207:Drivers/CMSIS/Include/cmsis_gcc.h ****   uint32_t result;
 208:Drivers/CMSIS/Include/cmsis_gcc.h **** 
 209:Drivers/CMSIS/Include/cmsis_gcc.h ****   __ASM volatile ("MRS %0, ipsr" : "=r" (result) );
 210:Drivers/CMSIS/Include/cmsis_gcc.h ****   return(result);
 211:Drivers/CMSIS/Include/cmsis_gcc.h **** }
 212:Drivers/CMSIS/Include/cmsis_gcc.h **** 
 213:Drivers/CMSIS/Include/cmsis_gcc.h **** 
 214:Drivers/CMSIS/Include/cmsis_gcc.h **** /**
ARM GAS  C:\Users\Kaa\AppData\Local\Temp\ccMt5vPx.s 			page 12


 215:Drivers/CMSIS/Include/cmsis_gcc.h ****   \brief   Get APSR Register
 216:Drivers/CMSIS/Include/cmsis_gcc.h ****   \details Returns the content of the APSR Register.
 217:Drivers/CMSIS/Include/cmsis_gcc.h ****   \return               APSR Register value
 218:Drivers/CMSIS/Include/cmsis_gcc.h ****  */
 219:Drivers/CMSIS/Include/cmsis_gcc.h **** __STATIC_FORCEINLINE uint32_t __get_APSR(void)
 220:Drivers/CMSIS/Include/cmsis_gcc.h **** {
 221:Drivers/CMSIS/Include/cmsis_gcc.h ****   uint32_t result;
 222:Drivers/CMSIS/Include/cmsis_gcc.h **** 
 223:Drivers/CMSIS/Include/cmsis_gcc.h ****   __ASM volatile ("MRS %0, apsr" : "=r" (result) );
 224:Drivers/CMSIS/Include/cmsis_gcc.h ****   return(result);
 225:Drivers/CMSIS/Include/cmsis_gcc.h **** }
 226:Drivers/CMSIS/Include/cmsis_gcc.h **** 
 227:Drivers/CMSIS/Include/cmsis_gcc.h **** 
 228:Drivers/CMSIS/Include/cmsis_gcc.h **** /**
 229:Drivers/CMSIS/Include/cmsis_gcc.h ****   \brief   Get xPSR Register
 230:Drivers/CMSIS/Include/cmsis_gcc.h ****   \details Returns the content of the xPSR Register.
 231:Drivers/CMSIS/Include/cmsis_gcc.h ****   \return               xPSR Register value
 232:Drivers/CMSIS/Include/cmsis_gcc.h ****  */
 233:Drivers/CMSIS/Include/cmsis_gcc.h **** __STATIC_FORCEINLINE uint32_t __get_xPSR(void)
 234:Drivers/CMSIS/Include/cmsis_gcc.h **** {
 235:Drivers/CMSIS/Include/cmsis_gcc.h ****   uint32_t result;
 236:Drivers/CMSIS/Include/cmsis_gcc.h **** 
 237:Drivers/CMSIS/Include/cmsis_gcc.h ****   __ASM volatile ("MRS %0, xpsr" : "=r" (result) );
 238:Drivers/CMSIS/Include/cmsis_gcc.h ****   return(result);
 239:Drivers/CMSIS/Include/cmsis_gcc.h **** }
 240:Drivers/CMSIS/Include/cmsis_gcc.h **** 
 241:Drivers/CMSIS/Include/cmsis_gcc.h **** 
 242:Drivers/CMSIS/Include/cmsis_gcc.h **** /**
 243:Drivers/CMSIS/Include/cmsis_gcc.h ****   \brief   Get Process Stack Pointer
 244:Drivers/CMSIS/Include/cmsis_gcc.h ****   \details Returns the current value of the Process Stack Pointer (PSP).
 245:Drivers/CMSIS/Include/cmsis_gcc.h ****   \return               PSP Register value
 246:Drivers/CMSIS/Include/cmsis_gcc.h ****  */
 247:Drivers/CMSIS/Include/cmsis_gcc.h **** __STATIC_FORCEINLINE uint32_t __get_PSP(void)
 248:Drivers/CMSIS/Include/cmsis_gcc.h **** {
 249:Drivers/CMSIS/Include/cmsis_gcc.h ****   uint32_t result;
 250:Drivers/CMSIS/Include/cmsis_gcc.h **** 
 251:Drivers/CMSIS/Include/cmsis_gcc.h ****   __ASM volatile ("MRS %0, psp"  : "=r" (result) );
 252:Drivers/CMSIS/Include/cmsis_gcc.h ****   return(result);
 253:Drivers/CMSIS/Include/cmsis_gcc.h **** }
 254:Drivers/CMSIS/Include/cmsis_gcc.h **** 
 255:Drivers/CMSIS/Include/cmsis_gcc.h **** 
 256:Drivers/CMSIS/Include/cmsis_gcc.h **** #if (defined (__ARM_FEATURE_CMSE ) && (__ARM_FEATURE_CMSE == 3))
 257:Drivers/CMSIS/Include/cmsis_gcc.h **** /**
 258:Drivers/CMSIS/Include/cmsis_gcc.h ****   \brief   Get Process Stack Pointer (non-secure)
 259:Drivers/CMSIS/Include/cmsis_gcc.h ****   \details Returns the current value of the non-secure Process Stack Pointer (PSP) when in secure s
 260:Drivers/CMSIS/Include/cmsis_gcc.h ****   \return               PSP Register value
 261:Drivers/CMSIS/Include/cmsis_gcc.h ****  */
 262:Drivers/CMSIS/Include/cmsis_gcc.h **** __STATIC_FORCEINLINE uint32_t __TZ_get_PSP_NS(void)
 263:Drivers/CMSIS/Include/cmsis_gcc.h **** {
 264:Drivers/CMSIS/Include/cmsis_gcc.h ****   uint32_t result;
 265:Drivers/CMSIS/Include/cmsis_gcc.h **** 
 266:Drivers/CMSIS/Include/cmsis_gcc.h ****   __ASM volatile ("MRS %0, psp_ns"  : "=r" (result) );
 267:Drivers/CMSIS/Include/cmsis_gcc.h ****   return(result);
 268:Drivers/CMSIS/Include/cmsis_gcc.h **** }
 269:Drivers/CMSIS/Include/cmsis_gcc.h **** #endif
 270:Drivers/CMSIS/Include/cmsis_gcc.h **** 
 271:Drivers/CMSIS/Include/cmsis_gcc.h **** 
ARM GAS  C:\Users\Kaa\AppData\Local\Temp\ccMt5vPx.s 			page 13


 272:Drivers/CMSIS/Include/cmsis_gcc.h **** /**
 273:Drivers/CMSIS/Include/cmsis_gcc.h ****   \brief   Set Process Stack Pointer
 274:Drivers/CMSIS/Include/cmsis_gcc.h ****   \details Assigns the given value to the Process Stack Pointer (PSP).
 275:Drivers/CMSIS/Include/cmsis_gcc.h ****   \param [in]    topOfProcStack  Process Stack Pointer value to set
 276:Drivers/CMSIS/Include/cmsis_gcc.h ****  */
 277:Drivers/CMSIS/Include/cmsis_gcc.h **** __STATIC_FORCEINLINE void __set_PSP(uint32_t topOfProcStack)
 278:Drivers/CMSIS/Include/cmsis_gcc.h **** {
 279:Drivers/CMSIS/Include/cmsis_gcc.h ****   __ASM volatile ("MSR psp, %0" : : "r" (topOfProcStack) : );
 280:Drivers/CMSIS/Include/cmsis_gcc.h **** }
 281:Drivers/CMSIS/Include/cmsis_gcc.h **** 
 282:Drivers/CMSIS/Include/cmsis_gcc.h **** 
 283:Drivers/CMSIS/Include/cmsis_gcc.h **** #if (defined (__ARM_FEATURE_CMSE ) && (__ARM_FEATURE_CMSE == 3))
 284:Drivers/CMSIS/Include/cmsis_gcc.h **** /**
 285:Drivers/CMSIS/Include/cmsis_gcc.h ****   \brief   Set Process Stack Pointer (non-secure)
 286:Drivers/CMSIS/Include/cmsis_gcc.h ****   \details Assigns the given value to the non-secure Process Stack Pointer (PSP) when in secure sta
 287:Drivers/CMSIS/Include/cmsis_gcc.h ****   \param [in]    topOfProcStack  Process Stack Pointer value to set
 288:Drivers/CMSIS/Include/cmsis_gcc.h ****  */
 289:Drivers/CMSIS/Include/cmsis_gcc.h **** __STATIC_FORCEINLINE void __TZ_set_PSP_NS(uint32_t topOfProcStack)
 290:Drivers/CMSIS/Include/cmsis_gcc.h **** {
 291:Drivers/CMSIS/Include/cmsis_gcc.h ****   __ASM volatile ("MSR psp_ns, %0" : : "r" (topOfProcStack) : );
 292:Drivers/CMSIS/Include/cmsis_gcc.h **** }
 293:Drivers/CMSIS/Include/cmsis_gcc.h **** #endif
 294:Drivers/CMSIS/Include/cmsis_gcc.h **** 
 295:Drivers/CMSIS/Include/cmsis_gcc.h **** 
 296:Drivers/CMSIS/Include/cmsis_gcc.h **** /**
 297:Drivers/CMSIS/Include/cmsis_gcc.h ****   \brief   Get Main Stack Pointer
 298:Drivers/CMSIS/Include/cmsis_gcc.h ****   \details Returns the current value of the Main Stack Pointer (MSP).
 299:Drivers/CMSIS/Include/cmsis_gcc.h ****   \return               MSP Register value
 300:Drivers/CMSIS/Include/cmsis_gcc.h ****  */
 301:Drivers/CMSIS/Include/cmsis_gcc.h **** __STATIC_FORCEINLINE uint32_t __get_MSP(void)
 302:Drivers/CMSIS/Include/cmsis_gcc.h **** {
 303:Drivers/CMSIS/Include/cmsis_gcc.h ****   uint32_t result;
 304:Drivers/CMSIS/Include/cmsis_gcc.h **** 
 305:Drivers/CMSIS/Include/cmsis_gcc.h ****   __ASM volatile ("MRS %0, msp" : "=r" (result) );
 306:Drivers/CMSIS/Include/cmsis_gcc.h ****   return(result);
 307:Drivers/CMSIS/Include/cmsis_gcc.h **** }
 308:Drivers/CMSIS/Include/cmsis_gcc.h **** 
 309:Drivers/CMSIS/Include/cmsis_gcc.h **** 
 310:Drivers/CMSIS/Include/cmsis_gcc.h **** #if (defined (__ARM_FEATURE_CMSE ) && (__ARM_FEATURE_CMSE == 3))
 311:Drivers/CMSIS/Include/cmsis_gcc.h **** /**
 312:Drivers/CMSIS/Include/cmsis_gcc.h ****   \brief   Get Main Stack Pointer (non-secure)
 313:Drivers/CMSIS/Include/cmsis_gcc.h ****   \details Returns the current value of the non-secure Main Stack Pointer (MSP) when in secure stat
 314:Drivers/CMSIS/Include/cmsis_gcc.h ****   \return               MSP Register value
 315:Drivers/CMSIS/Include/cmsis_gcc.h ****  */
 316:Drivers/CMSIS/Include/cmsis_gcc.h **** __STATIC_FORCEINLINE uint32_t __TZ_get_MSP_NS(void)
 317:Drivers/CMSIS/Include/cmsis_gcc.h **** {
 318:Drivers/CMSIS/Include/cmsis_gcc.h ****   uint32_t result;
 319:Drivers/CMSIS/Include/cmsis_gcc.h **** 
 320:Drivers/CMSIS/Include/cmsis_gcc.h ****   __ASM volatile ("MRS %0, msp_ns" : "=r" (result) );
 321:Drivers/CMSIS/Include/cmsis_gcc.h ****   return(result);
 322:Drivers/CMSIS/Include/cmsis_gcc.h **** }
 323:Drivers/CMSIS/Include/cmsis_gcc.h **** #endif
 324:Drivers/CMSIS/Include/cmsis_gcc.h **** 
 325:Drivers/CMSIS/Include/cmsis_gcc.h **** 
 326:Drivers/CMSIS/Include/cmsis_gcc.h **** /**
 327:Drivers/CMSIS/Include/cmsis_gcc.h ****   \brief   Set Main Stack Pointer
 328:Drivers/CMSIS/Include/cmsis_gcc.h ****   \details Assigns the given value to the Main Stack Pointer (MSP).
ARM GAS  C:\Users\Kaa\AppData\Local\Temp\ccMt5vPx.s 			page 14


 329:Drivers/CMSIS/Include/cmsis_gcc.h ****   \param [in]    topOfMainStack  Main Stack Pointer value to set
 330:Drivers/CMSIS/Include/cmsis_gcc.h ****  */
 331:Drivers/CMSIS/Include/cmsis_gcc.h **** __STATIC_FORCEINLINE void __set_MSP(uint32_t topOfMainStack)
 332:Drivers/CMSIS/Include/cmsis_gcc.h **** {
 333:Drivers/CMSIS/Include/cmsis_gcc.h ****   __ASM volatile ("MSR msp, %0" : : "r" (topOfMainStack) : );
 334:Drivers/CMSIS/Include/cmsis_gcc.h **** }
 335:Drivers/CMSIS/Include/cmsis_gcc.h **** 
 336:Drivers/CMSIS/Include/cmsis_gcc.h **** 
 337:Drivers/CMSIS/Include/cmsis_gcc.h **** #if (defined (__ARM_FEATURE_CMSE ) && (__ARM_FEATURE_CMSE == 3))
 338:Drivers/CMSIS/Include/cmsis_gcc.h **** /**
 339:Drivers/CMSIS/Include/cmsis_gcc.h ****   \brief   Set Main Stack Pointer (non-secure)
 340:Drivers/CMSIS/Include/cmsis_gcc.h ****   \details Assigns the given value to the non-secure Main Stack Pointer (MSP) when in secure state.
 341:Drivers/CMSIS/Include/cmsis_gcc.h ****   \param [in]    topOfMainStack  Main Stack Pointer value to set
 342:Drivers/CMSIS/Include/cmsis_gcc.h ****  */
 343:Drivers/CMSIS/Include/cmsis_gcc.h **** __STATIC_FORCEINLINE void __TZ_set_MSP_NS(uint32_t topOfMainStack)
 344:Drivers/CMSIS/Include/cmsis_gcc.h **** {
 345:Drivers/CMSIS/Include/cmsis_gcc.h ****   __ASM volatile ("MSR msp_ns, %0" : : "r" (topOfMainStack) : );
 346:Drivers/CMSIS/Include/cmsis_gcc.h **** }
 347:Drivers/CMSIS/Include/cmsis_gcc.h **** #endif
 348:Drivers/CMSIS/Include/cmsis_gcc.h **** 
 349:Drivers/CMSIS/Include/cmsis_gcc.h **** 
 350:Drivers/CMSIS/Include/cmsis_gcc.h **** #if (defined (__ARM_FEATURE_CMSE ) && (__ARM_FEATURE_CMSE == 3))
 351:Drivers/CMSIS/Include/cmsis_gcc.h **** /**
 352:Drivers/CMSIS/Include/cmsis_gcc.h ****   \brief   Get Stack Pointer (non-secure)
 353:Drivers/CMSIS/Include/cmsis_gcc.h ****   \details Returns the current value of the non-secure Stack Pointer (SP) when in secure state.
 354:Drivers/CMSIS/Include/cmsis_gcc.h ****   \return               SP Register value
 355:Drivers/CMSIS/Include/cmsis_gcc.h ****  */
 356:Drivers/CMSIS/Include/cmsis_gcc.h **** __STATIC_FORCEINLINE uint32_t __TZ_get_SP_NS(void)
 357:Drivers/CMSIS/Include/cmsis_gcc.h **** {
 358:Drivers/CMSIS/Include/cmsis_gcc.h ****   uint32_t result;
 359:Drivers/CMSIS/Include/cmsis_gcc.h **** 
 360:Drivers/CMSIS/Include/cmsis_gcc.h ****   __ASM volatile ("MRS %0, sp_ns" : "=r" (result) );
 361:Drivers/CMSIS/Include/cmsis_gcc.h ****   return(result);
 362:Drivers/CMSIS/Include/cmsis_gcc.h **** }
 363:Drivers/CMSIS/Include/cmsis_gcc.h **** 
 364:Drivers/CMSIS/Include/cmsis_gcc.h **** 
 365:Drivers/CMSIS/Include/cmsis_gcc.h **** /**
 366:Drivers/CMSIS/Include/cmsis_gcc.h ****   \brief   Set Stack Pointer (non-secure)
 367:Drivers/CMSIS/Include/cmsis_gcc.h ****   \details Assigns the given value to the non-secure Stack Pointer (SP) when in secure state.
 368:Drivers/CMSIS/Include/cmsis_gcc.h ****   \param [in]    topOfStack  Stack Pointer value to set
 369:Drivers/CMSIS/Include/cmsis_gcc.h ****  */
 370:Drivers/CMSIS/Include/cmsis_gcc.h **** __STATIC_FORCEINLINE void __TZ_set_SP_NS(uint32_t topOfStack)
 371:Drivers/CMSIS/Include/cmsis_gcc.h **** {
 372:Drivers/CMSIS/Include/cmsis_gcc.h ****   __ASM volatile ("MSR sp_ns, %0" : : "r" (topOfStack) : );
 373:Drivers/CMSIS/Include/cmsis_gcc.h **** }
 374:Drivers/CMSIS/Include/cmsis_gcc.h **** #endif
 375:Drivers/CMSIS/Include/cmsis_gcc.h **** 
 376:Drivers/CMSIS/Include/cmsis_gcc.h **** 
 377:Drivers/CMSIS/Include/cmsis_gcc.h **** /**
 378:Drivers/CMSIS/Include/cmsis_gcc.h ****   \brief   Get Priority Mask
 379:Drivers/CMSIS/Include/cmsis_gcc.h ****   \details Returns the current state of the priority mask bit from the Priority Mask Register.
 380:Drivers/CMSIS/Include/cmsis_gcc.h ****   \return               Priority Mask value
 381:Drivers/CMSIS/Include/cmsis_gcc.h ****  */
 382:Drivers/CMSIS/Include/cmsis_gcc.h **** __STATIC_FORCEINLINE uint32_t __get_PRIMASK(void)
 383:Drivers/CMSIS/Include/cmsis_gcc.h **** {
 384:Drivers/CMSIS/Include/cmsis_gcc.h ****   uint32_t result;
 385:Drivers/CMSIS/Include/cmsis_gcc.h **** 
ARM GAS  C:\Users\Kaa\AppData\Local\Temp\ccMt5vPx.s 			page 15


 386:Drivers/CMSIS/Include/cmsis_gcc.h ****   __ASM volatile ("MRS %0, primask" : "=r" (result) :: "memory");
 387:Drivers/CMSIS/Include/cmsis_gcc.h ****   return(result);
 388:Drivers/CMSIS/Include/cmsis_gcc.h **** }
 389:Drivers/CMSIS/Include/cmsis_gcc.h **** 
 390:Drivers/CMSIS/Include/cmsis_gcc.h **** 
 391:Drivers/CMSIS/Include/cmsis_gcc.h **** #if (defined (__ARM_FEATURE_CMSE ) && (__ARM_FEATURE_CMSE == 3))
 392:Drivers/CMSIS/Include/cmsis_gcc.h **** /**
 393:Drivers/CMSIS/Include/cmsis_gcc.h ****   \brief   Get Priority Mask (non-secure)
 394:Drivers/CMSIS/Include/cmsis_gcc.h ****   \details Returns the current state of the non-secure priority mask bit from the Priority Mask Reg
 395:Drivers/CMSIS/Include/cmsis_gcc.h ****   \return               Priority Mask value
 396:Drivers/CMSIS/Include/cmsis_gcc.h ****  */
 397:Drivers/CMSIS/Include/cmsis_gcc.h **** __STATIC_FORCEINLINE uint32_t __TZ_get_PRIMASK_NS(void)
 398:Drivers/CMSIS/Include/cmsis_gcc.h **** {
 399:Drivers/CMSIS/Include/cmsis_gcc.h ****   uint32_t result;
 400:Drivers/CMSIS/Include/cmsis_gcc.h **** 
 401:Drivers/CMSIS/Include/cmsis_gcc.h ****   __ASM volatile ("MRS %0, primask_ns" : "=r" (result) :: "memory");
 402:Drivers/CMSIS/Include/cmsis_gcc.h ****   return(result);
 403:Drivers/CMSIS/Include/cmsis_gcc.h **** }
 404:Drivers/CMSIS/Include/cmsis_gcc.h **** #endif
 405:Drivers/CMSIS/Include/cmsis_gcc.h **** 
 406:Drivers/CMSIS/Include/cmsis_gcc.h **** 
 407:Drivers/CMSIS/Include/cmsis_gcc.h **** /**
 408:Drivers/CMSIS/Include/cmsis_gcc.h ****   \brief   Set Priority Mask
 409:Drivers/CMSIS/Include/cmsis_gcc.h ****   \details Assigns the given value to the Priority Mask Register.
 410:Drivers/CMSIS/Include/cmsis_gcc.h ****   \param [in]    priMask  Priority Mask
 411:Drivers/CMSIS/Include/cmsis_gcc.h ****  */
 412:Drivers/CMSIS/Include/cmsis_gcc.h **** __STATIC_FORCEINLINE void __set_PRIMASK(uint32_t priMask)
 413:Drivers/CMSIS/Include/cmsis_gcc.h **** {
 414:Drivers/CMSIS/Include/cmsis_gcc.h ****   __ASM volatile ("MSR primask, %0" : : "r" (priMask) : "memory");
 415:Drivers/CMSIS/Include/cmsis_gcc.h **** }
 416:Drivers/CMSIS/Include/cmsis_gcc.h **** 
 417:Drivers/CMSIS/Include/cmsis_gcc.h **** 
 418:Drivers/CMSIS/Include/cmsis_gcc.h **** #if (defined (__ARM_FEATURE_CMSE ) && (__ARM_FEATURE_CMSE == 3))
 419:Drivers/CMSIS/Include/cmsis_gcc.h **** /**
 420:Drivers/CMSIS/Include/cmsis_gcc.h ****   \brief   Set Priority Mask (non-secure)
 421:Drivers/CMSIS/Include/cmsis_gcc.h ****   \details Assigns the given value to the non-secure Priority Mask Register when in secure state.
 422:Drivers/CMSIS/Include/cmsis_gcc.h ****   \param [in]    priMask  Priority Mask
 423:Drivers/CMSIS/Include/cmsis_gcc.h ****  */
 424:Drivers/CMSIS/Include/cmsis_gcc.h **** __STATIC_FORCEINLINE void __TZ_set_PRIMASK_NS(uint32_t priMask)
 425:Drivers/CMSIS/Include/cmsis_gcc.h **** {
 426:Drivers/CMSIS/Include/cmsis_gcc.h ****   __ASM volatile ("MSR primask_ns, %0" : : "r" (priMask) : "memory");
 427:Drivers/CMSIS/Include/cmsis_gcc.h **** }
 428:Drivers/CMSIS/Include/cmsis_gcc.h **** #endif
 429:Drivers/CMSIS/Include/cmsis_gcc.h **** 
 430:Drivers/CMSIS/Include/cmsis_gcc.h **** 
 431:Drivers/CMSIS/Include/cmsis_gcc.h **** #if ((defined (__ARM_ARCH_7M__      ) && (__ARM_ARCH_7M__      == 1)) || \
 432:Drivers/CMSIS/Include/cmsis_gcc.h ****      (defined (__ARM_ARCH_7EM__     ) && (__ARM_ARCH_7EM__     == 1)) || \
 433:Drivers/CMSIS/Include/cmsis_gcc.h ****      (defined (__ARM_ARCH_8M_MAIN__ ) && (__ARM_ARCH_8M_MAIN__ == 1))    )
 434:Drivers/CMSIS/Include/cmsis_gcc.h **** /**
 435:Drivers/CMSIS/Include/cmsis_gcc.h ****   \brief   Enable FIQ
 436:Drivers/CMSIS/Include/cmsis_gcc.h ****   \details Enables FIQ interrupts by clearing the F-bit in the CPSR.
 437:Drivers/CMSIS/Include/cmsis_gcc.h ****            Can only be executed in Privileged modes.
 438:Drivers/CMSIS/Include/cmsis_gcc.h ****  */
 439:Drivers/CMSIS/Include/cmsis_gcc.h **** __STATIC_FORCEINLINE void __enable_fault_irq(void)
 440:Drivers/CMSIS/Include/cmsis_gcc.h **** {
 441:Drivers/CMSIS/Include/cmsis_gcc.h ****   __ASM volatile ("cpsie f" : : : "memory");
 442:Drivers/CMSIS/Include/cmsis_gcc.h **** }
ARM GAS  C:\Users\Kaa\AppData\Local\Temp\ccMt5vPx.s 			page 16


 443:Drivers/CMSIS/Include/cmsis_gcc.h **** 
 444:Drivers/CMSIS/Include/cmsis_gcc.h **** 
 445:Drivers/CMSIS/Include/cmsis_gcc.h **** /**
 446:Drivers/CMSIS/Include/cmsis_gcc.h ****   \brief   Disable FIQ
 447:Drivers/CMSIS/Include/cmsis_gcc.h ****   \details Disables FIQ interrupts by setting the F-bit in the CPSR.
 448:Drivers/CMSIS/Include/cmsis_gcc.h ****            Can only be executed in Privileged modes.
 449:Drivers/CMSIS/Include/cmsis_gcc.h ****  */
 450:Drivers/CMSIS/Include/cmsis_gcc.h **** __STATIC_FORCEINLINE void __disable_fault_irq(void)
 451:Drivers/CMSIS/Include/cmsis_gcc.h **** {
 452:Drivers/CMSIS/Include/cmsis_gcc.h ****   __ASM volatile ("cpsid f" : : : "memory");
 453:Drivers/CMSIS/Include/cmsis_gcc.h **** }
 454:Drivers/CMSIS/Include/cmsis_gcc.h **** 
 455:Drivers/CMSIS/Include/cmsis_gcc.h **** 
 456:Drivers/CMSIS/Include/cmsis_gcc.h **** /**
 457:Drivers/CMSIS/Include/cmsis_gcc.h ****   \brief   Get Base Priority
 458:Drivers/CMSIS/Include/cmsis_gcc.h ****   \details Returns the current value of the Base Priority register.
 459:Drivers/CMSIS/Include/cmsis_gcc.h ****   \return               Base Priority register value
 460:Drivers/CMSIS/Include/cmsis_gcc.h ****  */
 461:Drivers/CMSIS/Include/cmsis_gcc.h **** __STATIC_FORCEINLINE uint32_t __get_BASEPRI(void)
 462:Drivers/CMSIS/Include/cmsis_gcc.h **** {
 463:Drivers/CMSIS/Include/cmsis_gcc.h ****   uint32_t result;
 464:Drivers/CMSIS/Include/cmsis_gcc.h **** 
 465:Drivers/CMSIS/Include/cmsis_gcc.h ****   __ASM volatile ("MRS %0, basepri" : "=r" (result) );
 466:Drivers/CMSIS/Include/cmsis_gcc.h ****   return(result);
 467:Drivers/CMSIS/Include/cmsis_gcc.h **** }
 468:Drivers/CMSIS/Include/cmsis_gcc.h **** 
 469:Drivers/CMSIS/Include/cmsis_gcc.h **** 
 470:Drivers/CMSIS/Include/cmsis_gcc.h **** #if (defined (__ARM_FEATURE_CMSE ) && (__ARM_FEATURE_CMSE == 3))
 471:Drivers/CMSIS/Include/cmsis_gcc.h **** /**
 472:Drivers/CMSIS/Include/cmsis_gcc.h ****   \brief   Get Base Priority (non-secure)
 473:Drivers/CMSIS/Include/cmsis_gcc.h ****   \details Returns the current value of the non-secure Base Priority register when in secure state.
 474:Drivers/CMSIS/Include/cmsis_gcc.h ****   \return               Base Priority register value
 475:Drivers/CMSIS/Include/cmsis_gcc.h ****  */
 476:Drivers/CMSIS/Include/cmsis_gcc.h **** __STATIC_FORCEINLINE uint32_t __TZ_get_BASEPRI_NS(void)
 477:Drivers/CMSIS/Include/cmsis_gcc.h **** {
 478:Drivers/CMSIS/Include/cmsis_gcc.h ****   uint32_t result;
 479:Drivers/CMSIS/Include/cmsis_gcc.h **** 
 480:Drivers/CMSIS/Include/cmsis_gcc.h ****   __ASM volatile ("MRS %0, basepri_ns" : "=r" (result) );
 481:Drivers/CMSIS/Include/cmsis_gcc.h ****   return(result);
 482:Drivers/CMSIS/Include/cmsis_gcc.h **** }
 483:Drivers/CMSIS/Include/cmsis_gcc.h **** #endif
 484:Drivers/CMSIS/Include/cmsis_gcc.h **** 
 485:Drivers/CMSIS/Include/cmsis_gcc.h **** 
 486:Drivers/CMSIS/Include/cmsis_gcc.h **** /**
 487:Drivers/CMSIS/Include/cmsis_gcc.h ****   \brief   Set Base Priority
 488:Drivers/CMSIS/Include/cmsis_gcc.h ****   \details Assigns the given value to the Base Priority register.
 489:Drivers/CMSIS/Include/cmsis_gcc.h ****   \param [in]    basePri  Base Priority value to set
 490:Drivers/CMSIS/Include/cmsis_gcc.h ****  */
 491:Drivers/CMSIS/Include/cmsis_gcc.h **** __STATIC_FORCEINLINE void __set_BASEPRI(uint32_t basePri)
 492:Drivers/CMSIS/Include/cmsis_gcc.h **** {
 493:Drivers/CMSIS/Include/cmsis_gcc.h ****   __ASM volatile ("MSR basepri, %0" : : "r" (basePri) : "memory");
 494:Drivers/CMSIS/Include/cmsis_gcc.h **** }
 495:Drivers/CMSIS/Include/cmsis_gcc.h **** 
 496:Drivers/CMSIS/Include/cmsis_gcc.h **** 
 497:Drivers/CMSIS/Include/cmsis_gcc.h **** #if (defined (__ARM_FEATURE_CMSE ) && (__ARM_FEATURE_CMSE == 3))
 498:Drivers/CMSIS/Include/cmsis_gcc.h **** /**
 499:Drivers/CMSIS/Include/cmsis_gcc.h ****   \brief   Set Base Priority (non-secure)
ARM GAS  C:\Users\Kaa\AppData\Local\Temp\ccMt5vPx.s 			page 17


 500:Drivers/CMSIS/Include/cmsis_gcc.h ****   \details Assigns the given value to the non-secure Base Priority register when in secure state.
 501:Drivers/CMSIS/Include/cmsis_gcc.h ****   \param [in]    basePri  Base Priority value to set
 502:Drivers/CMSIS/Include/cmsis_gcc.h ****  */
 503:Drivers/CMSIS/Include/cmsis_gcc.h **** __STATIC_FORCEINLINE void __TZ_set_BASEPRI_NS(uint32_t basePri)
 504:Drivers/CMSIS/Include/cmsis_gcc.h **** {
 505:Drivers/CMSIS/Include/cmsis_gcc.h ****   __ASM volatile ("MSR basepri_ns, %0" : : "r" (basePri) : "memory");
 506:Drivers/CMSIS/Include/cmsis_gcc.h **** }
 507:Drivers/CMSIS/Include/cmsis_gcc.h **** #endif
 508:Drivers/CMSIS/Include/cmsis_gcc.h **** 
 509:Drivers/CMSIS/Include/cmsis_gcc.h **** 
 510:Drivers/CMSIS/Include/cmsis_gcc.h **** /**
 511:Drivers/CMSIS/Include/cmsis_gcc.h ****   \brief   Set Base Priority with condition
 512:Drivers/CMSIS/Include/cmsis_gcc.h ****   \details Assigns the given value to the Base Priority register only if BASEPRI masking is disable
 513:Drivers/CMSIS/Include/cmsis_gcc.h ****            or the new value increases the BASEPRI priority level.
 514:Drivers/CMSIS/Include/cmsis_gcc.h ****   \param [in]    basePri  Base Priority value to set
 515:Drivers/CMSIS/Include/cmsis_gcc.h ****  */
 516:Drivers/CMSIS/Include/cmsis_gcc.h **** __STATIC_FORCEINLINE void __set_BASEPRI_MAX(uint32_t basePri)
 517:Drivers/CMSIS/Include/cmsis_gcc.h **** {
 518:Drivers/CMSIS/Include/cmsis_gcc.h ****   __ASM volatile ("MSR basepri_max, %0" : : "r" (basePri) : "memory");
 519:Drivers/CMSIS/Include/cmsis_gcc.h **** }
 520:Drivers/CMSIS/Include/cmsis_gcc.h **** 
 521:Drivers/CMSIS/Include/cmsis_gcc.h **** 
 522:Drivers/CMSIS/Include/cmsis_gcc.h **** /**
 523:Drivers/CMSIS/Include/cmsis_gcc.h ****   \brief   Get Fault Mask
 524:Drivers/CMSIS/Include/cmsis_gcc.h ****   \details Returns the current value of the Fault Mask register.
 525:Drivers/CMSIS/Include/cmsis_gcc.h ****   \return               Fault Mask register value
 526:Drivers/CMSIS/Include/cmsis_gcc.h ****  */
 527:Drivers/CMSIS/Include/cmsis_gcc.h **** __STATIC_FORCEINLINE uint32_t __get_FAULTMASK(void)
 528:Drivers/CMSIS/Include/cmsis_gcc.h **** {
 529:Drivers/CMSIS/Include/cmsis_gcc.h ****   uint32_t result;
 530:Drivers/CMSIS/Include/cmsis_gcc.h **** 
 531:Drivers/CMSIS/Include/cmsis_gcc.h ****   __ASM volatile ("MRS %0, faultmask" : "=r" (result) );
 532:Drivers/CMSIS/Include/cmsis_gcc.h ****   return(result);
 533:Drivers/CMSIS/Include/cmsis_gcc.h **** }
 534:Drivers/CMSIS/Include/cmsis_gcc.h **** 
 535:Drivers/CMSIS/Include/cmsis_gcc.h **** 
 536:Drivers/CMSIS/Include/cmsis_gcc.h **** #if (defined (__ARM_FEATURE_CMSE ) && (__ARM_FEATURE_CMSE == 3))
 537:Drivers/CMSIS/Include/cmsis_gcc.h **** /**
 538:Drivers/CMSIS/Include/cmsis_gcc.h ****   \brief   Get Fault Mask (non-secure)
 539:Drivers/CMSIS/Include/cmsis_gcc.h ****   \details Returns the current value of the non-secure Fault Mask register when in secure state.
 540:Drivers/CMSIS/Include/cmsis_gcc.h ****   \return               Fault Mask register value
 541:Drivers/CMSIS/Include/cmsis_gcc.h ****  */
 542:Drivers/CMSIS/Include/cmsis_gcc.h **** __STATIC_FORCEINLINE uint32_t __TZ_get_FAULTMASK_NS(void)
 543:Drivers/CMSIS/Include/cmsis_gcc.h **** {
 544:Drivers/CMSIS/Include/cmsis_gcc.h ****   uint32_t result;
 545:Drivers/CMSIS/Include/cmsis_gcc.h **** 
 546:Drivers/CMSIS/Include/cmsis_gcc.h ****   __ASM volatile ("MRS %0, faultmask_ns" : "=r" (result) );
 547:Drivers/CMSIS/Include/cmsis_gcc.h ****   return(result);
 548:Drivers/CMSIS/Include/cmsis_gcc.h **** }
 549:Drivers/CMSIS/Include/cmsis_gcc.h **** #endif
 550:Drivers/CMSIS/Include/cmsis_gcc.h **** 
 551:Drivers/CMSIS/Include/cmsis_gcc.h **** 
 552:Drivers/CMSIS/Include/cmsis_gcc.h **** /**
 553:Drivers/CMSIS/Include/cmsis_gcc.h ****   \brief   Set Fault Mask
 554:Drivers/CMSIS/Include/cmsis_gcc.h ****   \details Assigns the given value to the Fault Mask register.
 555:Drivers/CMSIS/Include/cmsis_gcc.h ****   \param [in]    faultMask  Fault Mask value to set
 556:Drivers/CMSIS/Include/cmsis_gcc.h ****  */
ARM GAS  C:\Users\Kaa\AppData\Local\Temp\ccMt5vPx.s 			page 18


 557:Drivers/CMSIS/Include/cmsis_gcc.h **** __STATIC_FORCEINLINE void __set_FAULTMASK(uint32_t faultMask)
 558:Drivers/CMSIS/Include/cmsis_gcc.h **** {
 559:Drivers/CMSIS/Include/cmsis_gcc.h ****   __ASM volatile ("MSR faultmask, %0" : : "r" (faultMask) : "memory");
 560:Drivers/CMSIS/Include/cmsis_gcc.h **** }
 561:Drivers/CMSIS/Include/cmsis_gcc.h **** 
 562:Drivers/CMSIS/Include/cmsis_gcc.h **** 
 563:Drivers/CMSIS/Include/cmsis_gcc.h **** #if (defined (__ARM_FEATURE_CMSE ) && (__ARM_FEATURE_CMSE == 3))
 564:Drivers/CMSIS/Include/cmsis_gcc.h **** /**
 565:Drivers/CMSIS/Include/cmsis_gcc.h ****   \brief   Set Fault Mask (non-secure)
 566:Drivers/CMSIS/Include/cmsis_gcc.h ****   \details Assigns the given value to the non-secure Fault Mask register when in secure state.
 567:Drivers/CMSIS/Include/cmsis_gcc.h ****   \param [in]    faultMask  Fault Mask value to set
 568:Drivers/CMSIS/Include/cmsis_gcc.h ****  */
 569:Drivers/CMSIS/Include/cmsis_gcc.h **** __STATIC_FORCEINLINE void __TZ_set_FAULTMASK_NS(uint32_t faultMask)
 570:Drivers/CMSIS/Include/cmsis_gcc.h **** {
 571:Drivers/CMSIS/Include/cmsis_gcc.h ****   __ASM volatile ("MSR faultmask_ns, %0" : : "r" (faultMask) : "memory");
 572:Drivers/CMSIS/Include/cmsis_gcc.h **** }
 573:Drivers/CMSIS/Include/cmsis_gcc.h **** #endif
 574:Drivers/CMSIS/Include/cmsis_gcc.h **** 
 575:Drivers/CMSIS/Include/cmsis_gcc.h **** #endif /* ((defined (__ARM_ARCH_7M__      ) && (__ARM_ARCH_7M__      == 1)) || \
 576:Drivers/CMSIS/Include/cmsis_gcc.h ****            (defined (__ARM_ARCH_7EM__     ) && (__ARM_ARCH_7EM__     == 1)) || \
 577:Drivers/CMSIS/Include/cmsis_gcc.h ****            (defined (__ARM_ARCH_8M_MAIN__ ) && (__ARM_ARCH_8M_MAIN__ == 1))    ) */
 578:Drivers/CMSIS/Include/cmsis_gcc.h **** 
 579:Drivers/CMSIS/Include/cmsis_gcc.h **** 
 580:Drivers/CMSIS/Include/cmsis_gcc.h **** #if ((defined (__ARM_ARCH_8M_MAIN__ ) && (__ARM_ARCH_8M_MAIN__ == 1)) || \
 581:Drivers/CMSIS/Include/cmsis_gcc.h ****      (defined (__ARM_ARCH_8M_BASE__ ) && (__ARM_ARCH_8M_BASE__ == 1))    )
 582:Drivers/CMSIS/Include/cmsis_gcc.h **** 
 583:Drivers/CMSIS/Include/cmsis_gcc.h **** /**
 584:Drivers/CMSIS/Include/cmsis_gcc.h ****   \brief   Get Process Stack Pointer Limit
 585:Drivers/CMSIS/Include/cmsis_gcc.h ****   Devices without ARMv8-M Main Extensions (i.e. Cortex-M23) lack the non-secure
 586:Drivers/CMSIS/Include/cmsis_gcc.h ****   Stack Pointer Limit register hence zero is returned always in non-secure
 587:Drivers/CMSIS/Include/cmsis_gcc.h ****   mode.
 588:Drivers/CMSIS/Include/cmsis_gcc.h ****   
 589:Drivers/CMSIS/Include/cmsis_gcc.h ****   \details Returns the current value of the Process Stack Pointer Limit (PSPLIM).
 590:Drivers/CMSIS/Include/cmsis_gcc.h ****   \return               PSPLIM Register value
 591:Drivers/CMSIS/Include/cmsis_gcc.h ****  */
 592:Drivers/CMSIS/Include/cmsis_gcc.h **** __STATIC_FORCEINLINE uint32_t __get_PSPLIM(void)
 593:Drivers/CMSIS/Include/cmsis_gcc.h **** {
 594:Drivers/CMSIS/Include/cmsis_gcc.h **** #if (!(defined (__ARM_ARCH_8M_MAIN__ ) && (__ARM_ARCH_8M_MAIN__ == 1)) && \
 595:Drivers/CMSIS/Include/cmsis_gcc.h ****     (!defined (__ARM_FEATURE_CMSE) || (__ARM_FEATURE_CMSE < 3)))
 596:Drivers/CMSIS/Include/cmsis_gcc.h ****     // without main extensions, the non-secure PSPLIM is RAZ/WI
 597:Drivers/CMSIS/Include/cmsis_gcc.h ****   return 0U;
 598:Drivers/CMSIS/Include/cmsis_gcc.h **** #else
 599:Drivers/CMSIS/Include/cmsis_gcc.h ****   uint32_t result;
 600:Drivers/CMSIS/Include/cmsis_gcc.h ****   __ASM volatile ("MRS %0, psplim"  : "=r" (result) );
 601:Drivers/CMSIS/Include/cmsis_gcc.h ****   return result;
 602:Drivers/CMSIS/Include/cmsis_gcc.h **** #endif
 603:Drivers/CMSIS/Include/cmsis_gcc.h **** }
 604:Drivers/CMSIS/Include/cmsis_gcc.h **** 
 605:Drivers/CMSIS/Include/cmsis_gcc.h **** #if (defined (__ARM_FEATURE_CMSE) && (__ARM_FEATURE_CMSE == 3))
 606:Drivers/CMSIS/Include/cmsis_gcc.h **** /**
 607:Drivers/CMSIS/Include/cmsis_gcc.h ****   \brief   Get Process Stack Pointer Limit (non-secure)
 608:Drivers/CMSIS/Include/cmsis_gcc.h ****   Devices without ARMv8-M Main Extensions (i.e. Cortex-M23) lack the non-secure
 609:Drivers/CMSIS/Include/cmsis_gcc.h ****   Stack Pointer Limit register hence zero is returned always.
 610:Drivers/CMSIS/Include/cmsis_gcc.h **** 
 611:Drivers/CMSIS/Include/cmsis_gcc.h ****   \details Returns the current value of the non-secure Process Stack Pointer Limit (PSPLIM) when in
 612:Drivers/CMSIS/Include/cmsis_gcc.h ****   \return               PSPLIM Register value
 613:Drivers/CMSIS/Include/cmsis_gcc.h ****  */
ARM GAS  C:\Users\Kaa\AppData\Local\Temp\ccMt5vPx.s 			page 19


 614:Drivers/CMSIS/Include/cmsis_gcc.h **** __STATIC_FORCEINLINE uint32_t __TZ_get_PSPLIM_NS(void)
 615:Drivers/CMSIS/Include/cmsis_gcc.h **** {
 616:Drivers/CMSIS/Include/cmsis_gcc.h **** #if (!(defined (__ARM_ARCH_8M_MAIN__ ) && (__ARM_ARCH_8M_MAIN__ == 1)))
 617:Drivers/CMSIS/Include/cmsis_gcc.h ****   // without main extensions, the non-secure PSPLIM is RAZ/WI
 618:Drivers/CMSIS/Include/cmsis_gcc.h ****   return 0U;
 619:Drivers/CMSIS/Include/cmsis_gcc.h **** #else
 620:Drivers/CMSIS/Include/cmsis_gcc.h ****   uint32_t result;
 621:Drivers/CMSIS/Include/cmsis_gcc.h ****   __ASM volatile ("MRS %0, psplim_ns"  : "=r" (result) );
 622:Drivers/CMSIS/Include/cmsis_gcc.h ****   return result;
 623:Drivers/CMSIS/Include/cmsis_gcc.h **** #endif
 624:Drivers/CMSIS/Include/cmsis_gcc.h **** }
 625:Drivers/CMSIS/Include/cmsis_gcc.h **** #endif
 626:Drivers/CMSIS/Include/cmsis_gcc.h **** 
 627:Drivers/CMSIS/Include/cmsis_gcc.h **** 
 628:Drivers/CMSIS/Include/cmsis_gcc.h **** /**
 629:Drivers/CMSIS/Include/cmsis_gcc.h ****   \brief   Set Process Stack Pointer Limit
 630:Drivers/CMSIS/Include/cmsis_gcc.h ****   Devices without ARMv8-M Main Extensions (i.e. Cortex-M23) lack the non-secure
 631:Drivers/CMSIS/Include/cmsis_gcc.h ****   Stack Pointer Limit register hence the write is silently ignored in non-secure
 632:Drivers/CMSIS/Include/cmsis_gcc.h ****   mode.
 633:Drivers/CMSIS/Include/cmsis_gcc.h ****   
 634:Drivers/CMSIS/Include/cmsis_gcc.h ****   \details Assigns the given value to the Process Stack Pointer Limit (PSPLIM).
 635:Drivers/CMSIS/Include/cmsis_gcc.h ****   \param [in]    ProcStackPtrLimit  Process Stack Pointer Limit value to set
 636:Drivers/CMSIS/Include/cmsis_gcc.h ****  */
 637:Drivers/CMSIS/Include/cmsis_gcc.h **** __STATIC_FORCEINLINE void __set_PSPLIM(uint32_t ProcStackPtrLimit)
 638:Drivers/CMSIS/Include/cmsis_gcc.h **** {
 639:Drivers/CMSIS/Include/cmsis_gcc.h **** #if (!(defined (__ARM_ARCH_8M_MAIN__ ) && (__ARM_ARCH_8M_MAIN__ == 1)) && \
 640:Drivers/CMSIS/Include/cmsis_gcc.h ****     (!defined (__ARM_FEATURE_CMSE) || (__ARM_FEATURE_CMSE < 3)))
 641:Drivers/CMSIS/Include/cmsis_gcc.h ****   // without main extensions, the non-secure PSPLIM is RAZ/WI
 642:Drivers/CMSIS/Include/cmsis_gcc.h ****   (void)ProcStackPtrLimit;
 643:Drivers/CMSIS/Include/cmsis_gcc.h **** #else
 644:Drivers/CMSIS/Include/cmsis_gcc.h ****   __ASM volatile ("MSR psplim, %0" : : "r" (ProcStackPtrLimit));
 645:Drivers/CMSIS/Include/cmsis_gcc.h **** #endif
 646:Drivers/CMSIS/Include/cmsis_gcc.h **** }
 647:Drivers/CMSIS/Include/cmsis_gcc.h **** 
 648:Drivers/CMSIS/Include/cmsis_gcc.h **** 
 649:Drivers/CMSIS/Include/cmsis_gcc.h **** #if (defined (__ARM_FEATURE_CMSE  ) && (__ARM_FEATURE_CMSE   == 3))
 650:Drivers/CMSIS/Include/cmsis_gcc.h **** /**
 651:Drivers/CMSIS/Include/cmsis_gcc.h ****   \brief   Set Process Stack Pointer (non-secure)
 652:Drivers/CMSIS/Include/cmsis_gcc.h ****   Devices without ARMv8-M Main Extensions (i.e. Cortex-M23) lack the non-secure
 653:Drivers/CMSIS/Include/cmsis_gcc.h ****   Stack Pointer Limit register hence the write is silently ignored.
 654:Drivers/CMSIS/Include/cmsis_gcc.h **** 
 655:Drivers/CMSIS/Include/cmsis_gcc.h ****   \details Assigns the given value to the non-secure Process Stack Pointer Limit (PSPLIM) when in s
 656:Drivers/CMSIS/Include/cmsis_gcc.h ****   \param [in]    ProcStackPtrLimit  Process Stack Pointer Limit value to set
 657:Drivers/CMSIS/Include/cmsis_gcc.h ****  */
 658:Drivers/CMSIS/Include/cmsis_gcc.h **** __STATIC_FORCEINLINE void __TZ_set_PSPLIM_NS(uint32_t ProcStackPtrLimit)
 659:Drivers/CMSIS/Include/cmsis_gcc.h **** {
 660:Drivers/CMSIS/Include/cmsis_gcc.h **** #if (!(defined (__ARM_ARCH_8M_MAIN__ ) && (__ARM_ARCH_8M_MAIN__ == 1)))
 661:Drivers/CMSIS/Include/cmsis_gcc.h ****   // without main extensions, the non-secure PSPLIM is RAZ/WI
 662:Drivers/CMSIS/Include/cmsis_gcc.h ****   (void)ProcStackPtrLimit;
 663:Drivers/CMSIS/Include/cmsis_gcc.h **** #else
 664:Drivers/CMSIS/Include/cmsis_gcc.h ****   __ASM volatile ("MSR psplim_ns, %0\n" : : "r" (ProcStackPtrLimit));
 665:Drivers/CMSIS/Include/cmsis_gcc.h **** #endif
 666:Drivers/CMSIS/Include/cmsis_gcc.h **** }
 667:Drivers/CMSIS/Include/cmsis_gcc.h **** #endif
 668:Drivers/CMSIS/Include/cmsis_gcc.h **** 
 669:Drivers/CMSIS/Include/cmsis_gcc.h **** 
 670:Drivers/CMSIS/Include/cmsis_gcc.h **** /**
ARM GAS  C:\Users\Kaa\AppData\Local\Temp\ccMt5vPx.s 			page 20


 671:Drivers/CMSIS/Include/cmsis_gcc.h ****   \brief   Get Main Stack Pointer Limit
 672:Drivers/CMSIS/Include/cmsis_gcc.h ****   Devices without ARMv8-M Main Extensions (i.e. Cortex-M23) lack the non-secure
 673:Drivers/CMSIS/Include/cmsis_gcc.h ****   Stack Pointer Limit register hence zero is returned always in non-secure
 674:Drivers/CMSIS/Include/cmsis_gcc.h ****   mode.
 675:Drivers/CMSIS/Include/cmsis_gcc.h **** 
 676:Drivers/CMSIS/Include/cmsis_gcc.h ****   \details Returns the current value of the Main Stack Pointer Limit (MSPLIM).
 677:Drivers/CMSIS/Include/cmsis_gcc.h ****   \return               MSPLIM Register value
 678:Drivers/CMSIS/Include/cmsis_gcc.h ****  */
 679:Drivers/CMSIS/Include/cmsis_gcc.h **** __STATIC_FORCEINLINE uint32_t __get_MSPLIM(void)
 680:Drivers/CMSIS/Include/cmsis_gcc.h **** {
 681:Drivers/CMSIS/Include/cmsis_gcc.h **** #if (!(defined (__ARM_ARCH_8M_MAIN__ ) && (__ARM_ARCH_8M_MAIN__ == 1)) && \
 682:Drivers/CMSIS/Include/cmsis_gcc.h ****     (!defined (__ARM_FEATURE_CMSE) || (__ARM_FEATURE_CMSE < 3)))
 683:Drivers/CMSIS/Include/cmsis_gcc.h ****   // without main extensions, the non-secure MSPLIM is RAZ/WI
 684:Drivers/CMSIS/Include/cmsis_gcc.h ****   return 0U;
 685:Drivers/CMSIS/Include/cmsis_gcc.h **** #else
 686:Drivers/CMSIS/Include/cmsis_gcc.h ****   uint32_t result;
 687:Drivers/CMSIS/Include/cmsis_gcc.h ****   __ASM volatile ("MRS %0, msplim" : "=r" (result) );
 688:Drivers/CMSIS/Include/cmsis_gcc.h ****   return result;
 689:Drivers/CMSIS/Include/cmsis_gcc.h **** #endif
 690:Drivers/CMSIS/Include/cmsis_gcc.h **** }
 691:Drivers/CMSIS/Include/cmsis_gcc.h **** 
 692:Drivers/CMSIS/Include/cmsis_gcc.h **** 
 693:Drivers/CMSIS/Include/cmsis_gcc.h **** #if (defined (__ARM_FEATURE_CMSE  ) && (__ARM_FEATURE_CMSE   == 3))
 694:Drivers/CMSIS/Include/cmsis_gcc.h **** /**
 695:Drivers/CMSIS/Include/cmsis_gcc.h ****   \brief   Get Main Stack Pointer Limit (non-secure)
 696:Drivers/CMSIS/Include/cmsis_gcc.h ****   Devices without ARMv8-M Main Extensions (i.e. Cortex-M23) lack the non-secure
 697:Drivers/CMSIS/Include/cmsis_gcc.h ****   Stack Pointer Limit register hence zero is returned always.
 698:Drivers/CMSIS/Include/cmsis_gcc.h **** 
 699:Drivers/CMSIS/Include/cmsis_gcc.h ****   \details Returns the current value of the non-secure Main Stack Pointer Limit(MSPLIM) when in sec
 700:Drivers/CMSIS/Include/cmsis_gcc.h ****   \return               MSPLIM Register value
 701:Drivers/CMSIS/Include/cmsis_gcc.h ****  */
 702:Drivers/CMSIS/Include/cmsis_gcc.h **** __STATIC_FORCEINLINE uint32_t __TZ_get_MSPLIM_NS(void)
 703:Drivers/CMSIS/Include/cmsis_gcc.h **** {
 704:Drivers/CMSIS/Include/cmsis_gcc.h **** #if (!(defined (__ARM_ARCH_8M_MAIN__ ) && (__ARM_ARCH_8M_MAIN__ == 1)))
 705:Drivers/CMSIS/Include/cmsis_gcc.h ****   // without main extensions, the non-secure MSPLIM is RAZ/WI
 706:Drivers/CMSIS/Include/cmsis_gcc.h ****   return 0U;
 707:Drivers/CMSIS/Include/cmsis_gcc.h **** #else
 708:Drivers/CMSIS/Include/cmsis_gcc.h ****   uint32_t result;
 709:Drivers/CMSIS/Include/cmsis_gcc.h ****   __ASM volatile ("MRS %0, msplim_ns" : "=r" (result) );
 710:Drivers/CMSIS/Include/cmsis_gcc.h ****   return result;
 711:Drivers/CMSIS/Include/cmsis_gcc.h **** #endif
 712:Drivers/CMSIS/Include/cmsis_gcc.h **** }
 713:Drivers/CMSIS/Include/cmsis_gcc.h **** #endif
 714:Drivers/CMSIS/Include/cmsis_gcc.h **** 
 715:Drivers/CMSIS/Include/cmsis_gcc.h **** 
 716:Drivers/CMSIS/Include/cmsis_gcc.h **** /**
 717:Drivers/CMSIS/Include/cmsis_gcc.h ****   \brief   Set Main Stack Pointer Limit
 718:Drivers/CMSIS/Include/cmsis_gcc.h ****   Devices without ARMv8-M Main Extensions (i.e. Cortex-M23) lack the non-secure
 719:Drivers/CMSIS/Include/cmsis_gcc.h ****   Stack Pointer Limit register hence the write is silently ignored in non-secure
 720:Drivers/CMSIS/Include/cmsis_gcc.h ****   mode.
 721:Drivers/CMSIS/Include/cmsis_gcc.h **** 
 722:Drivers/CMSIS/Include/cmsis_gcc.h ****   \details Assigns the given value to the Main Stack Pointer Limit (MSPLIM).
 723:Drivers/CMSIS/Include/cmsis_gcc.h ****   \param [in]    MainStackPtrLimit  Main Stack Pointer Limit value to set
 724:Drivers/CMSIS/Include/cmsis_gcc.h ****  */
 725:Drivers/CMSIS/Include/cmsis_gcc.h **** __STATIC_FORCEINLINE void __set_MSPLIM(uint32_t MainStackPtrLimit)
 726:Drivers/CMSIS/Include/cmsis_gcc.h **** {
 727:Drivers/CMSIS/Include/cmsis_gcc.h **** #if (!(defined (__ARM_ARCH_8M_MAIN__ ) && (__ARM_ARCH_8M_MAIN__ == 1)) && \
ARM GAS  C:\Users\Kaa\AppData\Local\Temp\ccMt5vPx.s 			page 21


 728:Drivers/CMSIS/Include/cmsis_gcc.h ****     (!defined (__ARM_FEATURE_CMSE) || (__ARM_FEATURE_CMSE < 3)))
 729:Drivers/CMSIS/Include/cmsis_gcc.h ****   // without main extensions, the non-secure MSPLIM is RAZ/WI
 730:Drivers/CMSIS/Include/cmsis_gcc.h ****   (void)MainStackPtrLimit;
 731:Drivers/CMSIS/Include/cmsis_gcc.h **** #else
 732:Drivers/CMSIS/Include/cmsis_gcc.h ****   __ASM volatile ("MSR msplim, %0" : : "r" (MainStackPtrLimit));
 733:Drivers/CMSIS/Include/cmsis_gcc.h **** #endif
 734:Drivers/CMSIS/Include/cmsis_gcc.h **** }
 735:Drivers/CMSIS/Include/cmsis_gcc.h **** 
 736:Drivers/CMSIS/Include/cmsis_gcc.h **** 
 737:Drivers/CMSIS/Include/cmsis_gcc.h **** #if (defined (__ARM_FEATURE_CMSE  ) && (__ARM_FEATURE_CMSE   == 3))
 738:Drivers/CMSIS/Include/cmsis_gcc.h **** /**
 739:Drivers/CMSIS/Include/cmsis_gcc.h ****   \brief   Set Main Stack Pointer Limit (non-secure)
 740:Drivers/CMSIS/Include/cmsis_gcc.h ****   Devices without ARMv8-M Main Extensions (i.e. Cortex-M23) lack the non-secure
 741:Drivers/CMSIS/Include/cmsis_gcc.h ****   Stack Pointer Limit register hence the write is silently ignored.
 742:Drivers/CMSIS/Include/cmsis_gcc.h **** 
 743:Drivers/CMSIS/Include/cmsis_gcc.h ****   \details Assigns the given value to the non-secure Main Stack Pointer Limit (MSPLIM) when in secu
 744:Drivers/CMSIS/Include/cmsis_gcc.h ****   \param [in]    MainStackPtrLimit  Main Stack Pointer value to set
 745:Drivers/CMSIS/Include/cmsis_gcc.h ****  */
 746:Drivers/CMSIS/Include/cmsis_gcc.h **** __STATIC_FORCEINLINE void __TZ_set_MSPLIM_NS(uint32_t MainStackPtrLimit)
 747:Drivers/CMSIS/Include/cmsis_gcc.h **** {
 748:Drivers/CMSIS/Include/cmsis_gcc.h **** #if (!(defined (__ARM_ARCH_8M_MAIN__ ) && (__ARM_ARCH_8M_MAIN__ == 1)))
 749:Drivers/CMSIS/Include/cmsis_gcc.h ****   // without main extensions, the non-secure MSPLIM is RAZ/WI
 750:Drivers/CMSIS/Include/cmsis_gcc.h ****   (void)MainStackPtrLimit;
 751:Drivers/CMSIS/Include/cmsis_gcc.h **** #else
 752:Drivers/CMSIS/Include/cmsis_gcc.h ****   __ASM volatile ("MSR msplim_ns, %0" : : "r" (MainStackPtrLimit));
 753:Drivers/CMSIS/Include/cmsis_gcc.h **** #endif
 754:Drivers/CMSIS/Include/cmsis_gcc.h **** }
 755:Drivers/CMSIS/Include/cmsis_gcc.h **** #endif
 756:Drivers/CMSIS/Include/cmsis_gcc.h **** 
 757:Drivers/CMSIS/Include/cmsis_gcc.h **** #endif /* ((defined (__ARM_ARCH_8M_MAIN__ ) && (__ARM_ARCH_8M_MAIN__ == 1)) || \
 758:Drivers/CMSIS/Include/cmsis_gcc.h ****            (defined (__ARM_ARCH_8M_BASE__ ) && (__ARM_ARCH_8M_BASE__ == 1))    ) */
 759:Drivers/CMSIS/Include/cmsis_gcc.h **** 
 760:Drivers/CMSIS/Include/cmsis_gcc.h **** 
 761:Drivers/CMSIS/Include/cmsis_gcc.h **** /**
 762:Drivers/CMSIS/Include/cmsis_gcc.h ****   \brief   Get FPSCR
 763:Drivers/CMSIS/Include/cmsis_gcc.h ****   \details Returns the current value of the Floating Point Status/Control register.
 764:Drivers/CMSIS/Include/cmsis_gcc.h ****   \return               Floating Point Status/Control register value
 765:Drivers/CMSIS/Include/cmsis_gcc.h ****  */
 766:Drivers/CMSIS/Include/cmsis_gcc.h **** __STATIC_FORCEINLINE uint32_t __get_FPSCR(void)
 767:Drivers/CMSIS/Include/cmsis_gcc.h **** {
 768:Drivers/CMSIS/Include/cmsis_gcc.h **** #if ((defined (__FPU_PRESENT) && (__FPU_PRESENT == 1U)) && \
 769:Drivers/CMSIS/Include/cmsis_gcc.h ****      (defined (__FPU_USED   ) && (__FPU_USED    == 1U))     )
 770:Drivers/CMSIS/Include/cmsis_gcc.h **** #if __has_builtin(__builtin_arm_get_fpscr) 
 771:Drivers/CMSIS/Include/cmsis_gcc.h **** // Re-enable using built-in when GCC has been fixed
 772:Drivers/CMSIS/Include/cmsis_gcc.h **** // || (__GNUC__ > 7) || (__GNUC__ == 7 && __GNUC_MINOR__ >= 2)
 773:Drivers/CMSIS/Include/cmsis_gcc.h ****   /* see https://gcc.gnu.org/ml/gcc-patches/2017-04/msg00443.html */
 774:Drivers/CMSIS/Include/cmsis_gcc.h ****   return __builtin_arm_get_fpscr();
 775:Drivers/CMSIS/Include/cmsis_gcc.h **** #else
 776:Drivers/CMSIS/Include/cmsis_gcc.h ****   uint32_t result;
 777:Drivers/CMSIS/Include/cmsis_gcc.h **** 
 778:Drivers/CMSIS/Include/cmsis_gcc.h ****   __ASM volatile ("VMRS %0, fpscr" : "=r" (result) );
 779:Drivers/CMSIS/Include/cmsis_gcc.h ****   return(result);
 780:Drivers/CMSIS/Include/cmsis_gcc.h **** #endif
 781:Drivers/CMSIS/Include/cmsis_gcc.h **** #else
 782:Drivers/CMSIS/Include/cmsis_gcc.h ****   return(0U);
 783:Drivers/CMSIS/Include/cmsis_gcc.h **** #endif
 784:Drivers/CMSIS/Include/cmsis_gcc.h **** }
ARM GAS  C:\Users\Kaa\AppData\Local\Temp\ccMt5vPx.s 			page 22


 785:Drivers/CMSIS/Include/cmsis_gcc.h **** 
 786:Drivers/CMSIS/Include/cmsis_gcc.h **** 
 787:Drivers/CMSIS/Include/cmsis_gcc.h **** /**
 788:Drivers/CMSIS/Include/cmsis_gcc.h ****   \brief   Set FPSCR
 789:Drivers/CMSIS/Include/cmsis_gcc.h ****   \details Assigns the given value to the Floating Point Status/Control register.
 790:Drivers/CMSIS/Include/cmsis_gcc.h ****   \param [in]    fpscr  Floating Point Status/Control value to set
 791:Drivers/CMSIS/Include/cmsis_gcc.h ****  */
 792:Drivers/CMSIS/Include/cmsis_gcc.h **** __STATIC_FORCEINLINE void __set_FPSCR(uint32_t fpscr)
 793:Drivers/CMSIS/Include/cmsis_gcc.h **** {
 794:Drivers/CMSIS/Include/cmsis_gcc.h **** #if ((defined (__FPU_PRESENT) && (__FPU_PRESENT == 1U)) && \
 795:Drivers/CMSIS/Include/cmsis_gcc.h ****      (defined (__FPU_USED   ) && (__FPU_USED    == 1U))     )
 796:Drivers/CMSIS/Include/cmsis_gcc.h **** #if __has_builtin(__builtin_arm_set_fpscr)
 797:Drivers/CMSIS/Include/cmsis_gcc.h **** // Re-enable using built-in when GCC has been fixed
 798:Drivers/CMSIS/Include/cmsis_gcc.h **** // || (__GNUC__ > 7) || (__GNUC__ == 7 && __GNUC_MINOR__ >= 2)
 799:Drivers/CMSIS/Include/cmsis_gcc.h ****   /* see https://gcc.gnu.org/ml/gcc-patches/2017-04/msg00443.html */
 800:Drivers/CMSIS/Include/cmsis_gcc.h ****   __builtin_arm_set_fpscr(fpscr);
 801:Drivers/CMSIS/Include/cmsis_gcc.h **** #else
 802:Drivers/CMSIS/Include/cmsis_gcc.h ****   __ASM volatile ("VMSR fpscr, %0" : : "r" (fpscr) : "vfpcc", "memory");
 803:Drivers/CMSIS/Include/cmsis_gcc.h **** #endif
 804:Drivers/CMSIS/Include/cmsis_gcc.h **** #else
 805:Drivers/CMSIS/Include/cmsis_gcc.h ****   (void)fpscr;
 806:Drivers/CMSIS/Include/cmsis_gcc.h **** #endif
 807:Drivers/CMSIS/Include/cmsis_gcc.h **** }
 808:Drivers/CMSIS/Include/cmsis_gcc.h **** 
 809:Drivers/CMSIS/Include/cmsis_gcc.h **** 
 810:Drivers/CMSIS/Include/cmsis_gcc.h **** /*@} end of CMSIS_Core_RegAccFunctions */
 811:Drivers/CMSIS/Include/cmsis_gcc.h **** 
 812:Drivers/CMSIS/Include/cmsis_gcc.h **** 
 813:Drivers/CMSIS/Include/cmsis_gcc.h **** /* ##########################  Core Instruction Access  ######################### */
 814:Drivers/CMSIS/Include/cmsis_gcc.h **** /** \defgroup CMSIS_Core_InstructionInterface CMSIS Core Instruction Interface
 815:Drivers/CMSIS/Include/cmsis_gcc.h ****   Access to dedicated instructions
 816:Drivers/CMSIS/Include/cmsis_gcc.h ****   @{
 817:Drivers/CMSIS/Include/cmsis_gcc.h **** */
 818:Drivers/CMSIS/Include/cmsis_gcc.h **** 
 819:Drivers/CMSIS/Include/cmsis_gcc.h **** /* Define macros for porting to both thumb1 and thumb2.
 820:Drivers/CMSIS/Include/cmsis_gcc.h ****  * For thumb1, use low register (r0-r7), specified by constraint "l"
 821:Drivers/CMSIS/Include/cmsis_gcc.h ****  * Otherwise, use general registers, specified by constraint "r" */
 822:Drivers/CMSIS/Include/cmsis_gcc.h **** #if defined (__thumb__) && !defined (__thumb2__)
 823:Drivers/CMSIS/Include/cmsis_gcc.h **** #define __CMSIS_GCC_OUT_REG(r) "=l" (r)
 824:Drivers/CMSIS/Include/cmsis_gcc.h **** #define __CMSIS_GCC_RW_REG(r) "+l" (r)
 825:Drivers/CMSIS/Include/cmsis_gcc.h **** #define __CMSIS_GCC_USE_REG(r) "l" (r)
 826:Drivers/CMSIS/Include/cmsis_gcc.h **** #else
 827:Drivers/CMSIS/Include/cmsis_gcc.h **** #define __CMSIS_GCC_OUT_REG(r) "=r" (r)
 828:Drivers/CMSIS/Include/cmsis_gcc.h **** #define __CMSIS_GCC_RW_REG(r) "+r" (r)
 829:Drivers/CMSIS/Include/cmsis_gcc.h **** #define __CMSIS_GCC_USE_REG(r) "r" (r)
 830:Drivers/CMSIS/Include/cmsis_gcc.h **** #endif
 831:Drivers/CMSIS/Include/cmsis_gcc.h **** 
 832:Drivers/CMSIS/Include/cmsis_gcc.h **** /**
 833:Drivers/CMSIS/Include/cmsis_gcc.h ****   \brief   No Operation
 834:Drivers/CMSIS/Include/cmsis_gcc.h ****   \details No Operation does nothing. This instruction can be used for code alignment purposes.
 835:Drivers/CMSIS/Include/cmsis_gcc.h ****  */
 836:Drivers/CMSIS/Include/cmsis_gcc.h **** #define __NOP()                             __ASM volatile ("nop")
 837:Drivers/CMSIS/Include/cmsis_gcc.h **** 
 838:Drivers/CMSIS/Include/cmsis_gcc.h **** /**
 839:Drivers/CMSIS/Include/cmsis_gcc.h ****   \brief   Wait For Interrupt
 840:Drivers/CMSIS/Include/cmsis_gcc.h ****   \details Wait For Interrupt is a hint instruction that suspends execution until one of a number o
 841:Drivers/CMSIS/Include/cmsis_gcc.h ****  */
ARM GAS  C:\Users\Kaa\AppData\Local\Temp\ccMt5vPx.s 			page 23


 842:Drivers/CMSIS/Include/cmsis_gcc.h **** #define __WFI()                             __ASM volatile ("wfi")
 843:Drivers/CMSIS/Include/cmsis_gcc.h **** 
 844:Drivers/CMSIS/Include/cmsis_gcc.h **** 
 845:Drivers/CMSIS/Include/cmsis_gcc.h **** /**
 846:Drivers/CMSIS/Include/cmsis_gcc.h ****   \brief   Wait For Event
 847:Drivers/CMSIS/Include/cmsis_gcc.h ****   \details Wait For Event is a hint instruction that permits the processor to enter
 848:Drivers/CMSIS/Include/cmsis_gcc.h ****            a low-power state until one of a number of events occurs.
 849:Drivers/CMSIS/Include/cmsis_gcc.h ****  */
 850:Drivers/CMSIS/Include/cmsis_gcc.h **** #define __WFE()                             __ASM volatile ("wfe")
 851:Drivers/CMSIS/Include/cmsis_gcc.h **** 
 852:Drivers/CMSIS/Include/cmsis_gcc.h **** 
 853:Drivers/CMSIS/Include/cmsis_gcc.h **** /**
 854:Drivers/CMSIS/Include/cmsis_gcc.h ****   \brief   Send Event
 855:Drivers/CMSIS/Include/cmsis_gcc.h ****   \details Send Event is a hint instruction. It causes an event to be signaled to the CPU.
 856:Drivers/CMSIS/Include/cmsis_gcc.h ****  */
 857:Drivers/CMSIS/Include/cmsis_gcc.h **** #define __SEV()                             __ASM volatile ("sev")
 858:Drivers/CMSIS/Include/cmsis_gcc.h **** 
 859:Drivers/CMSIS/Include/cmsis_gcc.h **** 
 860:Drivers/CMSIS/Include/cmsis_gcc.h **** /**
 861:Drivers/CMSIS/Include/cmsis_gcc.h ****   \brief   Instruction Synchronization Barrier
 862:Drivers/CMSIS/Include/cmsis_gcc.h ****   \details Instruction Synchronization Barrier flushes the pipeline in the processor,
 863:Drivers/CMSIS/Include/cmsis_gcc.h ****            so that all instructions following the ISB are fetched from cache or memory,
 864:Drivers/CMSIS/Include/cmsis_gcc.h ****            after the instruction has been completed.
 865:Drivers/CMSIS/Include/cmsis_gcc.h ****  */
 866:Drivers/CMSIS/Include/cmsis_gcc.h **** __STATIC_FORCEINLINE void __ISB(void)
 867:Drivers/CMSIS/Include/cmsis_gcc.h **** {
 868:Drivers/CMSIS/Include/cmsis_gcc.h ****   __ASM volatile ("isb 0xF":::"memory");
 869:Drivers/CMSIS/Include/cmsis_gcc.h **** }
 870:Drivers/CMSIS/Include/cmsis_gcc.h **** 
 871:Drivers/CMSIS/Include/cmsis_gcc.h **** 
 872:Drivers/CMSIS/Include/cmsis_gcc.h **** /**
 873:Drivers/CMSIS/Include/cmsis_gcc.h ****   \brief   Data Synchronization Barrier
 874:Drivers/CMSIS/Include/cmsis_gcc.h ****   \details Acts as a special kind of Data Memory Barrier.
 875:Drivers/CMSIS/Include/cmsis_gcc.h ****            It completes when all explicit memory accesses before this instruction complete.
 876:Drivers/CMSIS/Include/cmsis_gcc.h ****  */
 877:Drivers/CMSIS/Include/cmsis_gcc.h **** __STATIC_FORCEINLINE void __DSB(void)
 878:Drivers/CMSIS/Include/cmsis_gcc.h **** {
 879:Drivers/CMSIS/Include/cmsis_gcc.h ****   __ASM volatile ("dsb 0xF":::"memory");
 880:Drivers/CMSIS/Include/cmsis_gcc.h **** }
 881:Drivers/CMSIS/Include/cmsis_gcc.h **** 
 882:Drivers/CMSIS/Include/cmsis_gcc.h **** 
 883:Drivers/CMSIS/Include/cmsis_gcc.h **** /**
 884:Drivers/CMSIS/Include/cmsis_gcc.h ****   \brief   Data Memory Barrier
 885:Drivers/CMSIS/Include/cmsis_gcc.h ****   \details Ensures the apparent order of the explicit memory operations before
 886:Drivers/CMSIS/Include/cmsis_gcc.h ****            and after the instruction, without ensuring their completion.
 887:Drivers/CMSIS/Include/cmsis_gcc.h ****  */
 888:Drivers/CMSIS/Include/cmsis_gcc.h **** __STATIC_FORCEINLINE void __DMB(void)
 889:Drivers/CMSIS/Include/cmsis_gcc.h **** {
 890:Drivers/CMSIS/Include/cmsis_gcc.h ****   __ASM volatile ("dmb 0xF":::"memory");
 891:Drivers/CMSIS/Include/cmsis_gcc.h **** }
 892:Drivers/CMSIS/Include/cmsis_gcc.h **** 
 893:Drivers/CMSIS/Include/cmsis_gcc.h **** 
 894:Drivers/CMSIS/Include/cmsis_gcc.h **** /**
 895:Drivers/CMSIS/Include/cmsis_gcc.h ****   \brief   Reverse byte order (32 bit)
 896:Drivers/CMSIS/Include/cmsis_gcc.h ****   \details Reverses the byte order in unsigned integer value. For example, 0x12345678 becomes 0x785
 897:Drivers/CMSIS/Include/cmsis_gcc.h ****   \param [in]    value  Value to reverse
 898:Drivers/CMSIS/Include/cmsis_gcc.h ****   \return               Reversed value
ARM GAS  C:\Users\Kaa\AppData\Local\Temp\ccMt5vPx.s 			page 24


 899:Drivers/CMSIS/Include/cmsis_gcc.h ****  */
 900:Drivers/CMSIS/Include/cmsis_gcc.h **** __STATIC_FORCEINLINE uint32_t __REV(uint32_t value)
 901:Drivers/CMSIS/Include/cmsis_gcc.h **** {
 902:Drivers/CMSIS/Include/cmsis_gcc.h **** #if (__GNUC__ > 4) || (__GNUC__ == 4 && __GNUC_MINOR__ >= 5)
 903:Drivers/CMSIS/Include/cmsis_gcc.h ****   return __builtin_bswap32(value);
 904:Drivers/CMSIS/Include/cmsis_gcc.h **** #else
 905:Drivers/CMSIS/Include/cmsis_gcc.h ****   uint32_t result;
 906:Drivers/CMSIS/Include/cmsis_gcc.h **** 
 907:Drivers/CMSIS/Include/cmsis_gcc.h ****   __ASM volatile ("rev %0, %1" : __CMSIS_GCC_OUT_REG (result) : __CMSIS_GCC_USE_REG (value) );
 908:Drivers/CMSIS/Include/cmsis_gcc.h ****   return result;
 909:Drivers/CMSIS/Include/cmsis_gcc.h **** #endif
 910:Drivers/CMSIS/Include/cmsis_gcc.h **** }
 911:Drivers/CMSIS/Include/cmsis_gcc.h **** 
 912:Drivers/CMSIS/Include/cmsis_gcc.h **** 
 913:Drivers/CMSIS/Include/cmsis_gcc.h **** /**
 914:Drivers/CMSIS/Include/cmsis_gcc.h ****   \brief   Reverse byte order (16 bit)
 915:Drivers/CMSIS/Include/cmsis_gcc.h ****   \details Reverses the byte order within each halfword of a word. For example, 0x12345678 becomes 
 916:Drivers/CMSIS/Include/cmsis_gcc.h ****   \param [in]    value  Value to reverse
 917:Drivers/CMSIS/Include/cmsis_gcc.h ****   \return               Reversed value
 918:Drivers/CMSIS/Include/cmsis_gcc.h ****  */
 919:Drivers/CMSIS/Include/cmsis_gcc.h **** __STATIC_FORCEINLINE uint32_t __REV16(uint32_t value)
 920:Drivers/CMSIS/Include/cmsis_gcc.h **** {
 921:Drivers/CMSIS/Include/cmsis_gcc.h ****   uint32_t result;
 922:Drivers/CMSIS/Include/cmsis_gcc.h **** 
 923:Drivers/CMSIS/Include/cmsis_gcc.h ****   __ASM volatile ("rev16 %0, %1" : __CMSIS_GCC_OUT_REG (result) : __CMSIS_GCC_USE_REG (value) );
 924:Drivers/CMSIS/Include/cmsis_gcc.h ****   return result;
 925:Drivers/CMSIS/Include/cmsis_gcc.h **** }
 926:Drivers/CMSIS/Include/cmsis_gcc.h **** 
 927:Drivers/CMSIS/Include/cmsis_gcc.h **** 
 928:Drivers/CMSIS/Include/cmsis_gcc.h **** /**
 929:Drivers/CMSIS/Include/cmsis_gcc.h ****   \brief   Reverse byte order (16 bit)
 930:Drivers/CMSIS/Include/cmsis_gcc.h ****   \details Reverses the byte order in a 16-bit value and returns the signed 16-bit result. For exam
 931:Drivers/CMSIS/Include/cmsis_gcc.h ****   \param [in]    value  Value to reverse
 932:Drivers/CMSIS/Include/cmsis_gcc.h ****   \return               Reversed value
 933:Drivers/CMSIS/Include/cmsis_gcc.h ****  */
 934:Drivers/CMSIS/Include/cmsis_gcc.h **** __STATIC_FORCEINLINE int16_t __REVSH(int16_t value)
 935:Drivers/CMSIS/Include/cmsis_gcc.h **** {
 936:Drivers/CMSIS/Include/cmsis_gcc.h **** #if (__GNUC__ > 4) || (__GNUC__ == 4 && __GNUC_MINOR__ >= 8)
 937:Drivers/CMSIS/Include/cmsis_gcc.h ****   return (int16_t)__builtin_bswap16(value);
 938:Drivers/CMSIS/Include/cmsis_gcc.h **** #else
 939:Drivers/CMSIS/Include/cmsis_gcc.h ****   int16_t result;
 940:Drivers/CMSIS/Include/cmsis_gcc.h **** 
 941:Drivers/CMSIS/Include/cmsis_gcc.h ****   __ASM volatile ("revsh %0, %1" : __CMSIS_GCC_OUT_REG (result) : __CMSIS_GCC_USE_REG (value) );
 942:Drivers/CMSIS/Include/cmsis_gcc.h ****   return result;
 943:Drivers/CMSIS/Include/cmsis_gcc.h **** #endif
 944:Drivers/CMSIS/Include/cmsis_gcc.h **** }
 945:Drivers/CMSIS/Include/cmsis_gcc.h **** 
 946:Drivers/CMSIS/Include/cmsis_gcc.h **** 
 947:Drivers/CMSIS/Include/cmsis_gcc.h **** /**
 948:Drivers/CMSIS/Include/cmsis_gcc.h ****   \brief   Rotate Right in unsigned value (32 bit)
 949:Drivers/CMSIS/Include/cmsis_gcc.h ****   \details Rotate Right (immediate) provides the value of the contents of a register rotated by a v
 950:Drivers/CMSIS/Include/cmsis_gcc.h ****   \param [in]    op1  Value to rotate
 951:Drivers/CMSIS/Include/cmsis_gcc.h ****   \param [in]    op2  Number of Bits to rotate
 952:Drivers/CMSIS/Include/cmsis_gcc.h ****   \return               Rotated value
 953:Drivers/CMSIS/Include/cmsis_gcc.h ****  */
 954:Drivers/CMSIS/Include/cmsis_gcc.h **** __STATIC_FORCEINLINE uint32_t __ROR(uint32_t op1, uint32_t op2)
 955:Drivers/CMSIS/Include/cmsis_gcc.h **** {
ARM GAS  C:\Users\Kaa\AppData\Local\Temp\ccMt5vPx.s 			page 25


 956:Drivers/CMSIS/Include/cmsis_gcc.h ****   op2 %= 32U;
 957:Drivers/CMSIS/Include/cmsis_gcc.h ****   if (op2 == 0U)
 958:Drivers/CMSIS/Include/cmsis_gcc.h ****   {
 959:Drivers/CMSIS/Include/cmsis_gcc.h ****     return op1;
 960:Drivers/CMSIS/Include/cmsis_gcc.h ****   }
 961:Drivers/CMSIS/Include/cmsis_gcc.h ****   return (op1 >> op2) | (op1 << (32U - op2));
 962:Drivers/CMSIS/Include/cmsis_gcc.h **** }
 963:Drivers/CMSIS/Include/cmsis_gcc.h **** 
 964:Drivers/CMSIS/Include/cmsis_gcc.h **** 
 965:Drivers/CMSIS/Include/cmsis_gcc.h **** /**
 966:Drivers/CMSIS/Include/cmsis_gcc.h ****   \brief   Breakpoint
 967:Drivers/CMSIS/Include/cmsis_gcc.h ****   \details Causes the processor to enter Debug state.
 968:Drivers/CMSIS/Include/cmsis_gcc.h ****            Debug tools can use this to investigate system state when the instruction at a particula
 969:Drivers/CMSIS/Include/cmsis_gcc.h ****   \param [in]    value  is ignored by the processor.
 970:Drivers/CMSIS/Include/cmsis_gcc.h ****                  If required, a debugger can use it to store additional information about the break
 971:Drivers/CMSIS/Include/cmsis_gcc.h ****  */
 972:Drivers/CMSIS/Include/cmsis_gcc.h **** #define __BKPT(value)                       __ASM volatile ("bkpt "#value)
 973:Drivers/CMSIS/Include/cmsis_gcc.h **** 
 974:Drivers/CMSIS/Include/cmsis_gcc.h **** 
 975:Drivers/CMSIS/Include/cmsis_gcc.h **** /**
 976:Drivers/CMSIS/Include/cmsis_gcc.h ****   \brief   Reverse bit order of value
 977:Drivers/CMSIS/Include/cmsis_gcc.h ****   \details Reverses the bit order of the given value.
 978:Drivers/CMSIS/Include/cmsis_gcc.h ****   \param [in]    value  Value to reverse
 979:Drivers/CMSIS/Include/cmsis_gcc.h ****   \return               Reversed value
 980:Drivers/CMSIS/Include/cmsis_gcc.h ****  */
 981:Drivers/CMSIS/Include/cmsis_gcc.h **** __STATIC_FORCEINLINE uint32_t __RBIT(uint32_t value)
  56              		.loc 3 981 31 view .LVU6
  57              	.LBB693:
 982:Drivers/CMSIS/Include/cmsis_gcc.h **** {
 983:Drivers/CMSIS/Include/cmsis_gcc.h ****   uint32_t result;
  58              		.loc 3 983 3 view .LVU7
 984:Drivers/CMSIS/Include/cmsis_gcc.h **** 
 985:Drivers/CMSIS/Include/cmsis_gcc.h **** #if ((defined (__ARM_ARCH_7M__      ) && (__ARM_ARCH_7M__      == 1)) || \
 986:Drivers/CMSIS/Include/cmsis_gcc.h ****      (defined (__ARM_ARCH_7EM__     ) && (__ARM_ARCH_7EM__     == 1)) || \
 987:Drivers/CMSIS/Include/cmsis_gcc.h ****      (defined (__ARM_ARCH_8M_MAIN__ ) && (__ARM_ARCH_8M_MAIN__ == 1))    )
 988:Drivers/CMSIS/Include/cmsis_gcc.h ****    __ASM volatile ("rbit %0, %1" : "=r" (result) : "r" (value) );
  59              		.loc 3 988 4 view .LVU8
  60 0006 40F20112 		movw	r2, #257
  61              		.syntax unified
  62              	@ 988 "Drivers/CMSIS/Include/cmsis_gcc.h" 1
  63 000a 92FAA2F0 		rbit r0, r2
  64              	@ 0 "" 2
  65              	.LVL3:
 989:Drivers/CMSIS/Include/cmsis_gcc.h **** #else
 990:Drivers/CMSIS/Include/cmsis_gcc.h ****   uint32_t s = (4U /*sizeof(v)*/ * 8U) - 1U; /* extra shift needed at end */
 991:Drivers/CMSIS/Include/cmsis_gcc.h **** 
 992:Drivers/CMSIS/Include/cmsis_gcc.h ****   result = value;                      /* r will be reversed bits of v; first get LSB of v */
 993:Drivers/CMSIS/Include/cmsis_gcc.h ****   for (value >>= 1U; value != 0U; value >>= 1U)
 994:Drivers/CMSIS/Include/cmsis_gcc.h ****   {
 995:Drivers/CMSIS/Include/cmsis_gcc.h ****     result <<= 1U;
 996:Drivers/CMSIS/Include/cmsis_gcc.h ****     result |= value & 1U;
 997:Drivers/CMSIS/Include/cmsis_gcc.h ****     s--;
 998:Drivers/CMSIS/Include/cmsis_gcc.h ****   }
 999:Drivers/CMSIS/Include/cmsis_gcc.h ****   result <<= s;                        /* shift when v's highest bits are zero */
1000:Drivers/CMSIS/Include/cmsis_gcc.h **** #endif
1001:Drivers/CMSIS/Include/cmsis_gcc.h ****   return result;
  66              		.loc 3 1001 3 view .LVU9
ARM GAS  C:\Users\Kaa\AppData\Local\Temp\ccMt5vPx.s 			page 26


  67              		.loc 3 1001 3 is_stmt 0 view .LVU10
  68              		.thumb
  69              		.syntax unified
  70              	.LBE693:
  71              	.LBE692:
  72              		.loc 2 344 3 view .LVU11
  73 000e B0FA80F0 		clz	r0, r0
  74 0012 8000     		lsls	r0, r0, #2
  75 0014 0F26     		movs	r6, #15
  76 0016 06FA00F0 		lsl	r0, r6, r0
  77 001a 23EA0003 		bic	r3, r3, r0
  78              	.LVL4:
  79              	.LBB694:
  80              	.LBI694:
 981:Drivers/CMSIS/Include/cmsis_gcc.h **** {
  81              		.loc 3 981 31 is_stmt 1 view .LVU12
  82              	.LBB695:
 983:Drivers/CMSIS/Include/cmsis_gcc.h **** 
  83              		.loc 3 983 3 view .LVU13
 988:Drivers/CMSIS/Include/cmsis_gcc.h **** #else
  84              		.loc 3 988 4 view .LVU14
  85              		.syntax unified
  86              	@ 988 "Drivers/CMSIS/Include/cmsis_gcc.h" 1
  87 001e 92FAA2F0 		rbit r0, r2
  88              	@ 0 "" 2
  89              	.LVL5:
  90              		.loc 3 1001 3 view .LVU15
  91              		.loc 3 1001 3 is_stmt 0 view .LVU16
  92              		.thumb
  93              		.syntax unified
  94              	.LBE695:
  95              	.LBE694:
  96              		.loc 2 344 3 view .LVU17
  97 0022 B0FA80F0 		clz	r0, r0
  98 0026 8000     		lsls	r0, r0, #2
  99 0028 0125     		movs	r5, #1
 100 002a 05FA00F0 		lsl	r0, r5, r0
 101 002e 0343     		orrs	r3, r3, r0
 102              	.LVL6:
 103              		.loc 2 344 3 view .LVU18
 104              	.LBE691:
 105              	.LBE690:
  16:App/z80ramm/z80ramm_gpio.c ****     LL_GPIO_SetPinSpeed(RAMM_ADR_PORT, A0_Pin, LL_GPIO_SPEED_FREQ_HIGH);
 106              		.loc 1 16 5 is_stmt 1 view .LVU19
 107              	.LBB696:
 108              	.LBI696:
 345:Drivers/STM32F1xx_HAL_Driver/Inc/stm32f1xx_ll_gpio.h **** }
 346:Drivers/STM32F1xx_HAL_Driver/Inc/stm32f1xx_ll_gpio.h **** 
 347:Drivers/STM32F1xx_HAL_Driver/Inc/stm32f1xx_ll_gpio.h **** /**
 348:Drivers/STM32F1xx_HAL_Driver/Inc/stm32f1xx_ll_gpio.h ****   * @brief  Return gpio mode for a dedicated pin on dedicated port.
 349:Drivers/STM32F1xx_HAL_Driver/Inc/stm32f1xx_ll_gpio.h ****   * @note   I/O mode can be Analog, Floating input, Input with pull-up/pull-down, General purpose O
 350:Drivers/STM32F1xx_HAL_Driver/Inc/stm32f1xx_ll_gpio.h ****   *         Alternate function Output.
 351:Drivers/STM32F1xx_HAL_Driver/Inc/stm32f1xx_ll_gpio.h ****   * @note   Warning: only one pin can be passed as parameter.
 352:Drivers/STM32F1xx_HAL_Driver/Inc/stm32f1xx_ll_gpio.h ****   * @rmtoll CRL        CNFy         LL_GPIO_GetPinMode
 353:Drivers/STM32F1xx_HAL_Driver/Inc/stm32f1xx_ll_gpio.h ****   * @rmtoll CRL        MODEy        LL_GPIO_GetPinMode
 354:Drivers/STM32F1xx_HAL_Driver/Inc/stm32f1xx_ll_gpio.h ****   * @rmtoll CRH        CNFy         LL_GPIO_GetPinMode
 355:Drivers/STM32F1xx_HAL_Driver/Inc/stm32f1xx_ll_gpio.h ****   * @rmtoll CRH        MODEy        LL_GPIO_GetPinMode
ARM GAS  C:\Users\Kaa\AppData\Local\Temp\ccMt5vPx.s 			page 27


 356:Drivers/STM32F1xx_HAL_Driver/Inc/stm32f1xx_ll_gpio.h ****   * @param  GPIOx GPIO Port
 357:Drivers/STM32F1xx_HAL_Driver/Inc/stm32f1xx_ll_gpio.h ****   * @param  Pin This parameter can be one of the following values:
 358:Drivers/STM32F1xx_HAL_Driver/Inc/stm32f1xx_ll_gpio.h ****   *         @arg @ref LL_GPIO_PIN_0
 359:Drivers/STM32F1xx_HAL_Driver/Inc/stm32f1xx_ll_gpio.h ****   *         @arg @ref LL_GPIO_PIN_1
 360:Drivers/STM32F1xx_HAL_Driver/Inc/stm32f1xx_ll_gpio.h ****   *         @arg @ref LL_GPIO_PIN_2
 361:Drivers/STM32F1xx_HAL_Driver/Inc/stm32f1xx_ll_gpio.h ****   *         @arg @ref LL_GPIO_PIN_3
 362:Drivers/STM32F1xx_HAL_Driver/Inc/stm32f1xx_ll_gpio.h ****   *         @arg @ref LL_GPIO_PIN_4
 363:Drivers/STM32F1xx_HAL_Driver/Inc/stm32f1xx_ll_gpio.h ****   *         @arg @ref LL_GPIO_PIN_5
 364:Drivers/STM32F1xx_HAL_Driver/Inc/stm32f1xx_ll_gpio.h ****   *         @arg @ref LL_GPIO_PIN_6
 365:Drivers/STM32F1xx_HAL_Driver/Inc/stm32f1xx_ll_gpio.h ****   *         @arg @ref LL_GPIO_PIN_7
 366:Drivers/STM32F1xx_HAL_Driver/Inc/stm32f1xx_ll_gpio.h ****   *         @arg @ref LL_GPIO_PIN_8
 367:Drivers/STM32F1xx_HAL_Driver/Inc/stm32f1xx_ll_gpio.h ****   *         @arg @ref LL_GPIO_PIN_9
 368:Drivers/STM32F1xx_HAL_Driver/Inc/stm32f1xx_ll_gpio.h ****   *         @arg @ref LL_GPIO_PIN_10
 369:Drivers/STM32F1xx_HAL_Driver/Inc/stm32f1xx_ll_gpio.h ****   *         @arg @ref LL_GPIO_PIN_11
 370:Drivers/STM32F1xx_HAL_Driver/Inc/stm32f1xx_ll_gpio.h ****   *         @arg @ref LL_GPIO_PIN_12
 371:Drivers/STM32F1xx_HAL_Driver/Inc/stm32f1xx_ll_gpio.h ****   *         @arg @ref LL_GPIO_PIN_13
 372:Drivers/STM32F1xx_HAL_Driver/Inc/stm32f1xx_ll_gpio.h ****   *         @arg @ref LL_GPIO_PIN_14
 373:Drivers/STM32F1xx_HAL_Driver/Inc/stm32f1xx_ll_gpio.h ****   *         @arg @ref LL_GPIO_PIN_15
 374:Drivers/STM32F1xx_HAL_Driver/Inc/stm32f1xx_ll_gpio.h ****   * @retval Returned value can be one of the following values:
 375:Drivers/STM32F1xx_HAL_Driver/Inc/stm32f1xx_ll_gpio.h ****   *         @arg @ref LL_GPIO_MODE_ANALOG
 376:Drivers/STM32F1xx_HAL_Driver/Inc/stm32f1xx_ll_gpio.h ****   *         @arg @ref LL_GPIO_MODE_FLOATING
 377:Drivers/STM32F1xx_HAL_Driver/Inc/stm32f1xx_ll_gpio.h ****   *         @arg @ref LL_GPIO_MODE_INPUT
 378:Drivers/STM32F1xx_HAL_Driver/Inc/stm32f1xx_ll_gpio.h ****   *         @arg @ref LL_GPIO_MODE_OUTPUT
 379:Drivers/STM32F1xx_HAL_Driver/Inc/stm32f1xx_ll_gpio.h ****   *         @arg @ref LL_GPIO_MODE_ALTERNATE
 380:Drivers/STM32F1xx_HAL_Driver/Inc/stm32f1xx_ll_gpio.h ****   */
 381:Drivers/STM32F1xx_HAL_Driver/Inc/stm32f1xx_ll_gpio.h **** __STATIC_INLINE uint32_t LL_GPIO_GetPinMode(GPIO_TypeDef *GPIOx, uint32_t Pin)
 382:Drivers/STM32F1xx_HAL_Driver/Inc/stm32f1xx_ll_gpio.h **** {
 383:Drivers/STM32F1xx_HAL_Driver/Inc/stm32f1xx_ll_gpio.h ****   register uint32_t *pReg = (uint32_t *)((uint32_t)((uint32_t)(&GPIOx->CRL) + (Pin >> 24)));
 384:Drivers/STM32F1xx_HAL_Driver/Inc/stm32f1xx_ll_gpio.h ****   return (READ_BIT(*pReg, ((GPIO_CRL_CNF0 | GPIO_CRL_MODE0) << (POSITION_VAL(Pin) * 4U))) >> (POSIT
 385:Drivers/STM32F1xx_HAL_Driver/Inc/stm32f1xx_ll_gpio.h **** }
 386:Drivers/STM32F1xx_HAL_Driver/Inc/stm32f1xx_ll_gpio.h **** 
 387:Drivers/STM32F1xx_HAL_Driver/Inc/stm32f1xx_ll_gpio.h **** /**
 388:Drivers/STM32F1xx_HAL_Driver/Inc/stm32f1xx_ll_gpio.h ****   * @brief  Configure gpio speed for a dedicated pin on dedicated port.
 389:Drivers/STM32F1xx_HAL_Driver/Inc/stm32f1xx_ll_gpio.h ****   * @note   I/O speed can be Low, Medium or Fast speed.
 390:Drivers/STM32F1xx_HAL_Driver/Inc/stm32f1xx_ll_gpio.h ****   * @note   Warning: only one pin can be passed as parameter.
 391:Drivers/STM32F1xx_HAL_Driver/Inc/stm32f1xx_ll_gpio.h ****   * @note   Refer to datasheet for frequency specifications and the power
 392:Drivers/STM32F1xx_HAL_Driver/Inc/stm32f1xx_ll_gpio.h ****   *         supply and load conditions for each speed.
 393:Drivers/STM32F1xx_HAL_Driver/Inc/stm32f1xx_ll_gpio.h ****   * @rmtoll CRL      MODEy       LL_GPIO_SetPinSpeed
 394:Drivers/STM32F1xx_HAL_Driver/Inc/stm32f1xx_ll_gpio.h ****   * @rmtoll CRH      MODEy       LL_GPIO_SetPinSpeed
 395:Drivers/STM32F1xx_HAL_Driver/Inc/stm32f1xx_ll_gpio.h ****   * @param  GPIOx GPIO Port
 396:Drivers/STM32F1xx_HAL_Driver/Inc/stm32f1xx_ll_gpio.h ****   * @param  Pin This parameter can be one of the following values:
 397:Drivers/STM32F1xx_HAL_Driver/Inc/stm32f1xx_ll_gpio.h ****   *         @arg @ref LL_GPIO_PIN_0
 398:Drivers/STM32F1xx_HAL_Driver/Inc/stm32f1xx_ll_gpio.h ****   *         @arg @ref LL_GPIO_PIN_1
 399:Drivers/STM32F1xx_HAL_Driver/Inc/stm32f1xx_ll_gpio.h ****   *         @arg @ref LL_GPIO_PIN_2
 400:Drivers/STM32F1xx_HAL_Driver/Inc/stm32f1xx_ll_gpio.h ****   *         @arg @ref LL_GPIO_PIN_3
 401:Drivers/STM32F1xx_HAL_Driver/Inc/stm32f1xx_ll_gpio.h ****   *         @arg @ref LL_GPIO_PIN_4
 402:Drivers/STM32F1xx_HAL_Driver/Inc/stm32f1xx_ll_gpio.h ****   *         @arg @ref LL_GPIO_PIN_5
 403:Drivers/STM32F1xx_HAL_Driver/Inc/stm32f1xx_ll_gpio.h ****   *         @arg @ref LL_GPIO_PIN_6
 404:Drivers/STM32F1xx_HAL_Driver/Inc/stm32f1xx_ll_gpio.h ****   *         @arg @ref LL_GPIO_PIN_7
 405:Drivers/STM32F1xx_HAL_Driver/Inc/stm32f1xx_ll_gpio.h ****   *         @arg @ref LL_GPIO_PIN_8
 406:Drivers/STM32F1xx_HAL_Driver/Inc/stm32f1xx_ll_gpio.h ****   *         @arg @ref LL_GPIO_PIN_9
 407:Drivers/STM32F1xx_HAL_Driver/Inc/stm32f1xx_ll_gpio.h ****   *         @arg @ref LL_GPIO_PIN_10
 408:Drivers/STM32F1xx_HAL_Driver/Inc/stm32f1xx_ll_gpio.h ****   *         @arg @ref LL_GPIO_PIN_11
 409:Drivers/STM32F1xx_HAL_Driver/Inc/stm32f1xx_ll_gpio.h ****   *         @arg @ref LL_GPIO_PIN_12
 410:Drivers/STM32F1xx_HAL_Driver/Inc/stm32f1xx_ll_gpio.h ****   *         @arg @ref LL_GPIO_PIN_13
 411:Drivers/STM32F1xx_HAL_Driver/Inc/stm32f1xx_ll_gpio.h ****   *         @arg @ref LL_GPIO_PIN_14
 412:Drivers/STM32F1xx_HAL_Driver/Inc/stm32f1xx_ll_gpio.h ****   *         @arg @ref LL_GPIO_PIN_15
ARM GAS  C:\Users\Kaa\AppData\Local\Temp\ccMt5vPx.s 			page 28


 413:Drivers/STM32F1xx_HAL_Driver/Inc/stm32f1xx_ll_gpio.h ****   * @param  Speed This parameter can be one of the following values:
 414:Drivers/STM32F1xx_HAL_Driver/Inc/stm32f1xx_ll_gpio.h ****   *         @arg @ref LL_GPIO_SPEED_FREQ_LOW
 415:Drivers/STM32F1xx_HAL_Driver/Inc/stm32f1xx_ll_gpio.h ****   *         @arg @ref LL_GPIO_SPEED_FREQ_MEDIUM
 416:Drivers/STM32F1xx_HAL_Driver/Inc/stm32f1xx_ll_gpio.h ****   *         @arg @ref LL_GPIO_SPEED_FREQ_HIGH
 417:Drivers/STM32F1xx_HAL_Driver/Inc/stm32f1xx_ll_gpio.h ****   * @retval None
 418:Drivers/STM32F1xx_HAL_Driver/Inc/stm32f1xx_ll_gpio.h ****   */
 419:Drivers/STM32F1xx_HAL_Driver/Inc/stm32f1xx_ll_gpio.h **** __STATIC_INLINE void LL_GPIO_SetPinSpeed(GPIO_TypeDef *GPIOx, uint32_t Pin, uint32_t  Speed)
 109              		.loc 2 419 22 view .LVU20
 110              	.LBB697:
 420:Drivers/STM32F1xx_HAL_Driver/Inc/stm32f1xx_ll_gpio.h **** {
 421:Drivers/STM32F1xx_HAL_Driver/Inc/stm32f1xx_ll_gpio.h ****   register uint32_t *pReg = (uint32_t *)((uint32_t)((uint32_t)(&GPIOx->CRL) + (Pin >> 24)));
 111              		.loc 2 421 3 view .LVU21
 422:Drivers/STM32F1xx_HAL_Driver/Inc/stm32f1xx_ll_gpio.h ****   MODIFY_REG(*pReg, (GPIO_CRL_MODE0 << (POSITION_VAL(Pin) * 4U)),
 112              		.loc 2 422 3 view .LVU22
 113              	.LBB698:
 114              	.LBI698:
 981:Drivers/CMSIS/Include/cmsis_gcc.h **** {
 115              		.loc 3 981 31 view .LVU23
 116              	.LBB699:
 983:Drivers/CMSIS/Include/cmsis_gcc.h **** 
 117              		.loc 3 983 3 view .LVU24
 988:Drivers/CMSIS/Include/cmsis_gcc.h **** #else
 118              		.loc 3 988 4 view .LVU25
 119              		.syntax unified
 120              	@ 988 "Drivers/CMSIS/Include/cmsis_gcc.h" 1
 121 0030 92FAA2F0 		rbit r0, r2
 122              	@ 0 "" 2
 123              	.LVL7:
 124              		.loc 3 1001 3 view .LVU26
 125              		.loc 3 1001 3 is_stmt 0 view .LVU27
 126              		.thumb
 127              		.syntax unified
 128              	.LBE699:
 129              	.LBE698:
 130              		.loc 2 422 3 view .LVU28
 131 0034 B0FA80F0 		clz	r0, r0
 132 0038 8000     		lsls	r0, r0, #2
 133 003a 0324     		movs	r4, #3
 134 003c 04FA00F0 		lsl	r0, r4, r0
 135 0040 23EA0003 		bic	r3, r3, r0
 136              	.LVL8:
 137              	.LBB700:
 138              	.LBI700:
 981:Drivers/CMSIS/Include/cmsis_gcc.h **** {
 139              		.loc 3 981 31 is_stmt 1 view .LVU29
 140              	.LBB701:
 983:Drivers/CMSIS/Include/cmsis_gcc.h **** 
 141              		.loc 3 983 3 view .LVU30
 988:Drivers/CMSIS/Include/cmsis_gcc.h **** #else
 142              		.loc 3 988 4 view .LVU31
 143              		.syntax unified
 144              	@ 988 "Drivers/CMSIS/Include/cmsis_gcc.h" 1
 145 0044 92FAA2F0 		rbit r0, r2
 146              	@ 0 "" 2
 147              	.LVL9:
 148              		.loc 3 1001 3 view .LVU32
 149              		.loc 3 1001 3 is_stmt 0 view .LVU33
ARM GAS  C:\Users\Kaa\AppData\Local\Temp\ccMt5vPx.s 			page 29


 150              		.thumb
 151              		.syntax unified
 152              	.LBE701:
 153              	.LBE700:
 154              		.loc 2 422 3 view .LVU34
 155 0048 B0FA80F0 		clz	r0, r0
 156 004c 8000     		lsls	r0, r0, #2
 157 004e 04FA00F0 		lsl	r0, r4, r0
 158 0052 0343     		orrs	r3, r3, r0
 159              	.LVL10:
 160              		.loc 2 422 3 view .LVU35
 161              	.LBE697:
 162              	.LBE696:
  17:App/z80ramm/z80ramm_gpio.c ****     LL_GPIO_SetPinOutputType(RAMM_ADR_PORT, A0_Pin, LL_GPIO_OUTPUT_PUSHPULL);
 163              		.loc 1 17 5 is_stmt 1 view .LVU36
 164              	.LBB702:
 165              	.LBI702:
 423:Drivers/STM32F1xx_HAL_Driver/Inc/stm32f1xx_ll_gpio.h ****              (Speed << (POSITION_VAL(Pin) * 4U)));
 424:Drivers/STM32F1xx_HAL_Driver/Inc/stm32f1xx_ll_gpio.h **** }
 425:Drivers/STM32F1xx_HAL_Driver/Inc/stm32f1xx_ll_gpio.h **** 
 426:Drivers/STM32F1xx_HAL_Driver/Inc/stm32f1xx_ll_gpio.h **** /**
 427:Drivers/STM32F1xx_HAL_Driver/Inc/stm32f1xx_ll_gpio.h ****   * @brief  Return gpio speed for a dedicated pin on dedicated port.
 428:Drivers/STM32F1xx_HAL_Driver/Inc/stm32f1xx_ll_gpio.h ****   * @note   I/O speed can be Low, Medium, Fast or High speed.
 429:Drivers/STM32F1xx_HAL_Driver/Inc/stm32f1xx_ll_gpio.h ****   * @note   Warning: only one pin can be passed as parameter.
 430:Drivers/STM32F1xx_HAL_Driver/Inc/stm32f1xx_ll_gpio.h ****   * @note   Refer to datasheet for frequency specifications and the power
 431:Drivers/STM32F1xx_HAL_Driver/Inc/stm32f1xx_ll_gpio.h ****   *         supply and load conditions for each speed.
 432:Drivers/STM32F1xx_HAL_Driver/Inc/stm32f1xx_ll_gpio.h ****   * @rmtoll CRL      MODEy       LL_GPIO_GetPinSpeed
 433:Drivers/STM32F1xx_HAL_Driver/Inc/stm32f1xx_ll_gpio.h ****   * @rmtoll CRH      MODEy       LL_GPIO_GetPinSpeed
 434:Drivers/STM32F1xx_HAL_Driver/Inc/stm32f1xx_ll_gpio.h ****   * @param  GPIOx GPIO Port
 435:Drivers/STM32F1xx_HAL_Driver/Inc/stm32f1xx_ll_gpio.h ****   * @param  Pin This parameter can be one of the following values:
 436:Drivers/STM32F1xx_HAL_Driver/Inc/stm32f1xx_ll_gpio.h ****   *         @arg @ref LL_GPIO_PIN_0
 437:Drivers/STM32F1xx_HAL_Driver/Inc/stm32f1xx_ll_gpio.h ****   *         @arg @ref LL_GPIO_PIN_1
 438:Drivers/STM32F1xx_HAL_Driver/Inc/stm32f1xx_ll_gpio.h ****   *         @arg @ref LL_GPIO_PIN_2
 439:Drivers/STM32F1xx_HAL_Driver/Inc/stm32f1xx_ll_gpio.h ****   *         @arg @ref LL_GPIO_PIN_3
 440:Drivers/STM32F1xx_HAL_Driver/Inc/stm32f1xx_ll_gpio.h ****   *         @arg @ref LL_GPIO_PIN_4
 441:Drivers/STM32F1xx_HAL_Driver/Inc/stm32f1xx_ll_gpio.h ****   *         @arg @ref LL_GPIO_PIN_5
 442:Drivers/STM32F1xx_HAL_Driver/Inc/stm32f1xx_ll_gpio.h ****   *         @arg @ref LL_GPIO_PIN_6
 443:Drivers/STM32F1xx_HAL_Driver/Inc/stm32f1xx_ll_gpio.h ****   *         @arg @ref LL_GPIO_PIN_7
 444:Drivers/STM32F1xx_HAL_Driver/Inc/stm32f1xx_ll_gpio.h ****   *         @arg @ref LL_GPIO_PIN_8
 445:Drivers/STM32F1xx_HAL_Driver/Inc/stm32f1xx_ll_gpio.h ****   *         @arg @ref LL_GPIO_PIN_9
 446:Drivers/STM32F1xx_HAL_Driver/Inc/stm32f1xx_ll_gpio.h ****   *         @arg @ref LL_GPIO_PIN_10
 447:Drivers/STM32F1xx_HAL_Driver/Inc/stm32f1xx_ll_gpio.h ****   *         @arg @ref LL_GPIO_PIN_11
 448:Drivers/STM32F1xx_HAL_Driver/Inc/stm32f1xx_ll_gpio.h ****   *         @arg @ref LL_GPIO_PIN_12
 449:Drivers/STM32F1xx_HAL_Driver/Inc/stm32f1xx_ll_gpio.h ****   *         @arg @ref LL_GPIO_PIN_13
 450:Drivers/STM32F1xx_HAL_Driver/Inc/stm32f1xx_ll_gpio.h ****   *         @arg @ref LL_GPIO_PIN_14
 451:Drivers/STM32F1xx_HAL_Driver/Inc/stm32f1xx_ll_gpio.h ****   *         @arg @ref LL_GPIO_PIN_15
 452:Drivers/STM32F1xx_HAL_Driver/Inc/stm32f1xx_ll_gpio.h ****   * @retval Returned value can be one of the following values:
 453:Drivers/STM32F1xx_HAL_Driver/Inc/stm32f1xx_ll_gpio.h ****   *         @arg @ref LL_GPIO_SPEED_FREQ_LOW
 454:Drivers/STM32F1xx_HAL_Driver/Inc/stm32f1xx_ll_gpio.h ****   *         @arg @ref LL_GPIO_SPEED_FREQ_MEDIUM
 455:Drivers/STM32F1xx_HAL_Driver/Inc/stm32f1xx_ll_gpio.h ****   *         @arg @ref LL_GPIO_SPEED_FREQ_HIGH
 456:Drivers/STM32F1xx_HAL_Driver/Inc/stm32f1xx_ll_gpio.h ****   */
 457:Drivers/STM32F1xx_HAL_Driver/Inc/stm32f1xx_ll_gpio.h **** __STATIC_INLINE uint32_t LL_GPIO_GetPinSpeed(GPIO_TypeDef *GPIOx, uint32_t Pin)
 458:Drivers/STM32F1xx_HAL_Driver/Inc/stm32f1xx_ll_gpio.h **** {
 459:Drivers/STM32F1xx_HAL_Driver/Inc/stm32f1xx_ll_gpio.h ****   register uint32_t *pReg = (uint32_t *)((uint32_t)((uint32_t)(&GPIOx->CRL) + (Pin >> 24)));
 460:Drivers/STM32F1xx_HAL_Driver/Inc/stm32f1xx_ll_gpio.h ****   return (READ_BIT(*pReg, (GPIO_CRL_MODE0 << (POSITION_VAL(Pin) * 4U))) >> (POSITION_VAL(Pin) * 4U)
 461:Drivers/STM32F1xx_HAL_Driver/Inc/stm32f1xx_ll_gpio.h **** }
 462:Drivers/STM32F1xx_HAL_Driver/Inc/stm32f1xx_ll_gpio.h **** 
ARM GAS  C:\Users\Kaa\AppData\Local\Temp\ccMt5vPx.s 			page 30


 463:Drivers/STM32F1xx_HAL_Driver/Inc/stm32f1xx_ll_gpio.h **** /**
 464:Drivers/STM32F1xx_HAL_Driver/Inc/stm32f1xx_ll_gpio.h ****   * @brief  Configure gpio output type for several pins on dedicated port.
 465:Drivers/STM32F1xx_HAL_Driver/Inc/stm32f1xx_ll_gpio.h ****   * @note   Output type as to be set when gpio pin is in output or
 466:Drivers/STM32F1xx_HAL_Driver/Inc/stm32f1xx_ll_gpio.h ****   *         alternate modes. Possible type are Push-pull or Open-drain.
 467:Drivers/STM32F1xx_HAL_Driver/Inc/stm32f1xx_ll_gpio.h ****   * @rmtoll CRL       MODEy           LL_GPIO_SetPinOutputType
 468:Drivers/STM32F1xx_HAL_Driver/Inc/stm32f1xx_ll_gpio.h ****   * @rmtoll CRH       MODEy           LL_GPIO_SetPinOutputType
 469:Drivers/STM32F1xx_HAL_Driver/Inc/stm32f1xx_ll_gpio.h ****   * @param  GPIOx GPIO Port
 470:Drivers/STM32F1xx_HAL_Driver/Inc/stm32f1xx_ll_gpio.h ****   * @param  Pin This parameter can be a combination of the following values:
 471:Drivers/STM32F1xx_HAL_Driver/Inc/stm32f1xx_ll_gpio.h ****   *         @arg @ref LL_GPIO_PIN_0
 472:Drivers/STM32F1xx_HAL_Driver/Inc/stm32f1xx_ll_gpio.h ****   *         @arg @ref LL_GPIO_PIN_1
 473:Drivers/STM32F1xx_HAL_Driver/Inc/stm32f1xx_ll_gpio.h ****   *         @arg @ref LL_GPIO_PIN_2
 474:Drivers/STM32F1xx_HAL_Driver/Inc/stm32f1xx_ll_gpio.h ****   *         @arg @ref LL_GPIO_PIN_3
 475:Drivers/STM32F1xx_HAL_Driver/Inc/stm32f1xx_ll_gpio.h ****   *         @arg @ref LL_GPIO_PIN_4
 476:Drivers/STM32F1xx_HAL_Driver/Inc/stm32f1xx_ll_gpio.h ****   *         @arg @ref LL_GPIO_PIN_5
 477:Drivers/STM32F1xx_HAL_Driver/Inc/stm32f1xx_ll_gpio.h ****   *         @arg @ref LL_GPIO_PIN_6
 478:Drivers/STM32F1xx_HAL_Driver/Inc/stm32f1xx_ll_gpio.h ****   *         @arg @ref LL_GPIO_PIN_7
 479:Drivers/STM32F1xx_HAL_Driver/Inc/stm32f1xx_ll_gpio.h ****   *         @arg @ref LL_GPIO_PIN_8
 480:Drivers/STM32F1xx_HAL_Driver/Inc/stm32f1xx_ll_gpio.h ****   *         @arg @ref LL_GPIO_PIN_9
 481:Drivers/STM32F1xx_HAL_Driver/Inc/stm32f1xx_ll_gpio.h ****   *         @arg @ref LL_GPIO_PIN_10
 482:Drivers/STM32F1xx_HAL_Driver/Inc/stm32f1xx_ll_gpio.h ****   *         @arg @ref LL_GPIO_PIN_11
 483:Drivers/STM32F1xx_HAL_Driver/Inc/stm32f1xx_ll_gpio.h ****   *         @arg @ref LL_GPIO_PIN_12
 484:Drivers/STM32F1xx_HAL_Driver/Inc/stm32f1xx_ll_gpio.h ****   *         @arg @ref LL_GPIO_PIN_13
 485:Drivers/STM32F1xx_HAL_Driver/Inc/stm32f1xx_ll_gpio.h ****   *         @arg @ref LL_GPIO_PIN_14
 486:Drivers/STM32F1xx_HAL_Driver/Inc/stm32f1xx_ll_gpio.h ****   *         @arg @ref LL_GPIO_PIN_15
 487:Drivers/STM32F1xx_HAL_Driver/Inc/stm32f1xx_ll_gpio.h ****   *         @arg @ref LL_GPIO_PIN_ALL
 488:Drivers/STM32F1xx_HAL_Driver/Inc/stm32f1xx_ll_gpio.h ****   * @param  OutputType This parameter can be one of the following values:
 489:Drivers/STM32F1xx_HAL_Driver/Inc/stm32f1xx_ll_gpio.h ****   *         @arg @ref LL_GPIO_OUTPUT_PUSHPULL
 490:Drivers/STM32F1xx_HAL_Driver/Inc/stm32f1xx_ll_gpio.h ****   *         @arg @ref LL_GPIO_OUTPUT_OPENDRAIN
 491:Drivers/STM32F1xx_HAL_Driver/Inc/stm32f1xx_ll_gpio.h ****   * @retval None
 492:Drivers/STM32F1xx_HAL_Driver/Inc/stm32f1xx_ll_gpio.h ****   */
 493:Drivers/STM32F1xx_HAL_Driver/Inc/stm32f1xx_ll_gpio.h **** __STATIC_INLINE void LL_GPIO_SetPinOutputType(GPIO_TypeDef *GPIOx, uint32_t Pin, uint32_t OutputTyp
 166              		.loc 2 493 22 view .LVU37
 167              	.LBB703:
 494:Drivers/STM32F1xx_HAL_Driver/Inc/stm32f1xx_ll_gpio.h **** {
 495:Drivers/STM32F1xx_HAL_Driver/Inc/stm32f1xx_ll_gpio.h ****   register uint32_t *pReg = (uint32_t *)((uint32_t)((uint32_t)(&GPIOx->CRL) + (Pin >> 24)));
 168              		.loc 2 495 3 view .LVU38
 496:Drivers/STM32F1xx_HAL_Driver/Inc/stm32f1xx_ll_gpio.h ****   MODIFY_REG(*pReg, (GPIO_CRL_CNF0_0 << (POSITION_VAL(Pin) * 4U)),
 169              		.loc 2 496 3 view .LVU39
 170              	.LBB704:
 171              	.LBI704:
 981:Drivers/CMSIS/Include/cmsis_gcc.h **** {
 172              		.loc 3 981 31 view .LVU40
 173              	.LBB705:
 983:Drivers/CMSIS/Include/cmsis_gcc.h **** 
 174              		.loc 3 983 3 view .LVU41
 988:Drivers/CMSIS/Include/cmsis_gcc.h **** #else
 175              		.loc 3 988 4 view .LVU42
 176              		.syntax unified
 177              	@ 988 "Drivers/CMSIS/Include/cmsis_gcc.h" 1
 178 0054 92FAA2F7 		rbit r7, r2
 179              	@ 0 "" 2
 180              	.LVL11:
 181              		.loc 3 1001 3 view .LVU43
 182              		.loc 3 1001 3 is_stmt 0 view .LVU44
 183              		.thumb
 184              		.syntax unified
 185              	.LBE705:
ARM GAS  C:\Users\Kaa\AppData\Local\Temp\ccMt5vPx.s 			page 31


 186              	.LBE704:
 187              		.loc 2 496 3 view .LVU45
 188 0058 B7FA87F7 		clz	r7, r7
 189 005c BF00     		lsls	r7, r7, #2
 190 005e 0420     		movs	r0, #4
 191 0060 00FA07F7 		lsl	r7, r0, r7
 192 0064 23EA0703 		bic	r3, r3, r7
 193              	.LVL12:
 194              	.LBB706:
 195              	.LBI706:
 981:Drivers/CMSIS/Include/cmsis_gcc.h **** {
 196              		.loc 3 981 31 is_stmt 1 view .LVU46
 197              	.LBB707:
 983:Drivers/CMSIS/Include/cmsis_gcc.h **** 
 198              		.loc 3 983 3 view .LVU47
 988:Drivers/CMSIS/Include/cmsis_gcc.h **** #else
 199              		.loc 3 988 4 view .LVU48
 200              		.syntax unified
 201              	@ 988 "Drivers/CMSIS/Include/cmsis_gcc.h" 1
 202 0068 92FAA2F2 		rbit r2, r2
 203              	@ 0 "" 2
 204              	.LVL13:
 205              		.loc 3 1001 3 view .LVU49
 206              		.loc 3 1001 3 is_stmt 0 view .LVU50
 207              		.thumb
 208              		.syntax unified
 209              	.LBE707:
 210              	.LBE706:
 211              	.LBE703:
 212              	.LBE702:
  18:App/z80ramm/z80ramm_gpio.c ****     LL_GPIO_SetPinMode(RAMM_ADR_PORT, A1_Pin, LL_GPIO_MODE_OUTPUT);
 213              		.loc 1 18 5 is_stmt 1 view .LVU51
 214              	.LBB708:
 215              	.LBI708:
 341:Drivers/STM32F1xx_HAL_Driver/Inc/stm32f1xx_ll_gpio.h **** {
 216              		.loc 2 341 22 view .LVU52
 217              	.LBB709:
 343:Drivers/STM32F1xx_HAL_Driver/Inc/stm32f1xx_ll_gpio.h ****   MODIFY_REG(*pReg, ((GPIO_CRL_CNF0 | GPIO_CRL_MODE0) << (POSITION_VAL(Pin) * 4U)), (Mode << (POSIT
 218              		.loc 2 343 3 view .LVU53
 344:Drivers/STM32F1xx_HAL_Driver/Inc/stm32f1xx_ll_gpio.h **** }
 219              		.loc 2 344 3 view .LVU54
 220              	.LBB710:
 221              	.LBI710:
 981:Drivers/CMSIS/Include/cmsis_gcc.h **** {
 222              		.loc 3 981 31 view .LVU55
 223              	.LBB711:
 983:Drivers/CMSIS/Include/cmsis_gcc.h **** 
 224              		.loc 3 983 3 view .LVU56
 988:Drivers/CMSIS/Include/cmsis_gcc.h **** #else
 225              		.loc 3 988 4 view .LVU57
 226 006c 40F20222 		movw	r2, #514
 227              		.syntax unified
 228              	@ 988 "Drivers/CMSIS/Include/cmsis_gcc.h" 1
 229 0070 92FAA2F7 		rbit r7, r2
 230              	@ 0 "" 2
 231              	.LVL14:
 232              		.loc 3 1001 3 view .LVU58
ARM GAS  C:\Users\Kaa\AppData\Local\Temp\ccMt5vPx.s 			page 32


 233              		.loc 3 1001 3 is_stmt 0 view .LVU59
 234              		.thumb
 235              		.syntax unified
 236              	.LBE711:
 237              	.LBE710:
 344:Drivers/STM32F1xx_HAL_Driver/Inc/stm32f1xx_ll_gpio.h **** }
 238              		.loc 2 344 3 view .LVU60
 239 0074 B7FA87F7 		clz	r7, r7
 240 0078 BF00     		lsls	r7, r7, #2
 241 007a 06FA07F7 		lsl	r7, r6, r7
 242 007e 23EA0703 		bic	r3, r3, r7
 243              	.LVL15:
 244              	.LBB712:
 245              	.LBI712:
 981:Drivers/CMSIS/Include/cmsis_gcc.h **** {
 246              		.loc 3 981 31 is_stmt 1 view .LVU61
 247              	.LBB713:
 983:Drivers/CMSIS/Include/cmsis_gcc.h **** 
 248              		.loc 3 983 3 view .LVU62
 988:Drivers/CMSIS/Include/cmsis_gcc.h **** #else
 249              		.loc 3 988 4 view .LVU63
 250              		.syntax unified
 251              	@ 988 "Drivers/CMSIS/Include/cmsis_gcc.h" 1
 252 0082 92FAA2F7 		rbit r7, r2
 253              	@ 0 "" 2
 254              	.LVL16:
 255              		.loc 3 1001 3 view .LVU64
 256              		.loc 3 1001 3 is_stmt 0 view .LVU65
 257              		.thumb
 258              		.syntax unified
 259              	.LBE713:
 260              	.LBE712:
 344:Drivers/STM32F1xx_HAL_Driver/Inc/stm32f1xx_ll_gpio.h **** }
 261              		.loc 2 344 3 view .LVU66
 262 0086 B7FA87F7 		clz	r7, r7
 263 008a BF00     		lsls	r7, r7, #2
 264 008c 05FA07F7 		lsl	r7, r5, r7
 265 0090 3B43     		orrs	r3, r3, r7
 266              	.LVL17:
 344:Drivers/STM32F1xx_HAL_Driver/Inc/stm32f1xx_ll_gpio.h **** }
 267              		.loc 2 344 3 view .LVU67
 268              	.LBE709:
 269              	.LBE708:
  19:App/z80ramm/z80ramm_gpio.c ****     LL_GPIO_SetPinSpeed(RAMM_ADR_PORT, A1_Pin, LL_GPIO_SPEED_FREQ_HIGH);
 270              		.loc 1 19 5 is_stmt 1 view .LVU68
 271              	.LBB714:
 272              	.LBI714:
 419:Drivers/STM32F1xx_HAL_Driver/Inc/stm32f1xx_ll_gpio.h **** {
 273              		.loc 2 419 22 view .LVU69
 274              	.LBB715:
 421:Drivers/STM32F1xx_HAL_Driver/Inc/stm32f1xx_ll_gpio.h ****   MODIFY_REG(*pReg, (GPIO_CRL_MODE0 << (POSITION_VAL(Pin) * 4U)),
 275              		.loc 2 421 3 view .LVU70
 422:Drivers/STM32F1xx_HAL_Driver/Inc/stm32f1xx_ll_gpio.h ****              (Speed << (POSITION_VAL(Pin) * 4U)));
 276              		.loc 2 422 3 view .LVU71
 277              	.LBB716:
 278              	.LBI716:
 981:Drivers/CMSIS/Include/cmsis_gcc.h **** {
ARM GAS  C:\Users\Kaa\AppData\Local\Temp\ccMt5vPx.s 			page 33


 279              		.loc 3 981 31 view .LVU72
 280              	.LBB717:
 983:Drivers/CMSIS/Include/cmsis_gcc.h **** 
 281              		.loc 3 983 3 view .LVU73
 988:Drivers/CMSIS/Include/cmsis_gcc.h **** #else
 282              		.loc 3 988 4 view .LVU74
 283              		.syntax unified
 284              	@ 988 "Drivers/CMSIS/Include/cmsis_gcc.h" 1
 285 0092 92FAA2F7 		rbit r7, r2
 286              	@ 0 "" 2
 287              	.LVL18:
 288              		.loc 3 1001 3 view .LVU75
 289              		.loc 3 1001 3 is_stmt 0 view .LVU76
 290              		.thumb
 291              		.syntax unified
 292              	.LBE717:
 293              	.LBE716:
 422:Drivers/STM32F1xx_HAL_Driver/Inc/stm32f1xx_ll_gpio.h ****              (Speed << (POSITION_VAL(Pin) * 4U)));
 294              		.loc 2 422 3 view .LVU77
 295 0096 B7FA87F7 		clz	r7, r7
 296 009a BF00     		lsls	r7, r7, #2
 297 009c 04FA07F7 		lsl	r7, r4, r7
 298 00a0 23EA0703 		bic	r3, r3, r7
 299              	.LVL19:
 300              	.LBB718:
 301              	.LBI718:
 981:Drivers/CMSIS/Include/cmsis_gcc.h **** {
 302              		.loc 3 981 31 is_stmt 1 view .LVU78
 303              	.LBB719:
 983:Drivers/CMSIS/Include/cmsis_gcc.h **** 
 304              		.loc 3 983 3 view .LVU79
 988:Drivers/CMSIS/Include/cmsis_gcc.h **** #else
 305              		.loc 3 988 4 view .LVU80
 306              		.syntax unified
 307              	@ 988 "Drivers/CMSIS/Include/cmsis_gcc.h" 1
 308 00a4 92FAA2F7 		rbit r7, r2
 309              	@ 0 "" 2
 310              	.LVL20:
 311              		.loc 3 1001 3 view .LVU81
 312              		.loc 3 1001 3 is_stmt 0 view .LVU82
 313              		.thumb
 314              		.syntax unified
 315              	.LBE719:
 316              	.LBE718:
 422:Drivers/STM32F1xx_HAL_Driver/Inc/stm32f1xx_ll_gpio.h ****              (Speed << (POSITION_VAL(Pin) * 4U)));
 317              		.loc 2 422 3 view .LVU83
 318 00a8 B7FA87F7 		clz	r7, r7
 319 00ac BF00     		lsls	r7, r7, #2
 320 00ae 04FA07F7 		lsl	r7, r4, r7
 321 00b2 3B43     		orrs	r3, r3, r7
 322              	.LVL21:
 422:Drivers/STM32F1xx_HAL_Driver/Inc/stm32f1xx_ll_gpio.h ****              (Speed << (POSITION_VAL(Pin) * 4U)));
 323              		.loc 2 422 3 view .LVU84
 324              	.LBE715:
 325              	.LBE714:
  20:App/z80ramm/z80ramm_gpio.c ****     LL_GPIO_SetPinOutputType(RAMM_ADR_PORT, A1_Pin, LL_GPIO_OUTPUT_PUSHPULL);
 326              		.loc 1 20 5 is_stmt 1 view .LVU85
ARM GAS  C:\Users\Kaa\AppData\Local\Temp\ccMt5vPx.s 			page 34


 327              	.LBB720:
 328              	.LBI720:
 493:Drivers/STM32F1xx_HAL_Driver/Inc/stm32f1xx_ll_gpio.h **** {
 329              		.loc 2 493 22 view .LVU86
 330              	.LBB721:
 495:Drivers/STM32F1xx_HAL_Driver/Inc/stm32f1xx_ll_gpio.h ****   MODIFY_REG(*pReg, (GPIO_CRL_CNF0_0 << (POSITION_VAL(Pin) * 4U)),
 331              		.loc 2 495 3 view .LVU87
 332              		.loc 2 496 3 view .LVU88
 333              	.LBB722:
 334              	.LBI722:
 981:Drivers/CMSIS/Include/cmsis_gcc.h **** {
 335              		.loc 3 981 31 view .LVU89
 336              	.LBB723:
 983:Drivers/CMSIS/Include/cmsis_gcc.h **** 
 337              		.loc 3 983 3 view .LVU90
 988:Drivers/CMSIS/Include/cmsis_gcc.h **** #else
 338              		.loc 3 988 4 view .LVU91
 339              		.syntax unified
 340              	@ 988 "Drivers/CMSIS/Include/cmsis_gcc.h" 1
 341 00b4 92FAA2F7 		rbit r7, r2
 342              	@ 0 "" 2
 343              	.LVL22:
 344              		.loc 3 1001 3 view .LVU92
 345              		.loc 3 1001 3 is_stmt 0 view .LVU93
 346              		.thumb
 347              		.syntax unified
 348              	.LBE723:
 349              	.LBE722:
 350              		.loc 2 496 3 view .LVU94
 351 00b8 B7FA87F7 		clz	r7, r7
 352 00bc BF00     		lsls	r7, r7, #2
 353 00be 00FA07F7 		lsl	r7, r0, r7
 354 00c2 23EA0703 		bic	r3, r3, r7
 355              	.LVL23:
 356              	.LBB724:
 357              	.LBI724:
 981:Drivers/CMSIS/Include/cmsis_gcc.h **** {
 358              		.loc 3 981 31 is_stmt 1 view .LVU95
 359              	.LBB725:
 983:Drivers/CMSIS/Include/cmsis_gcc.h **** 
 360              		.loc 3 983 3 view .LVU96
 988:Drivers/CMSIS/Include/cmsis_gcc.h **** #else
 361              		.loc 3 988 4 view .LVU97
 362              		.syntax unified
 363              	@ 988 "Drivers/CMSIS/Include/cmsis_gcc.h" 1
 364 00c6 92FAA2F2 		rbit r2, r2
 365              	@ 0 "" 2
 366              	.LVL24:
 367              		.loc 3 1001 3 view .LVU98
 368              		.loc 3 1001 3 is_stmt 0 view .LVU99
 369              		.thumb
 370              		.syntax unified
 371              	.LBE725:
 372              	.LBE724:
 373              	.LBE721:
 374              	.LBE720:
  21:App/z80ramm/z80ramm_gpio.c ****     LL_GPIO_SetPinMode(RAMM_ADR_PORT, A2_Pin, LL_GPIO_MODE_OUTPUT);
ARM GAS  C:\Users\Kaa\AppData\Local\Temp\ccMt5vPx.s 			page 35


 375              		.loc 1 21 5 is_stmt 1 view .LVU100
 376              	.LBB726:
 377              	.LBI726:
 341:Drivers/STM32F1xx_HAL_Driver/Inc/stm32f1xx_ll_gpio.h **** {
 378              		.loc 2 341 22 view .LVU101
 379              	.LBB727:
 343:Drivers/STM32F1xx_HAL_Driver/Inc/stm32f1xx_ll_gpio.h ****   MODIFY_REG(*pReg, ((GPIO_CRL_CNF0 | GPIO_CRL_MODE0) << (POSITION_VAL(Pin) * 4U)), (Mode << (POSIT
 380              		.loc 2 343 3 view .LVU102
 344:Drivers/STM32F1xx_HAL_Driver/Inc/stm32f1xx_ll_gpio.h **** }
 381              		.loc 2 344 3 view .LVU103
 382              	.LBB728:
 383              	.LBI728:
 981:Drivers/CMSIS/Include/cmsis_gcc.h **** {
 384              		.loc 3 981 31 view .LVU104
 385              	.LBB729:
 983:Drivers/CMSIS/Include/cmsis_gcc.h **** 
 386              		.loc 3 983 3 view .LVU105
 988:Drivers/CMSIS/Include/cmsis_gcc.h **** #else
 387              		.loc 3 988 4 view .LVU106
 388 00ca 40F20442 		movw	r2, #1028
 389              		.syntax unified
 390              	@ 988 "Drivers/CMSIS/Include/cmsis_gcc.h" 1
 391 00ce 92FAA2F7 		rbit r7, r2
 392              	@ 0 "" 2
 393              	.LVL25:
 394              		.loc 3 1001 3 view .LVU107
 395              		.loc 3 1001 3 is_stmt 0 view .LVU108
 396              		.thumb
 397              		.syntax unified
 398              	.LBE729:
 399              	.LBE728:
 344:Drivers/STM32F1xx_HAL_Driver/Inc/stm32f1xx_ll_gpio.h **** }
 400              		.loc 2 344 3 view .LVU109
 401 00d2 B7FA87F7 		clz	r7, r7
 402 00d6 BF00     		lsls	r7, r7, #2
 403 00d8 06FA07F7 		lsl	r7, r6, r7
 404 00dc 23EA0703 		bic	r3, r3, r7
 405              	.LVL26:
 406              	.LBB730:
 407              	.LBI730:
 981:Drivers/CMSIS/Include/cmsis_gcc.h **** {
 408              		.loc 3 981 31 is_stmt 1 view .LVU110
 409              	.LBB731:
 983:Drivers/CMSIS/Include/cmsis_gcc.h **** 
 410              		.loc 3 983 3 view .LVU111
 988:Drivers/CMSIS/Include/cmsis_gcc.h **** #else
 411              		.loc 3 988 4 view .LVU112
 412              		.syntax unified
 413              	@ 988 "Drivers/CMSIS/Include/cmsis_gcc.h" 1
 414 00e0 92FAA2F7 		rbit r7, r2
 415              	@ 0 "" 2
 416              	.LVL27:
 417              		.loc 3 1001 3 view .LVU113
 418              		.loc 3 1001 3 is_stmt 0 view .LVU114
 419              		.thumb
 420              		.syntax unified
 421              	.LBE731:
ARM GAS  C:\Users\Kaa\AppData\Local\Temp\ccMt5vPx.s 			page 36


 422              	.LBE730:
 344:Drivers/STM32F1xx_HAL_Driver/Inc/stm32f1xx_ll_gpio.h **** }
 423              		.loc 2 344 3 view .LVU115
 424 00e4 B7FA87F7 		clz	r7, r7
 425 00e8 BF00     		lsls	r7, r7, #2
 426 00ea 05FA07F7 		lsl	r7, r5, r7
 427 00ee 3B43     		orrs	r3, r3, r7
 428              	.LVL28:
 344:Drivers/STM32F1xx_HAL_Driver/Inc/stm32f1xx_ll_gpio.h **** }
 429              		.loc 2 344 3 view .LVU116
 430              	.LBE727:
 431              	.LBE726:
  22:App/z80ramm/z80ramm_gpio.c ****     LL_GPIO_SetPinSpeed(RAMM_ADR_PORT, A2_Pin, LL_GPIO_SPEED_FREQ_HIGH);
 432              		.loc 1 22 5 is_stmt 1 view .LVU117
 433              	.LBB732:
 434              	.LBI732:
 419:Drivers/STM32F1xx_HAL_Driver/Inc/stm32f1xx_ll_gpio.h **** {
 435              		.loc 2 419 22 view .LVU118
 436              	.LBB733:
 421:Drivers/STM32F1xx_HAL_Driver/Inc/stm32f1xx_ll_gpio.h ****   MODIFY_REG(*pReg, (GPIO_CRL_MODE0 << (POSITION_VAL(Pin) * 4U)),
 437              		.loc 2 421 3 view .LVU119
 422:Drivers/STM32F1xx_HAL_Driver/Inc/stm32f1xx_ll_gpio.h ****              (Speed << (POSITION_VAL(Pin) * 4U)));
 438              		.loc 2 422 3 view .LVU120
 439              	.LBB734:
 440              	.LBI734:
 981:Drivers/CMSIS/Include/cmsis_gcc.h **** {
 441              		.loc 3 981 31 view .LVU121
 442              	.LBB735:
 983:Drivers/CMSIS/Include/cmsis_gcc.h **** 
 443              		.loc 3 983 3 view .LVU122
 988:Drivers/CMSIS/Include/cmsis_gcc.h **** #else
 444              		.loc 3 988 4 view .LVU123
 445              		.syntax unified
 446              	@ 988 "Drivers/CMSIS/Include/cmsis_gcc.h" 1
 447 00f0 92FAA2F7 		rbit r7, r2
 448              	@ 0 "" 2
 449              	.LVL29:
 450              		.loc 3 1001 3 view .LVU124
 451              		.loc 3 1001 3 is_stmt 0 view .LVU125
 452              		.thumb
 453              		.syntax unified
 454              	.LBE735:
 455              	.LBE734:
 422:Drivers/STM32F1xx_HAL_Driver/Inc/stm32f1xx_ll_gpio.h ****              (Speed << (POSITION_VAL(Pin) * 4U)));
 456              		.loc 2 422 3 view .LVU126
 457 00f4 B7FA87F7 		clz	r7, r7
 458 00f8 BF00     		lsls	r7, r7, #2
 459 00fa 04FA07F7 		lsl	r7, r4, r7
 460 00fe 23EA0703 		bic	r3, r3, r7
 461              	.LVL30:
 462              	.LBB736:
 463              	.LBI736:
 981:Drivers/CMSIS/Include/cmsis_gcc.h **** {
 464              		.loc 3 981 31 is_stmt 1 view .LVU127
 465              	.LBB737:
 983:Drivers/CMSIS/Include/cmsis_gcc.h **** 
 466              		.loc 3 983 3 view .LVU128
ARM GAS  C:\Users\Kaa\AppData\Local\Temp\ccMt5vPx.s 			page 37


 988:Drivers/CMSIS/Include/cmsis_gcc.h **** #else
 467              		.loc 3 988 4 view .LVU129
 468              		.syntax unified
 469              	@ 988 "Drivers/CMSIS/Include/cmsis_gcc.h" 1
 470 0102 92FAA2F7 		rbit r7, r2
 471              	@ 0 "" 2
 472              	.LVL31:
 473              		.loc 3 1001 3 view .LVU130
 474              		.loc 3 1001 3 is_stmt 0 view .LVU131
 475              		.thumb
 476              		.syntax unified
 477              	.LBE737:
 478              	.LBE736:
 422:Drivers/STM32F1xx_HAL_Driver/Inc/stm32f1xx_ll_gpio.h ****              (Speed << (POSITION_VAL(Pin) * 4U)));
 479              		.loc 2 422 3 view .LVU132
 480 0106 B7FA87F7 		clz	r7, r7
 481 010a BF00     		lsls	r7, r7, #2
 482 010c 04FA07F7 		lsl	r7, r4, r7
 483 0110 3B43     		orrs	r3, r3, r7
 484              	.LVL32:
 422:Drivers/STM32F1xx_HAL_Driver/Inc/stm32f1xx_ll_gpio.h ****              (Speed << (POSITION_VAL(Pin) * 4U)));
 485              		.loc 2 422 3 view .LVU133
 486              	.LBE733:
 487              	.LBE732:
  23:App/z80ramm/z80ramm_gpio.c ****     LL_GPIO_SetPinOutputType(RAMM_ADR_PORT, A2_Pin, LL_GPIO_OUTPUT_PUSHPULL);
 488              		.loc 1 23 5 is_stmt 1 view .LVU134
 489              	.LBB738:
 490              	.LBI738:
 493:Drivers/STM32F1xx_HAL_Driver/Inc/stm32f1xx_ll_gpio.h **** {
 491              		.loc 2 493 22 view .LVU135
 492              	.LBB739:
 495:Drivers/STM32F1xx_HAL_Driver/Inc/stm32f1xx_ll_gpio.h ****   MODIFY_REG(*pReg, (GPIO_CRL_CNF0_0 << (POSITION_VAL(Pin) * 4U)),
 493              		.loc 2 495 3 view .LVU136
 494              		.loc 2 496 3 view .LVU137
 495              	.LBB740:
 496              	.LBI740:
 981:Drivers/CMSIS/Include/cmsis_gcc.h **** {
 497              		.loc 3 981 31 view .LVU138
 498              	.LBB741:
 983:Drivers/CMSIS/Include/cmsis_gcc.h **** 
 499              		.loc 3 983 3 view .LVU139
 988:Drivers/CMSIS/Include/cmsis_gcc.h **** #else
 500              		.loc 3 988 4 view .LVU140
 501              		.syntax unified
 502              	@ 988 "Drivers/CMSIS/Include/cmsis_gcc.h" 1
 503 0112 92FAA2F7 		rbit r7, r2
 504              	@ 0 "" 2
 505              	.LVL33:
 506              		.loc 3 1001 3 view .LVU141
 507              		.loc 3 1001 3 is_stmt 0 view .LVU142
 508              		.thumb
 509              		.syntax unified
 510              	.LBE741:
 511              	.LBE740:
 512              		.loc 2 496 3 view .LVU143
 513 0116 B7FA87F7 		clz	r7, r7
 514 011a BF00     		lsls	r7, r7, #2
ARM GAS  C:\Users\Kaa\AppData\Local\Temp\ccMt5vPx.s 			page 38


 515 011c 00FA07F7 		lsl	r7, r0, r7
 516 0120 23EA0703 		bic	r3, r3, r7
 517              	.LVL34:
 518              	.LBB742:
 519              	.LBI742:
 981:Drivers/CMSIS/Include/cmsis_gcc.h **** {
 520              		.loc 3 981 31 is_stmt 1 view .LVU144
 521              	.LBB743:
 983:Drivers/CMSIS/Include/cmsis_gcc.h **** 
 522              		.loc 3 983 3 view .LVU145
 988:Drivers/CMSIS/Include/cmsis_gcc.h **** #else
 523              		.loc 3 988 4 view .LVU146
 524              		.syntax unified
 525              	@ 988 "Drivers/CMSIS/Include/cmsis_gcc.h" 1
 526 0124 92FAA2F2 		rbit r2, r2
 527              	@ 0 "" 2
 528              	.LVL35:
 529              		.loc 3 1001 3 view .LVU147
 530              		.loc 3 1001 3 is_stmt 0 view .LVU148
 531              		.thumb
 532              		.syntax unified
 533              	.LBE743:
 534              	.LBE742:
 535              	.LBE739:
 536              	.LBE738:
  24:App/z80ramm/z80ramm_gpio.c ****     LL_GPIO_SetPinMode(RAMM_ADR_PORT, A3_Pin, LL_GPIO_MODE_OUTPUT);
 537              		.loc 1 24 5 is_stmt 1 view .LVU149
 538              	.LBB744:
 539              	.LBI744:
 341:Drivers/STM32F1xx_HAL_Driver/Inc/stm32f1xx_ll_gpio.h **** {
 540              		.loc 2 341 22 view .LVU150
 541              	.LBB745:
 343:Drivers/STM32F1xx_HAL_Driver/Inc/stm32f1xx_ll_gpio.h ****   MODIFY_REG(*pReg, ((GPIO_CRL_CNF0 | GPIO_CRL_MODE0) << (POSITION_VAL(Pin) * 4U)), (Mode << (POSIT
 542              		.loc 2 343 3 view .LVU151
 344:Drivers/STM32F1xx_HAL_Driver/Inc/stm32f1xx_ll_gpio.h **** }
 543              		.loc 2 344 3 view .LVU152
 544              	.LBB746:
 545              	.LBI746:
 981:Drivers/CMSIS/Include/cmsis_gcc.h **** {
 546              		.loc 3 981 31 view .LVU153
 547              	.LBB747:
 983:Drivers/CMSIS/Include/cmsis_gcc.h **** 
 548              		.loc 3 983 3 view .LVU154
 988:Drivers/CMSIS/Include/cmsis_gcc.h **** #else
 549              		.loc 3 988 4 view .LVU155
 550 0128 40F60802 		movw	r2, #2056
 551              		.syntax unified
 552              	@ 988 "Drivers/CMSIS/Include/cmsis_gcc.h" 1
 553 012c 92FAA2F7 		rbit r7, r2
 554              	@ 0 "" 2
 555              	.LVL36:
 556              		.loc 3 1001 3 view .LVU156
 557              		.loc 3 1001 3 is_stmt 0 view .LVU157
 558              		.thumb
 559              		.syntax unified
 560              	.LBE747:
 561              	.LBE746:
ARM GAS  C:\Users\Kaa\AppData\Local\Temp\ccMt5vPx.s 			page 39


 344:Drivers/STM32F1xx_HAL_Driver/Inc/stm32f1xx_ll_gpio.h **** }
 562              		.loc 2 344 3 view .LVU158
 563 0130 B7FA87F7 		clz	r7, r7
 564 0134 BF00     		lsls	r7, r7, #2
 565 0136 06FA07F7 		lsl	r7, r6, r7
 566 013a 23EA0703 		bic	r3, r3, r7
 567              	.LVL37:
 568              	.LBB748:
 569              	.LBI748:
 981:Drivers/CMSIS/Include/cmsis_gcc.h **** {
 570              		.loc 3 981 31 is_stmt 1 view .LVU159
 571              	.LBB749:
 983:Drivers/CMSIS/Include/cmsis_gcc.h **** 
 572              		.loc 3 983 3 view .LVU160
 988:Drivers/CMSIS/Include/cmsis_gcc.h **** #else
 573              		.loc 3 988 4 view .LVU161
 574              		.syntax unified
 575              	@ 988 "Drivers/CMSIS/Include/cmsis_gcc.h" 1
 576 013e 92FAA2F7 		rbit r7, r2
 577              	@ 0 "" 2
 578              	.LVL38:
 579              		.loc 3 1001 3 view .LVU162
 580              		.loc 3 1001 3 is_stmt 0 view .LVU163
 581              		.thumb
 582              		.syntax unified
 583              	.LBE749:
 584              	.LBE748:
 344:Drivers/STM32F1xx_HAL_Driver/Inc/stm32f1xx_ll_gpio.h **** }
 585              		.loc 2 344 3 view .LVU164
 586 0142 B7FA87F7 		clz	r7, r7
 587 0146 BF00     		lsls	r7, r7, #2
 588 0148 05FA07F7 		lsl	r7, r5, r7
 589 014c 3B43     		orrs	r3, r3, r7
 590              	.LVL39:
 344:Drivers/STM32F1xx_HAL_Driver/Inc/stm32f1xx_ll_gpio.h **** }
 591              		.loc 2 344 3 view .LVU165
 592              	.LBE745:
 593              	.LBE744:
  25:App/z80ramm/z80ramm_gpio.c ****     LL_GPIO_SetPinSpeed(RAMM_ADR_PORT, A3_Pin, LL_GPIO_SPEED_FREQ_HIGH);
 594              		.loc 1 25 5 is_stmt 1 view .LVU166
 595              	.LBB750:
 596              	.LBI750:
 419:Drivers/STM32F1xx_HAL_Driver/Inc/stm32f1xx_ll_gpio.h **** {
 597              		.loc 2 419 22 view .LVU167
 598              	.LBB751:
 421:Drivers/STM32F1xx_HAL_Driver/Inc/stm32f1xx_ll_gpio.h ****   MODIFY_REG(*pReg, (GPIO_CRL_MODE0 << (POSITION_VAL(Pin) * 4U)),
 599              		.loc 2 421 3 view .LVU168
 422:Drivers/STM32F1xx_HAL_Driver/Inc/stm32f1xx_ll_gpio.h ****              (Speed << (POSITION_VAL(Pin) * 4U)));
 600              		.loc 2 422 3 view .LVU169
 601              	.LBB752:
 602              	.LBI752:
 981:Drivers/CMSIS/Include/cmsis_gcc.h **** {
 603              		.loc 3 981 31 view .LVU170
 604              	.LBB753:
 983:Drivers/CMSIS/Include/cmsis_gcc.h **** 
 605              		.loc 3 983 3 view .LVU171
 988:Drivers/CMSIS/Include/cmsis_gcc.h **** #else
ARM GAS  C:\Users\Kaa\AppData\Local\Temp\ccMt5vPx.s 			page 40


 606              		.loc 3 988 4 view .LVU172
 607              		.syntax unified
 608              	@ 988 "Drivers/CMSIS/Include/cmsis_gcc.h" 1
 609 014e 92FAA2F7 		rbit r7, r2
 610              	@ 0 "" 2
 611              	.LVL40:
 612              		.loc 3 1001 3 view .LVU173
 613              		.loc 3 1001 3 is_stmt 0 view .LVU174
 614              		.thumb
 615              		.syntax unified
 616              	.LBE753:
 617              	.LBE752:
 422:Drivers/STM32F1xx_HAL_Driver/Inc/stm32f1xx_ll_gpio.h ****              (Speed << (POSITION_VAL(Pin) * 4U)));
 618              		.loc 2 422 3 view .LVU175
 619 0152 B7FA87F7 		clz	r7, r7
 620 0156 BF00     		lsls	r7, r7, #2
 621 0158 04FA07F7 		lsl	r7, r4, r7
 622 015c 23EA0703 		bic	r3, r3, r7
 623              	.LVL41:
 624              	.LBB754:
 625              	.LBI754:
 981:Drivers/CMSIS/Include/cmsis_gcc.h **** {
 626              		.loc 3 981 31 is_stmt 1 view .LVU176
 627              	.LBB755:
 983:Drivers/CMSIS/Include/cmsis_gcc.h **** 
 628              		.loc 3 983 3 view .LVU177
 988:Drivers/CMSIS/Include/cmsis_gcc.h **** #else
 629              		.loc 3 988 4 view .LVU178
 630              		.syntax unified
 631              	@ 988 "Drivers/CMSIS/Include/cmsis_gcc.h" 1
 632 0160 92FAA2F7 		rbit r7, r2
 633              	@ 0 "" 2
 634              	.LVL42:
 635              		.loc 3 1001 3 view .LVU179
 636              		.loc 3 1001 3 is_stmt 0 view .LVU180
 637              		.thumb
 638              		.syntax unified
 639              	.LBE755:
 640              	.LBE754:
 422:Drivers/STM32F1xx_HAL_Driver/Inc/stm32f1xx_ll_gpio.h ****              (Speed << (POSITION_VAL(Pin) * 4U)));
 641              		.loc 2 422 3 view .LVU181
 642 0164 B7FA87F7 		clz	r7, r7
 643 0168 BF00     		lsls	r7, r7, #2
 644 016a 04FA07F7 		lsl	r7, r4, r7
 645 016e 3B43     		orrs	r3, r3, r7
 646              	.LVL43:
 422:Drivers/STM32F1xx_HAL_Driver/Inc/stm32f1xx_ll_gpio.h ****              (Speed << (POSITION_VAL(Pin) * 4U)));
 647              		.loc 2 422 3 view .LVU182
 648              	.LBE751:
 649              	.LBE750:
  26:App/z80ramm/z80ramm_gpio.c ****     LL_GPIO_SetPinOutputType(RAMM_ADR_PORT, A3_Pin, LL_GPIO_OUTPUT_PUSHPULL);
 650              		.loc 1 26 5 is_stmt 1 view .LVU183
 651              	.LBB756:
 652              	.LBI756:
 493:Drivers/STM32F1xx_HAL_Driver/Inc/stm32f1xx_ll_gpio.h **** {
 653              		.loc 2 493 22 view .LVU184
 654              	.LBB757:
ARM GAS  C:\Users\Kaa\AppData\Local\Temp\ccMt5vPx.s 			page 41


 495:Drivers/STM32F1xx_HAL_Driver/Inc/stm32f1xx_ll_gpio.h ****   MODIFY_REG(*pReg, (GPIO_CRL_CNF0_0 << (POSITION_VAL(Pin) * 4U)),
 655              		.loc 2 495 3 view .LVU185
 656              		.loc 2 496 3 view .LVU186
 657              	.LBB758:
 658              	.LBI758:
 981:Drivers/CMSIS/Include/cmsis_gcc.h **** {
 659              		.loc 3 981 31 view .LVU187
 660              	.LBB759:
 983:Drivers/CMSIS/Include/cmsis_gcc.h **** 
 661              		.loc 3 983 3 view .LVU188
 988:Drivers/CMSIS/Include/cmsis_gcc.h **** #else
 662              		.loc 3 988 4 view .LVU189
 663              		.syntax unified
 664              	@ 988 "Drivers/CMSIS/Include/cmsis_gcc.h" 1
 665 0170 92FAA2F7 		rbit r7, r2
 666              	@ 0 "" 2
 667              	.LVL44:
 668              		.loc 3 1001 3 view .LVU190
 669              		.loc 3 1001 3 is_stmt 0 view .LVU191
 670              		.thumb
 671              		.syntax unified
 672              	.LBE759:
 673              	.LBE758:
 674              		.loc 2 496 3 view .LVU192
 675 0174 B7FA87F7 		clz	r7, r7
 676 0178 BF00     		lsls	r7, r7, #2
 677 017a 00FA07F7 		lsl	r7, r0, r7
 678 017e 23EA0703 		bic	r3, r3, r7
 679              	.LVL45:
 680              	.LBB760:
 681              	.LBI760:
 981:Drivers/CMSIS/Include/cmsis_gcc.h **** {
 682              		.loc 3 981 31 is_stmt 1 view .LVU193
 683              	.LBB761:
 983:Drivers/CMSIS/Include/cmsis_gcc.h **** 
 684              		.loc 3 983 3 view .LVU194
 988:Drivers/CMSIS/Include/cmsis_gcc.h **** #else
 685              		.loc 3 988 4 view .LVU195
 686              		.syntax unified
 687              	@ 988 "Drivers/CMSIS/Include/cmsis_gcc.h" 1
 688 0182 92FAA2F2 		rbit r2, r2
 689              	@ 0 "" 2
 690              	.LVL46:
 691              		.loc 3 1001 3 view .LVU196
 692              		.loc 3 1001 3 is_stmt 0 view .LVU197
 693              		.thumb
 694              		.syntax unified
 695              	.LBE761:
 696              	.LBE760:
 697              	.LBE757:
 698              	.LBE756:
  27:App/z80ramm/z80ramm_gpio.c ****     LL_GPIO_SetPinMode(RAMM_ADR_PORT, A4_Pin, LL_GPIO_MODE_OUTPUT);
 699              		.loc 1 27 5 is_stmt 1 view .LVU198
 700              	.LBB762:
 701              	.LBI762:
 341:Drivers/STM32F1xx_HAL_Driver/Inc/stm32f1xx_ll_gpio.h **** {
 702              		.loc 2 341 22 view .LVU199
ARM GAS  C:\Users\Kaa\AppData\Local\Temp\ccMt5vPx.s 			page 42


 703              	.LBB763:
 343:Drivers/STM32F1xx_HAL_Driver/Inc/stm32f1xx_ll_gpio.h ****   MODIFY_REG(*pReg, ((GPIO_CRL_CNF0 | GPIO_CRL_MODE0) << (POSITION_VAL(Pin) * 4U)), (Mode << (POSIT
 704              		.loc 2 343 3 view .LVU200
 344:Drivers/STM32F1xx_HAL_Driver/Inc/stm32f1xx_ll_gpio.h **** }
 705              		.loc 2 344 3 view .LVU201
 706              	.LBB764:
 707              	.LBI764:
 981:Drivers/CMSIS/Include/cmsis_gcc.h **** {
 708              		.loc 3 981 31 view .LVU202
 709              	.LBB765:
 983:Drivers/CMSIS/Include/cmsis_gcc.h **** 
 710              		.loc 3 983 3 view .LVU203
 988:Drivers/CMSIS/Include/cmsis_gcc.h **** #else
 711              		.loc 3 988 4 view .LVU204
 712 0186 41F21002 		movw	r2, #4112
 713              		.syntax unified
 714              	@ 988 "Drivers/CMSIS/Include/cmsis_gcc.h" 1
 715 018a 92FAA2F7 		rbit r7, r2
 716              	@ 0 "" 2
 717              	.LVL47:
 718              		.loc 3 1001 3 view .LVU205
 719              		.loc 3 1001 3 is_stmt 0 view .LVU206
 720              		.thumb
 721              		.syntax unified
 722              	.LBE765:
 723              	.LBE764:
 344:Drivers/STM32F1xx_HAL_Driver/Inc/stm32f1xx_ll_gpio.h **** }
 724              		.loc 2 344 3 view .LVU207
 725 018e B7FA87F7 		clz	r7, r7
 726 0192 BF00     		lsls	r7, r7, #2
 727 0194 06FA07F7 		lsl	r7, r6, r7
 728 0198 23EA0703 		bic	r3, r3, r7
 729              	.LVL48:
 730              	.LBB766:
 731              	.LBI766:
 981:Drivers/CMSIS/Include/cmsis_gcc.h **** {
 732              		.loc 3 981 31 is_stmt 1 view .LVU208
 733              	.LBB767:
 983:Drivers/CMSIS/Include/cmsis_gcc.h **** 
 734              		.loc 3 983 3 view .LVU209
 988:Drivers/CMSIS/Include/cmsis_gcc.h **** #else
 735              		.loc 3 988 4 view .LVU210
 736              		.syntax unified
 737              	@ 988 "Drivers/CMSIS/Include/cmsis_gcc.h" 1
 738 019c 92FAA2F7 		rbit r7, r2
 739              	@ 0 "" 2
 740              	.LVL49:
 741              		.loc 3 1001 3 view .LVU211
 742              		.loc 3 1001 3 is_stmt 0 view .LVU212
 743              		.thumb
 744              		.syntax unified
 745              	.LBE767:
 746              	.LBE766:
 344:Drivers/STM32F1xx_HAL_Driver/Inc/stm32f1xx_ll_gpio.h **** }
 747              		.loc 2 344 3 view .LVU213
 748 01a0 B7FA87F7 		clz	r7, r7
 749 01a4 BF00     		lsls	r7, r7, #2
ARM GAS  C:\Users\Kaa\AppData\Local\Temp\ccMt5vPx.s 			page 43


 750 01a6 05FA07F7 		lsl	r7, r5, r7
 751 01aa 3B43     		orrs	r3, r3, r7
 752              	.LVL50:
 344:Drivers/STM32F1xx_HAL_Driver/Inc/stm32f1xx_ll_gpio.h **** }
 753              		.loc 2 344 3 view .LVU214
 754              	.LBE763:
 755              	.LBE762:
  28:App/z80ramm/z80ramm_gpio.c ****     LL_GPIO_SetPinSpeed(RAMM_ADR_PORT, A4_Pin, LL_GPIO_SPEED_FREQ_HIGH);
 756              		.loc 1 28 5 is_stmt 1 view .LVU215
 757              	.LBB768:
 758              	.LBI768:
 419:Drivers/STM32F1xx_HAL_Driver/Inc/stm32f1xx_ll_gpio.h **** {
 759              		.loc 2 419 22 view .LVU216
 760              	.LBB769:
 421:Drivers/STM32F1xx_HAL_Driver/Inc/stm32f1xx_ll_gpio.h ****   MODIFY_REG(*pReg, (GPIO_CRL_MODE0 << (POSITION_VAL(Pin) * 4U)),
 761              		.loc 2 421 3 view .LVU217
 422:Drivers/STM32F1xx_HAL_Driver/Inc/stm32f1xx_ll_gpio.h ****              (Speed << (POSITION_VAL(Pin) * 4U)));
 762              		.loc 2 422 3 view .LVU218
 763              	.LBB770:
 764              	.LBI770:
 981:Drivers/CMSIS/Include/cmsis_gcc.h **** {
 765              		.loc 3 981 31 view .LVU219
 766              	.LBB771:
 983:Drivers/CMSIS/Include/cmsis_gcc.h **** 
 767              		.loc 3 983 3 view .LVU220
 988:Drivers/CMSIS/Include/cmsis_gcc.h **** #else
 768              		.loc 3 988 4 view .LVU221
 769              		.syntax unified
 770              	@ 988 "Drivers/CMSIS/Include/cmsis_gcc.h" 1
 771 01ac 92FAA2F7 		rbit r7, r2
 772              	@ 0 "" 2
 773              	.LVL51:
 774              		.loc 3 1001 3 view .LVU222
 775              		.loc 3 1001 3 is_stmt 0 view .LVU223
 776              		.thumb
 777              		.syntax unified
 778              	.LBE771:
 779              	.LBE770:
 422:Drivers/STM32F1xx_HAL_Driver/Inc/stm32f1xx_ll_gpio.h ****              (Speed << (POSITION_VAL(Pin) * 4U)));
 780              		.loc 2 422 3 view .LVU224
 781 01b0 B7FA87F7 		clz	r7, r7
 782 01b4 BF00     		lsls	r7, r7, #2
 783 01b6 04FA07F7 		lsl	r7, r4, r7
 784 01ba 23EA0703 		bic	r3, r3, r7
 785              	.LVL52:
 786              	.LBB772:
 787              	.LBI772:
 981:Drivers/CMSIS/Include/cmsis_gcc.h **** {
 788              		.loc 3 981 31 is_stmt 1 view .LVU225
 789              	.LBB773:
 983:Drivers/CMSIS/Include/cmsis_gcc.h **** 
 790              		.loc 3 983 3 view .LVU226
 988:Drivers/CMSIS/Include/cmsis_gcc.h **** #else
 791              		.loc 3 988 4 view .LVU227
 792              		.syntax unified
 793              	@ 988 "Drivers/CMSIS/Include/cmsis_gcc.h" 1
 794 01be 92FAA2F7 		rbit r7, r2
ARM GAS  C:\Users\Kaa\AppData\Local\Temp\ccMt5vPx.s 			page 44


 795              	@ 0 "" 2
 796              	.LVL53:
 797              		.loc 3 1001 3 view .LVU228
 798              		.loc 3 1001 3 is_stmt 0 view .LVU229
 799              		.thumb
 800              		.syntax unified
 801              	.LBE773:
 802              	.LBE772:
 422:Drivers/STM32F1xx_HAL_Driver/Inc/stm32f1xx_ll_gpio.h ****              (Speed << (POSITION_VAL(Pin) * 4U)));
 803              		.loc 2 422 3 view .LVU230
 804 01c2 B7FA87F7 		clz	r7, r7
 805 01c6 BF00     		lsls	r7, r7, #2
 806 01c8 04FA07F7 		lsl	r7, r4, r7
 807 01cc 3B43     		orrs	r3, r3, r7
 808              	.LVL54:
 422:Drivers/STM32F1xx_HAL_Driver/Inc/stm32f1xx_ll_gpio.h ****              (Speed << (POSITION_VAL(Pin) * 4U)));
 809              		.loc 2 422 3 view .LVU231
 810              	.LBE769:
 811              	.LBE768:
  29:App/z80ramm/z80ramm_gpio.c ****     LL_GPIO_SetPinOutputType(RAMM_ADR_PORT, A4_Pin, LL_GPIO_OUTPUT_PUSHPULL);
 812              		.loc 1 29 5 is_stmt 1 view .LVU232
 813              	.LBB774:
 814              	.LBI774:
 493:Drivers/STM32F1xx_HAL_Driver/Inc/stm32f1xx_ll_gpio.h **** {
 815              		.loc 2 493 22 view .LVU233
 816              	.LBB775:
 495:Drivers/STM32F1xx_HAL_Driver/Inc/stm32f1xx_ll_gpio.h ****   MODIFY_REG(*pReg, (GPIO_CRL_CNF0_0 << (POSITION_VAL(Pin) * 4U)),
 817              		.loc 2 495 3 view .LVU234
 818              		.loc 2 496 3 view .LVU235
 819              	.LBB776:
 820              	.LBI776:
 981:Drivers/CMSIS/Include/cmsis_gcc.h **** {
 821              		.loc 3 981 31 view .LVU236
 822              	.LBB777:
 983:Drivers/CMSIS/Include/cmsis_gcc.h **** 
 823              		.loc 3 983 3 view .LVU237
 988:Drivers/CMSIS/Include/cmsis_gcc.h **** #else
 824              		.loc 3 988 4 view .LVU238
 825              		.syntax unified
 826              	@ 988 "Drivers/CMSIS/Include/cmsis_gcc.h" 1
 827 01ce 92FAA2F7 		rbit r7, r2
 828              	@ 0 "" 2
 829              	.LVL55:
 830              		.loc 3 1001 3 view .LVU239
 831              		.loc 3 1001 3 is_stmt 0 view .LVU240
 832              		.thumb
 833              		.syntax unified
 834              	.LBE777:
 835              	.LBE776:
 836              		.loc 2 496 3 view .LVU241
 837 01d2 B7FA87F7 		clz	r7, r7
 838 01d6 BF00     		lsls	r7, r7, #2
 839 01d8 00FA07F7 		lsl	r7, r0, r7
 840 01dc 23EA0703 		bic	r3, r3, r7
 841              	.LVL56:
 842              	.LBB778:
 843              	.LBI778:
ARM GAS  C:\Users\Kaa\AppData\Local\Temp\ccMt5vPx.s 			page 45


 981:Drivers/CMSIS/Include/cmsis_gcc.h **** {
 844              		.loc 3 981 31 is_stmt 1 view .LVU242
 845              	.LBB779:
 983:Drivers/CMSIS/Include/cmsis_gcc.h **** 
 846              		.loc 3 983 3 view .LVU243
 988:Drivers/CMSIS/Include/cmsis_gcc.h **** #else
 847              		.loc 3 988 4 view .LVU244
 848              		.syntax unified
 849              	@ 988 "Drivers/CMSIS/Include/cmsis_gcc.h" 1
 850 01e0 92FAA2F2 		rbit r2, r2
 851              	@ 0 "" 2
 852              	.LVL57:
 853              		.loc 3 1001 3 view .LVU245
 854              		.loc 3 1001 3 is_stmt 0 view .LVU246
 855              		.thumb
 856              		.syntax unified
 857              	.LBE779:
 858              	.LBE778:
 859              	.LBE775:
 860              	.LBE774:
  30:App/z80ramm/z80ramm_gpio.c ****     LL_GPIO_SetPinMode(RAMM_ADR_PORT, A5_Pin, LL_GPIO_MODE_OUTPUT);
 861              		.loc 1 30 5 is_stmt 1 view .LVU247
 862              	.LBB780:
 863              	.LBI780:
 341:Drivers/STM32F1xx_HAL_Driver/Inc/stm32f1xx_ll_gpio.h **** {
 864              		.loc 2 341 22 view .LVU248
 865              	.LBB781:
 343:Drivers/STM32F1xx_HAL_Driver/Inc/stm32f1xx_ll_gpio.h ****   MODIFY_REG(*pReg, ((GPIO_CRL_CNF0 | GPIO_CRL_MODE0) << (POSITION_VAL(Pin) * 4U)), (Mode << (POSIT
 866              		.loc 2 343 3 view .LVU249
 344:Drivers/STM32F1xx_HAL_Driver/Inc/stm32f1xx_ll_gpio.h **** }
 867              		.loc 2 344 3 view .LVU250
 868              	.LBB782:
 869              	.LBI782:
 981:Drivers/CMSIS/Include/cmsis_gcc.h **** {
 870              		.loc 3 981 31 view .LVU251
 871              	.LBB783:
 983:Drivers/CMSIS/Include/cmsis_gcc.h **** 
 872              		.loc 3 983 3 view .LVU252
 988:Drivers/CMSIS/Include/cmsis_gcc.h **** #else
 873              		.loc 3 988 4 view .LVU253
 874 01e4 42F22002 		movw	r2, #8224
 875              		.syntax unified
 876              	@ 988 "Drivers/CMSIS/Include/cmsis_gcc.h" 1
 877 01e8 92FAA2F7 		rbit r7, r2
 878              	@ 0 "" 2
 879              	.LVL58:
 880              		.loc 3 1001 3 view .LVU254
 881              		.loc 3 1001 3 is_stmt 0 view .LVU255
 882              		.thumb
 883              		.syntax unified
 884              	.LBE783:
 885              	.LBE782:
 344:Drivers/STM32F1xx_HAL_Driver/Inc/stm32f1xx_ll_gpio.h **** }
 886              		.loc 2 344 3 view .LVU256
 887 01ec B7FA87F7 		clz	r7, r7
 888 01f0 BF00     		lsls	r7, r7, #2
 889 01f2 06FA07F7 		lsl	r7, r6, r7
ARM GAS  C:\Users\Kaa\AppData\Local\Temp\ccMt5vPx.s 			page 46


 890 01f6 23EA0703 		bic	r3, r3, r7
 891              	.LVL59:
 892              	.LBB784:
 893              	.LBI784:
 981:Drivers/CMSIS/Include/cmsis_gcc.h **** {
 894              		.loc 3 981 31 is_stmt 1 view .LVU257
 895              	.LBB785:
 983:Drivers/CMSIS/Include/cmsis_gcc.h **** 
 896              		.loc 3 983 3 view .LVU258
 988:Drivers/CMSIS/Include/cmsis_gcc.h **** #else
 897              		.loc 3 988 4 view .LVU259
 898              		.syntax unified
 899              	@ 988 "Drivers/CMSIS/Include/cmsis_gcc.h" 1
 900 01fa 92FAA2F7 		rbit r7, r2
 901              	@ 0 "" 2
 902              	.LVL60:
 903              		.loc 3 1001 3 view .LVU260
 904              		.loc 3 1001 3 is_stmt 0 view .LVU261
 905              		.thumb
 906              		.syntax unified
 907              	.LBE785:
 908              	.LBE784:
 344:Drivers/STM32F1xx_HAL_Driver/Inc/stm32f1xx_ll_gpio.h **** }
 909              		.loc 2 344 3 view .LVU262
 910 01fe B7FA87F7 		clz	r7, r7
 911 0202 BF00     		lsls	r7, r7, #2
 912 0204 05FA07F7 		lsl	r7, r5, r7
 913 0208 3B43     		orrs	r3, r3, r7
 914              	.LVL61:
 344:Drivers/STM32F1xx_HAL_Driver/Inc/stm32f1xx_ll_gpio.h **** }
 915              		.loc 2 344 3 view .LVU263
 916              	.LBE781:
 917              	.LBE780:
  31:App/z80ramm/z80ramm_gpio.c ****     LL_GPIO_SetPinSpeed(RAMM_ADR_PORT, A5_Pin, LL_GPIO_SPEED_FREQ_HIGH);
 918              		.loc 1 31 5 is_stmt 1 view .LVU264
 919              	.LBB786:
 920              	.LBI786:
 419:Drivers/STM32F1xx_HAL_Driver/Inc/stm32f1xx_ll_gpio.h **** {
 921              		.loc 2 419 22 view .LVU265
 922              	.LBB787:
 421:Drivers/STM32F1xx_HAL_Driver/Inc/stm32f1xx_ll_gpio.h ****   MODIFY_REG(*pReg, (GPIO_CRL_MODE0 << (POSITION_VAL(Pin) * 4U)),
 923              		.loc 2 421 3 view .LVU266
 422:Drivers/STM32F1xx_HAL_Driver/Inc/stm32f1xx_ll_gpio.h ****              (Speed << (POSITION_VAL(Pin) * 4U)));
 924              		.loc 2 422 3 view .LVU267
 925              	.LBB788:
 926              	.LBI788:
 981:Drivers/CMSIS/Include/cmsis_gcc.h **** {
 927              		.loc 3 981 31 view .LVU268
 928              	.LBB789:
 983:Drivers/CMSIS/Include/cmsis_gcc.h **** 
 929              		.loc 3 983 3 view .LVU269
 988:Drivers/CMSIS/Include/cmsis_gcc.h **** #else
 930              		.loc 3 988 4 view .LVU270
 931              		.syntax unified
 932              	@ 988 "Drivers/CMSIS/Include/cmsis_gcc.h" 1
 933 020a 92FAA2F7 		rbit r7, r2
 934              	@ 0 "" 2
ARM GAS  C:\Users\Kaa\AppData\Local\Temp\ccMt5vPx.s 			page 47


 935              	.LVL62:
 936              		.loc 3 1001 3 view .LVU271
 937              		.loc 3 1001 3 is_stmt 0 view .LVU272
 938              		.thumb
 939              		.syntax unified
 940              	.LBE789:
 941              	.LBE788:
 422:Drivers/STM32F1xx_HAL_Driver/Inc/stm32f1xx_ll_gpio.h ****              (Speed << (POSITION_VAL(Pin) * 4U)));
 942              		.loc 2 422 3 view .LVU273
 943 020e B7FA87F7 		clz	r7, r7
 944 0212 BF00     		lsls	r7, r7, #2
 945 0214 04FA07F7 		lsl	r7, r4, r7
 946 0218 23EA0703 		bic	r3, r3, r7
 947              	.LVL63:
 948              	.LBB790:
 949              	.LBI790:
 981:Drivers/CMSIS/Include/cmsis_gcc.h **** {
 950              		.loc 3 981 31 is_stmt 1 view .LVU274
 951              	.LBB791:
 983:Drivers/CMSIS/Include/cmsis_gcc.h **** 
 952              		.loc 3 983 3 view .LVU275
 988:Drivers/CMSIS/Include/cmsis_gcc.h **** #else
 953              		.loc 3 988 4 view .LVU276
 954              		.syntax unified
 955              	@ 988 "Drivers/CMSIS/Include/cmsis_gcc.h" 1
 956 021c 92FAA2F7 		rbit r7, r2
 957              	@ 0 "" 2
 958              	.LVL64:
 959              		.loc 3 1001 3 view .LVU277
 960              		.loc 3 1001 3 is_stmt 0 view .LVU278
 961              		.thumb
 962              		.syntax unified
 963              	.LBE791:
 964              	.LBE790:
 422:Drivers/STM32F1xx_HAL_Driver/Inc/stm32f1xx_ll_gpio.h ****              (Speed << (POSITION_VAL(Pin) * 4U)));
 965              		.loc 2 422 3 view .LVU279
 966 0220 B7FA87F7 		clz	r7, r7
 967 0224 BF00     		lsls	r7, r7, #2
 968 0226 04FA07F7 		lsl	r7, r4, r7
 969 022a 3B43     		orrs	r3, r3, r7
 970              	.LVL65:
 422:Drivers/STM32F1xx_HAL_Driver/Inc/stm32f1xx_ll_gpio.h ****              (Speed << (POSITION_VAL(Pin) * 4U)));
 971              		.loc 2 422 3 view .LVU280
 972              	.LBE787:
 973              	.LBE786:
  32:App/z80ramm/z80ramm_gpio.c ****     LL_GPIO_SetPinOutputType(RAMM_ADR_PORT, A5_Pin, LL_GPIO_OUTPUT_PUSHPULL);
 974              		.loc 1 32 5 is_stmt 1 view .LVU281
 975              	.LBB792:
 976              	.LBI792:
 493:Drivers/STM32F1xx_HAL_Driver/Inc/stm32f1xx_ll_gpio.h **** {
 977              		.loc 2 493 22 view .LVU282
 978              	.LBB793:
 495:Drivers/STM32F1xx_HAL_Driver/Inc/stm32f1xx_ll_gpio.h ****   MODIFY_REG(*pReg, (GPIO_CRL_CNF0_0 << (POSITION_VAL(Pin) * 4U)),
 979              		.loc 2 495 3 view .LVU283
 980              		.loc 2 496 3 view .LVU284
 981              	.LBB794:
 982              	.LBI794:
ARM GAS  C:\Users\Kaa\AppData\Local\Temp\ccMt5vPx.s 			page 48


 981:Drivers/CMSIS/Include/cmsis_gcc.h **** {
 983              		.loc 3 981 31 view .LVU285
 984              	.LBB795:
 983:Drivers/CMSIS/Include/cmsis_gcc.h **** 
 985              		.loc 3 983 3 view .LVU286
 988:Drivers/CMSIS/Include/cmsis_gcc.h **** #else
 986              		.loc 3 988 4 view .LVU287
 987              		.syntax unified
 988              	@ 988 "Drivers/CMSIS/Include/cmsis_gcc.h" 1
 989 022c 92FAA2F7 		rbit r7, r2
 990              	@ 0 "" 2
 991              	.LVL66:
 992              		.loc 3 1001 3 view .LVU288
 993              		.loc 3 1001 3 is_stmt 0 view .LVU289
 994              		.thumb
 995              		.syntax unified
 996              	.LBE795:
 997              	.LBE794:
 998              		.loc 2 496 3 view .LVU290
 999 0230 B7FA87F7 		clz	r7, r7
 1000 0234 BF00     		lsls	r7, r7, #2
 1001 0236 00FA07F7 		lsl	r7, r0, r7
 1002 023a 23EA0703 		bic	r3, r3, r7
 1003              	.LVL67:
 1004              	.LBB796:
 1005              	.LBI796:
 981:Drivers/CMSIS/Include/cmsis_gcc.h **** {
 1006              		.loc 3 981 31 is_stmt 1 view .LVU291
 1007              	.LBB797:
 983:Drivers/CMSIS/Include/cmsis_gcc.h **** 
 1008              		.loc 3 983 3 view .LVU292
 988:Drivers/CMSIS/Include/cmsis_gcc.h **** #else
 1009              		.loc 3 988 4 view .LVU293
 1010              		.syntax unified
 1011              	@ 988 "Drivers/CMSIS/Include/cmsis_gcc.h" 1
 1012 023e 92FAA2F2 		rbit r2, r2
 1013              	@ 0 "" 2
 1014              	.LVL68:
 1015              		.loc 3 1001 3 view .LVU294
 1016              		.loc 3 1001 3 is_stmt 0 view .LVU295
 1017              		.thumb
 1018              		.syntax unified
 1019              	.LBE797:
 1020              	.LBE796:
 1021              	.LBE793:
 1022              	.LBE792:
  33:App/z80ramm/z80ramm_gpio.c ****     LL_GPIO_SetPinMode(RAMM_ADR_PORT, A6_Pin, LL_GPIO_MODE_OUTPUT);
 1023              		.loc 1 33 5 is_stmt 1 view .LVU296
 1024              	.LBB798:
 1025              	.LBI798:
 341:Drivers/STM32F1xx_HAL_Driver/Inc/stm32f1xx_ll_gpio.h **** {
 1026              		.loc 2 341 22 view .LVU297
 1027              	.LBB799:
 343:Drivers/STM32F1xx_HAL_Driver/Inc/stm32f1xx_ll_gpio.h ****   MODIFY_REG(*pReg, ((GPIO_CRL_CNF0 | GPIO_CRL_MODE0) << (POSITION_VAL(Pin) * 4U)), (Mode << (POSIT
 1028              		.loc 2 343 3 view .LVU298
 344:Drivers/STM32F1xx_HAL_Driver/Inc/stm32f1xx_ll_gpio.h **** }
 1029              		.loc 2 344 3 view .LVU299
ARM GAS  C:\Users\Kaa\AppData\Local\Temp\ccMt5vPx.s 			page 49


 1030              	.LBB800:
 1031              	.LBI800:
 981:Drivers/CMSIS/Include/cmsis_gcc.h **** {
 1032              		.loc 3 981 31 view .LVU300
 1033              	.LBB801:
 983:Drivers/CMSIS/Include/cmsis_gcc.h **** 
 1034              		.loc 3 983 3 view .LVU301
 988:Drivers/CMSIS/Include/cmsis_gcc.h **** #else
 1035              		.loc 3 988 4 view .LVU302
 1036 0242 44F24002 		movw	r2, #16448
 1037              		.syntax unified
 1038              	@ 988 "Drivers/CMSIS/Include/cmsis_gcc.h" 1
 1039 0246 92FAA2F7 		rbit r7, r2
 1040              	@ 0 "" 2
 1041              	.LVL69:
 1042              		.loc 3 1001 3 view .LVU303
 1043              		.loc 3 1001 3 is_stmt 0 view .LVU304
 1044              		.thumb
 1045              		.syntax unified
 1046              	.LBE801:
 1047              	.LBE800:
 344:Drivers/STM32F1xx_HAL_Driver/Inc/stm32f1xx_ll_gpio.h **** }
 1048              		.loc 2 344 3 view .LVU305
 1049 024a B7FA87F7 		clz	r7, r7
 1050 024e BF00     		lsls	r7, r7, #2
 1051 0250 06FA07F7 		lsl	r7, r6, r7
 1052 0254 23EA0703 		bic	r3, r3, r7
 1053              	.LVL70:
 1054              	.LBB802:
 1055              	.LBI802:
 981:Drivers/CMSIS/Include/cmsis_gcc.h **** {
 1056              		.loc 3 981 31 is_stmt 1 view .LVU306
 1057              	.LBB803:
 983:Drivers/CMSIS/Include/cmsis_gcc.h **** 
 1058              		.loc 3 983 3 view .LVU307
 988:Drivers/CMSIS/Include/cmsis_gcc.h **** #else
 1059              		.loc 3 988 4 view .LVU308
 1060              		.syntax unified
 1061              	@ 988 "Drivers/CMSIS/Include/cmsis_gcc.h" 1
 1062 0258 92FAA2F7 		rbit r7, r2
 1063              	@ 0 "" 2
 1064              	.LVL71:
 1065              		.loc 3 1001 3 view .LVU309
 1066              		.loc 3 1001 3 is_stmt 0 view .LVU310
 1067              		.thumb
 1068              		.syntax unified
 1069              	.LBE803:
 1070              	.LBE802:
 344:Drivers/STM32F1xx_HAL_Driver/Inc/stm32f1xx_ll_gpio.h **** }
 1071              		.loc 2 344 3 view .LVU311
 1072 025c B7FA87F7 		clz	r7, r7
 1073 0260 BF00     		lsls	r7, r7, #2
 1074 0262 05FA07F7 		lsl	r7, r5, r7
 1075 0266 3B43     		orrs	r3, r3, r7
 1076              	.LVL72:
 344:Drivers/STM32F1xx_HAL_Driver/Inc/stm32f1xx_ll_gpio.h **** }
 1077              		.loc 2 344 3 view .LVU312
ARM GAS  C:\Users\Kaa\AppData\Local\Temp\ccMt5vPx.s 			page 50


 1078              	.LBE799:
 1079              	.LBE798:
  34:App/z80ramm/z80ramm_gpio.c ****     LL_GPIO_SetPinSpeed(RAMM_ADR_PORT, A6_Pin, LL_GPIO_SPEED_FREQ_HIGH);
 1080              		.loc 1 34 5 is_stmt 1 view .LVU313
 1081              	.LBB804:
 1082              	.LBI804:
 419:Drivers/STM32F1xx_HAL_Driver/Inc/stm32f1xx_ll_gpio.h **** {
 1083              		.loc 2 419 22 view .LVU314
 1084              	.LBB805:
 421:Drivers/STM32F1xx_HAL_Driver/Inc/stm32f1xx_ll_gpio.h ****   MODIFY_REG(*pReg, (GPIO_CRL_MODE0 << (POSITION_VAL(Pin) * 4U)),
 1085              		.loc 2 421 3 view .LVU315
 422:Drivers/STM32F1xx_HAL_Driver/Inc/stm32f1xx_ll_gpio.h ****              (Speed << (POSITION_VAL(Pin) * 4U)));
 1086              		.loc 2 422 3 view .LVU316
 1087              	.LBB806:
 1088              	.LBI806:
 981:Drivers/CMSIS/Include/cmsis_gcc.h **** {
 1089              		.loc 3 981 31 view .LVU317
 1090              	.LBB807:
 983:Drivers/CMSIS/Include/cmsis_gcc.h **** 
 1091              		.loc 3 983 3 view .LVU318
 988:Drivers/CMSIS/Include/cmsis_gcc.h **** #else
 1092              		.loc 3 988 4 view .LVU319
 1093              		.syntax unified
 1094              	@ 988 "Drivers/CMSIS/Include/cmsis_gcc.h" 1
 1095 0268 92FAA2F7 		rbit r7, r2
 1096              	@ 0 "" 2
 1097              	.LVL73:
 1098              		.loc 3 1001 3 view .LVU320
 1099              		.loc 3 1001 3 is_stmt 0 view .LVU321
 1100              		.thumb
 1101              		.syntax unified
 1102              	.LBE807:
 1103              	.LBE806:
 422:Drivers/STM32F1xx_HAL_Driver/Inc/stm32f1xx_ll_gpio.h ****              (Speed << (POSITION_VAL(Pin) * 4U)));
 1104              		.loc 2 422 3 view .LVU322
 1105 026c B7FA87F7 		clz	r7, r7
 1106 0270 BF00     		lsls	r7, r7, #2
 1107 0272 04FA07F7 		lsl	r7, r4, r7
 1108 0276 23EA0703 		bic	r3, r3, r7
 1109              	.LVL74:
 1110              	.LBB808:
 1111              	.LBI808:
 981:Drivers/CMSIS/Include/cmsis_gcc.h **** {
 1112              		.loc 3 981 31 is_stmt 1 view .LVU323
 1113              	.LBB809:
 983:Drivers/CMSIS/Include/cmsis_gcc.h **** 
 1114              		.loc 3 983 3 view .LVU324
 988:Drivers/CMSIS/Include/cmsis_gcc.h **** #else
 1115              		.loc 3 988 4 view .LVU325
 1116              		.syntax unified
 1117              	@ 988 "Drivers/CMSIS/Include/cmsis_gcc.h" 1
 1118 027a 92FAA2F7 		rbit r7, r2
 1119              	@ 0 "" 2
 1120              	.LVL75:
 1121              		.loc 3 1001 3 view .LVU326
 1122              		.loc 3 1001 3 is_stmt 0 view .LVU327
 1123              		.thumb
ARM GAS  C:\Users\Kaa\AppData\Local\Temp\ccMt5vPx.s 			page 51


 1124              		.syntax unified
 1125              	.LBE809:
 1126              	.LBE808:
 422:Drivers/STM32F1xx_HAL_Driver/Inc/stm32f1xx_ll_gpio.h ****              (Speed << (POSITION_VAL(Pin) * 4U)));
 1127              		.loc 2 422 3 view .LVU328
 1128 027e B7FA87F7 		clz	r7, r7
 1129 0282 BF00     		lsls	r7, r7, #2
 1130 0284 04FA07F7 		lsl	r7, r4, r7
 1131 0288 3B43     		orrs	r3, r3, r7
 1132              	.LVL76:
 422:Drivers/STM32F1xx_HAL_Driver/Inc/stm32f1xx_ll_gpio.h ****              (Speed << (POSITION_VAL(Pin) * 4U)));
 1133              		.loc 2 422 3 view .LVU329
 1134              	.LBE805:
 1135              	.LBE804:
  35:App/z80ramm/z80ramm_gpio.c ****     LL_GPIO_SetPinOutputType(RAMM_ADR_PORT, A6_Pin, LL_GPIO_OUTPUT_PUSHPULL);
 1136              		.loc 1 35 5 is_stmt 1 view .LVU330
 1137              	.LBB810:
 1138              	.LBI810:
 493:Drivers/STM32F1xx_HAL_Driver/Inc/stm32f1xx_ll_gpio.h **** {
 1139              		.loc 2 493 22 view .LVU331
 1140              	.LBB811:
 495:Drivers/STM32F1xx_HAL_Driver/Inc/stm32f1xx_ll_gpio.h ****   MODIFY_REG(*pReg, (GPIO_CRL_CNF0_0 << (POSITION_VAL(Pin) * 4U)),
 1141              		.loc 2 495 3 view .LVU332
 1142              		.loc 2 496 3 view .LVU333
 1143              	.LBB812:
 1144              	.LBI812:
 981:Drivers/CMSIS/Include/cmsis_gcc.h **** {
 1145              		.loc 3 981 31 view .LVU334
 1146              	.LBB813:
 983:Drivers/CMSIS/Include/cmsis_gcc.h **** 
 1147              		.loc 3 983 3 view .LVU335
 988:Drivers/CMSIS/Include/cmsis_gcc.h **** #else
 1148              		.loc 3 988 4 view .LVU336
 1149              		.syntax unified
 1150              	@ 988 "Drivers/CMSIS/Include/cmsis_gcc.h" 1
 1151 028a 92FAA2F7 		rbit r7, r2
 1152              	@ 0 "" 2
 1153              	.LVL77:
 1154              		.loc 3 1001 3 view .LVU337
 1155              		.loc 3 1001 3 is_stmt 0 view .LVU338
 1156              		.thumb
 1157              		.syntax unified
 1158              	.LBE813:
 1159              	.LBE812:
 1160              		.loc 2 496 3 view .LVU339
 1161 028e B7FA87F7 		clz	r7, r7
 1162 0292 BF00     		lsls	r7, r7, #2
 1163 0294 00FA07F7 		lsl	r7, r0, r7
 1164 0298 23EA0703 		bic	r3, r3, r7
 1165              	.LVL78:
 1166              	.LBB814:
 1167              	.LBI814:
 981:Drivers/CMSIS/Include/cmsis_gcc.h **** {
 1168              		.loc 3 981 31 is_stmt 1 view .LVU340
 1169              	.LBB815:
 983:Drivers/CMSIS/Include/cmsis_gcc.h **** 
 1170              		.loc 3 983 3 view .LVU341
ARM GAS  C:\Users\Kaa\AppData\Local\Temp\ccMt5vPx.s 			page 52


 988:Drivers/CMSIS/Include/cmsis_gcc.h **** #else
 1171              		.loc 3 988 4 view .LVU342
 1172              		.syntax unified
 1173              	@ 988 "Drivers/CMSIS/Include/cmsis_gcc.h" 1
 1174 029c 92FAA2F2 		rbit r2, r2
 1175              	@ 0 "" 2
 1176              	.LVL79:
 1177              		.loc 3 1001 3 view .LVU343
 1178              		.loc 3 1001 3 is_stmt 0 view .LVU344
 1179              		.thumb
 1180              		.syntax unified
 1181              	.LBE815:
 1182              	.LBE814:
 1183              	.LBE811:
 1184              	.LBE810:
  36:App/z80ramm/z80ramm_gpio.c ****     LL_GPIO_SetPinMode(RAMM_ADR_PORT, A7_Pin, LL_GPIO_MODE_OUTPUT);
 1185              		.loc 1 36 5 is_stmt 1 view .LVU345
 1186              	.LBB816:
 1187              	.LBI816:
 341:Drivers/STM32F1xx_HAL_Driver/Inc/stm32f1xx_ll_gpio.h **** {
 1188              		.loc 2 341 22 view .LVU346
 1189              	.LBB817:
 343:Drivers/STM32F1xx_HAL_Driver/Inc/stm32f1xx_ll_gpio.h ****   MODIFY_REG(*pReg, ((GPIO_CRL_CNF0 | GPIO_CRL_MODE0) << (POSITION_VAL(Pin) * 4U)), (Mode << (POSIT
 1190              		.loc 2 343 3 view .LVU347
 344:Drivers/STM32F1xx_HAL_Driver/Inc/stm32f1xx_ll_gpio.h **** }
 1191              		.loc 2 344 3 view .LVU348
 1192              	.LBB818:
 1193              	.LBI818:
 981:Drivers/CMSIS/Include/cmsis_gcc.h **** {
 1194              		.loc 3 981 31 view .LVU349
 1195              	.LBB819:
 983:Drivers/CMSIS/Include/cmsis_gcc.h **** 
 1196              		.loc 3 983 3 view .LVU350
 988:Drivers/CMSIS/Include/cmsis_gcc.h **** #else
 1197              		.loc 3 988 4 view .LVU351
 1198 02a0 48F28002 		movw	r2, #32896
 1199              		.syntax unified
 1200              	@ 988 "Drivers/CMSIS/Include/cmsis_gcc.h" 1
 1201 02a4 92FAA2F7 		rbit r7, r2
 1202              	@ 0 "" 2
 1203              	.LVL80:
 1204              		.loc 3 1001 3 view .LVU352
 1205              		.loc 3 1001 3 is_stmt 0 view .LVU353
 1206              		.thumb
 1207              		.syntax unified
 1208              	.LBE819:
 1209              	.LBE818:
 344:Drivers/STM32F1xx_HAL_Driver/Inc/stm32f1xx_ll_gpio.h **** }
 1210              		.loc 2 344 3 view .LVU354
 1211 02a8 B7FA87F7 		clz	r7, r7
 1212 02ac BF00     		lsls	r7, r7, #2
 1213 02ae 06FA07F7 		lsl	r7, r6, r7
 1214 02b2 23EA0703 		bic	r3, r3, r7
 1215              	.LVL81:
 1216              	.LBB820:
 1217              	.LBI820:
 981:Drivers/CMSIS/Include/cmsis_gcc.h **** {
ARM GAS  C:\Users\Kaa\AppData\Local\Temp\ccMt5vPx.s 			page 53


 1218              		.loc 3 981 31 is_stmt 1 view .LVU355
 1219              	.LBB821:
 983:Drivers/CMSIS/Include/cmsis_gcc.h **** 
 1220              		.loc 3 983 3 view .LVU356
 988:Drivers/CMSIS/Include/cmsis_gcc.h **** #else
 1221              		.loc 3 988 4 view .LVU357
 1222              		.syntax unified
 1223              	@ 988 "Drivers/CMSIS/Include/cmsis_gcc.h" 1
 1224 02b6 92FAA2F7 		rbit r7, r2
 1225              	@ 0 "" 2
 1226              	.LVL82:
 1227              		.loc 3 1001 3 view .LVU358
 1228              		.loc 3 1001 3 is_stmt 0 view .LVU359
 1229              		.thumb
 1230              		.syntax unified
 1231              	.LBE821:
 1232              	.LBE820:
 344:Drivers/STM32F1xx_HAL_Driver/Inc/stm32f1xx_ll_gpio.h **** }
 1233              		.loc 2 344 3 view .LVU360
 1234 02ba B7FA87F7 		clz	r7, r7
 1235 02be BF00     		lsls	r7, r7, #2
 1236 02c0 05FA07F7 		lsl	r7, r5, r7
 1237 02c4 3B43     		orrs	r3, r3, r7
 1238              	.LVL83:
 344:Drivers/STM32F1xx_HAL_Driver/Inc/stm32f1xx_ll_gpio.h **** }
 1239              		.loc 2 344 3 view .LVU361
 1240              	.LBE817:
 1241              	.LBE816:
  37:App/z80ramm/z80ramm_gpio.c ****     LL_GPIO_SetPinSpeed(RAMM_ADR_PORT, A7_Pin, LL_GPIO_SPEED_FREQ_HIGH);
 1242              		.loc 1 37 5 is_stmt 1 view .LVU362
 1243              	.LBB822:
 1244              	.LBI822:
 419:Drivers/STM32F1xx_HAL_Driver/Inc/stm32f1xx_ll_gpio.h **** {
 1245              		.loc 2 419 22 view .LVU363
 1246              	.LBB823:
 421:Drivers/STM32F1xx_HAL_Driver/Inc/stm32f1xx_ll_gpio.h ****   MODIFY_REG(*pReg, (GPIO_CRL_MODE0 << (POSITION_VAL(Pin) * 4U)),
 1247              		.loc 2 421 3 view .LVU364
 422:Drivers/STM32F1xx_HAL_Driver/Inc/stm32f1xx_ll_gpio.h ****              (Speed << (POSITION_VAL(Pin) * 4U)));
 1248              		.loc 2 422 3 view .LVU365
 1249              	.LBB824:
 1250              	.LBI824:
 981:Drivers/CMSIS/Include/cmsis_gcc.h **** {
 1251              		.loc 3 981 31 view .LVU366
 1252              	.LBB825:
 983:Drivers/CMSIS/Include/cmsis_gcc.h **** 
 1253              		.loc 3 983 3 view .LVU367
 988:Drivers/CMSIS/Include/cmsis_gcc.h **** #else
 1254              		.loc 3 988 4 view .LVU368
 1255              		.syntax unified
 1256              	@ 988 "Drivers/CMSIS/Include/cmsis_gcc.h" 1
 1257 02c6 92FAA2F7 		rbit r7, r2
 1258              	@ 0 "" 2
 1259              	.LVL84:
 1260              		.loc 3 1001 3 view .LVU369
 1261              		.loc 3 1001 3 is_stmt 0 view .LVU370
 1262              		.thumb
 1263              		.syntax unified
ARM GAS  C:\Users\Kaa\AppData\Local\Temp\ccMt5vPx.s 			page 54


 1264              	.LBE825:
 1265              	.LBE824:
 422:Drivers/STM32F1xx_HAL_Driver/Inc/stm32f1xx_ll_gpio.h ****              (Speed << (POSITION_VAL(Pin) * 4U)));
 1266              		.loc 2 422 3 view .LVU371
 1267 02ca B7FA87F7 		clz	r7, r7
 1268 02ce BF00     		lsls	r7, r7, #2
 1269 02d0 04FA07F7 		lsl	r7, r4, r7
 1270 02d4 23EA0703 		bic	r3, r3, r7
 1271              	.LVL85:
 1272              	.LBB826:
 1273              	.LBI826:
 981:Drivers/CMSIS/Include/cmsis_gcc.h **** {
 1274              		.loc 3 981 31 is_stmt 1 view .LVU372
 1275              	.LBB827:
 983:Drivers/CMSIS/Include/cmsis_gcc.h **** 
 1276              		.loc 3 983 3 view .LVU373
 988:Drivers/CMSIS/Include/cmsis_gcc.h **** #else
 1277              		.loc 3 988 4 view .LVU374
 1278              		.syntax unified
 1279              	@ 988 "Drivers/CMSIS/Include/cmsis_gcc.h" 1
 1280 02d8 92FAA2F7 		rbit r7, r2
 1281              	@ 0 "" 2
 1282              	.LVL86:
 1283              		.loc 3 1001 3 view .LVU375
 1284              		.loc 3 1001 3 is_stmt 0 view .LVU376
 1285              		.thumb
 1286              		.syntax unified
 1287              	.LBE827:
 1288              	.LBE826:
 422:Drivers/STM32F1xx_HAL_Driver/Inc/stm32f1xx_ll_gpio.h ****              (Speed << (POSITION_VAL(Pin) * 4U)));
 1289              		.loc 2 422 3 view .LVU377
 1290 02dc B7FA87F7 		clz	r7, r7
 1291 02e0 BF00     		lsls	r7, r7, #2
 1292 02e2 04FA07F7 		lsl	r7, r4, r7
 1293 02e6 3B43     		orrs	r3, r3, r7
 1294              	.LVL87:
 422:Drivers/STM32F1xx_HAL_Driver/Inc/stm32f1xx_ll_gpio.h ****              (Speed << (POSITION_VAL(Pin) * 4U)));
 1295              		.loc 2 422 3 view .LVU378
 1296              	.LBE823:
 1297              	.LBE822:
  38:App/z80ramm/z80ramm_gpio.c ****     LL_GPIO_SetPinOutputType(RAMM_ADR_PORT, A7_Pin, LL_GPIO_OUTPUT_PUSHPULL);
 1298              		.loc 1 38 5 is_stmt 1 view .LVU379
 1299              	.LBB828:
 1300              	.LBI828:
 493:Drivers/STM32F1xx_HAL_Driver/Inc/stm32f1xx_ll_gpio.h **** {
 1301              		.loc 2 493 22 view .LVU380
 1302              	.LBB829:
 495:Drivers/STM32F1xx_HAL_Driver/Inc/stm32f1xx_ll_gpio.h ****   MODIFY_REG(*pReg, (GPIO_CRL_CNF0_0 << (POSITION_VAL(Pin) * 4U)),
 1303              		.loc 2 495 3 view .LVU381
 1304              		.loc 2 496 3 view .LVU382
 1305              	.LBB830:
 1306              	.LBI830:
 981:Drivers/CMSIS/Include/cmsis_gcc.h **** {
 1307              		.loc 3 981 31 view .LVU383
 1308              	.LBB831:
 983:Drivers/CMSIS/Include/cmsis_gcc.h **** 
 1309              		.loc 3 983 3 view .LVU384
ARM GAS  C:\Users\Kaa\AppData\Local\Temp\ccMt5vPx.s 			page 55


 988:Drivers/CMSIS/Include/cmsis_gcc.h **** #else
 1310              		.loc 3 988 4 view .LVU385
 1311              		.syntax unified
 1312              	@ 988 "Drivers/CMSIS/Include/cmsis_gcc.h" 1
 1313 02e8 92FAA2F7 		rbit r7, r2
 1314              	@ 0 "" 2
 1315              	.LVL88:
 1316              		.loc 3 1001 3 view .LVU386
 1317              		.loc 3 1001 3 is_stmt 0 view .LVU387
 1318              		.thumb
 1319              		.syntax unified
 1320              	.LBE831:
 1321              	.LBE830:
 1322              		.loc 2 496 3 view .LVU388
 1323 02ec B7FA87F7 		clz	r7, r7
 1324 02f0 BF00     		lsls	r7, r7, #2
 1325 02f2 00FA07F7 		lsl	r7, r0, r7
 1326 02f6 23EA0703 		bic	r3, r3, r7
 1327              	.LVL89:
 1328              	.LBB832:
 1329              	.LBI832:
 981:Drivers/CMSIS/Include/cmsis_gcc.h **** {
 1330              		.loc 3 981 31 is_stmt 1 view .LVU389
 1331              	.LBB833:
 983:Drivers/CMSIS/Include/cmsis_gcc.h **** 
 1332              		.loc 3 983 3 view .LVU390
 988:Drivers/CMSIS/Include/cmsis_gcc.h **** #else
 1333              		.loc 3 988 4 view .LVU391
 1334              		.syntax unified
 1335              	@ 988 "Drivers/CMSIS/Include/cmsis_gcc.h" 1
 1336 02fa 92FAA2F2 		rbit r2, r2
 1337              	@ 0 "" 2
 1338              	.LVL90:
 1339              		.loc 3 1001 3 view .LVU392
 1340              		.loc 3 1001 3 is_stmt 0 view .LVU393
 1341              		.thumb
 1342              		.syntax unified
 1343              	.LBE833:
 1344              	.LBE832:
 1345              		.loc 2 496 3 view .LVU394
 1346 02fe 0B60     		str	r3, [r1]
 1347              	.LVL91:
 1348              		.loc 2 496 3 view .LVU395
 1349              	.LBE829:
 1350              	.LBE828:
  39:App/z80ramm/z80ramm_gpio.c ****     LL_GPIO_SetPinMode(RAMM_ADR_PORT, A8_Pin, LL_GPIO_MODE_OUTPUT);
 1351              		.loc 1 39 5 is_stmt 1 view .LVU396
 1352              	.LBB834:
 1353              	.LBI834:
 341:Drivers/STM32F1xx_HAL_Driver/Inc/stm32f1xx_ll_gpio.h **** {
 1354              		.loc 2 341 22 view .LVU397
 1355              	.LBB835:
 343:Drivers/STM32F1xx_HAL_Driver/Inc/stm32f1xx_ll_gpio.h ****   MODIFY_REG(*pReg, ((GPIO_CRL_CNF0 | GPIO_CRL_MODE0) << (POSITION_VAL(Pin) * 4U)), (Mode << (POSIT
 1356              		.loc 2 343 3 view .LVU398
 344:Drivers/STM32F1xx_HAL_Driver/Inc/stm32f1xx_ll_gpio.h **** }
 1357              		.loc 2 344 3 view .LVU399
 1358 0300 4B68     		ldr	r3, [r1, #4]
ARM GAS  C:\Users\Kaa\AppData\Local\Temp\ccMt5vPx.s 			page 56


 1359              	.LVL92:
 1360              	.LBB836:
 1361              	.LBI836:
 981:Drivers/CMSIS/Include/cmsis_gcc.h **** {
 1362              		.loc 3 981 31 view .LVU400
 1363              	.LBB837:
 983:Drivers/CMSIS/Include/cmsis_gcc.h **** 
 1364              		.loc 3 983 3 view .LVU401
 988:Drivers/CMSIS/Include/cmsis_gcc.h **** #else
 1365              		.loc 3 988 4 view .LVU402
 1366 0302 3C4F     		ldr	r7, .L3+4
 1367              		.syntax unified
 1368              	@ 988 "Drivers/CMSIS/Include/cmsis_gcc.h" 1
 1369 0304 97FAA7F2 		rbit r2, r7
 1370              	@ 0 "" 2
 1371              	.LVL93:
 1372              		.loc 3 1001 3 view .LVU403
 1373              		.loc 3 1001 3 is_stmt 0 view .LVU404
 1374              		.thumb
 1375              		.syntax unified
 1376              	.LBE837:
 1377              	.LBE836:
 344:Drivers/STM32F1xx_HAL_Driver/Inc/stm32f1xx_ll_gpio.h **** }
 1378              		.loc 2 344 3 view .LVU405
 1379 0308 B2FA82F2 		clz	r2, r2
 1380 030c 9200     		lsls	r2, r2, #2
 1381 030e 06FA02F2 		lsl	r2, r6, r2
 1382 0312 23EA0202 		bic	r2, r3, r2
 1383              	.LVL94:
 1384              	.LBB838:
 1385              	.LBI838:
 981:Drivers/CMSIS/Include/cmsis_gcc.h **** {
 1386              		.loc 3 981 31 is_stmt 1 view .LVU406
 1387              	.LBB839:
 983:Drivers/CMSIS/Include/cmsis_gcc.h **** 
 1388              		.loc 3 983 3 view .LVU407
 988:Drivers/CMSIS/Include/cmsis_gcc.h **** #else
 1389              		.loc 3 988 4 view .LVU408
 1390              		.syntax unified
 1391              	@ 988 "Drivers/CMSIS/Include/cmsis_gcc.h" 1
 1392 0316 97FAA7F3 		rbit r3, r7
 1393              	@ 0 "" 2
 1394              	.LVL95:
 1395              		.loc 3 1001 3 view .LVU409
 1396              		.loc 3 1001 3 is_stmt 0 view .LVU410
 1397              		.thumb
 1398              		.syntax unified
 1399              	.LBE839:
 1400              	.LBE838:
 344:Drivers/STM32F1xx_HAL_Driver/Inc/stm32f1xx_ll_gpio.h **** }
 1401              		.loc 2 344 3 view .LVU411
 1402 031a B3FA83F3 		clz	r3, r3
 1403 031e 9B00     		lsls	r3, r3, #2
 1404 0320 05FA03F3 		lsl	r3, r5, r3
 1405 0324 1A43     		orrs	r2, r2, r3
 1406              	.LVL96:
 344:Drivers/STM32F1xx_HAL_Driver/Inc/stm32f1xx_ll_gpio.h **** }
ARM GAS  C:\Users\Kaa\AppData\Local\Temp\ccMt5vPx.s 			page 57


 1407              		.loc 2 344 3 view .LVU412
 1408              	.LBE835:
 1409              	.LBE834:
  40:App/z80ramm/z80ramm_gpio.c ****     LL_GPIO_SetPinSpeed(RAMM_ADR_PORT, A8_Pin, LL_GPIO_SPEED_FREQ_HIGH);
 1410              		.loc 1 40 5 is_stmt 1 view .LVU413
 1411              	.LBB840:
 1412              	.LBI840:
 419:Drivers/STM32F1xx_HAL_Driver/Inc/stm32f1xx_ll_gpio.h **** {
 1413              		.loc 2 419 22 view .LVU414
 1414              	.LBB841:
 421:Drivers/STM32F1xx_HAL_Driver/Inc/stm32f1xx_ll_gpio.h ****   MODIFY_REG(*pReg, (GPIO_CRL_MODE0 << (POSITION_VAL(Pin) * 4U)),
 1415              		.loc 2 421 3 view .LVU415
 422:Drivers/STM32F1xx_HAL_Driver/Inc/stm32f1xx_ll_gpio.h ****              (Speed << (POSITION_VAL(Pin) * 4U)));
 1416              		.loc 2 422 3 view .LVU416
 1417              	.LBB842:
 1418              	.LBI842:
 981:Drivers/CMSIS/Include/cmsis_gcc.h **** {
 1419              		.loc 3 981 31 view .LVU417
 1420              	.LBB843:
 983:Drivers/CMSIS/Include/cmsis_gcc.h **** 
 1421              		.loc 3 983 3 view .LVU418
 988:Drivers/CMSIS/Include/cmsis_gcc.h **** #else
 1422              		.loc 3 988 4 view .LVU419
 1423              		.syntax unified
 1424              	@ 988 "Drivers/CMSIS/Include/cmsis_gcc.h" 1
 1425 0326 97FAA7F3 		rbit r3, r7
 1426              	@ 0 "" 2
 1427              	.LVL97:
 1428              		.loc 3 1001 3 view .LVU420
 1429              		.loc 3 1001 3 is_stmt 0 view .LVU421
 1430              		.thumb
 1431              		.syntax unified
 1432              	.LBE843:
 1433              	.LBE842:
 422:Drivers/STM32F1xx_HAL_Driver/Inc/stm32f1xx_ll_gpio.h ****              (Speed << (POSITION_VAL(Pin) * 4U)));
 1434              		.loc 2 422 3 view .LVU422
 1435 032a B3FA83F3 		clz	r3, r3
 1436 032e 9B00     		lsls	r3, r3, #2
 1437 0330 04FA03F3 		lsl	r3, r4, r3
 1438 0334 22EA0302 		bic	r2, r2, r3
 1439              	.LVL98:
 1440              	.LBB844:
 1441              	.LBI844:
 981:Drivers/CMSIS/Include/cmsis_gcc.h **** {
 1442              		.loc 3 981 31 is_stmt 1 view .LVU423
 1443              	.LBB845:
 983:Drivers/CMSIS/Include/cmsis_gcc.h **** 
 1444              		.loc 3 983 3 view .LVU424
 988:Drivers/CMSIS/Include/cmsis_gcc.h **** #else
 1445              		.loc 3 988 4 view .LVU425
 1446              		.syntax unified
 1447              	@ 988 "Drivers/CMSIS/Include/cmsis_gcc.h" 1
 1448 0338 97FAA7F3 		rbit r3, r7
 1449              	@ 0 "" 2
 1450              	.LVL99:
 1451              		.loc 3 1001 3 view .LVU426
 1452              		.loc 3 1001 3 is_stmt 0 view .LVU427
ARM GAS  C:\Users\Kaa\AppData\Local\Temp\ccMt5vPx.s 			page 58


 1453              		.thumb
 1454              		.syntax unified
 1455              	.LBE845:
 1456              	.LBE844:
 422:Drivers/STM32F1xx_HAL_Driver/Inc/stm32f1xx_ll_gpio.h ****              (Speed << (POSITION_VAL(Pin) * 4U)));
 1457              		.loc 2 422 3 view .LVU428
 1458 033c B3FA83F3 		clz	r3, r3
 1459 0340 9B00     		lsls	r3, r3, #2
 1460 0342 04FA03F3 		lsl	r3, r4, r3
 1461 0346 1A43     		orrs	r2, r2, r3
 1462              	.LVL100:
 422:Drivers/STM32F1xx_HAL_Driver/Inc/stm32f1xx_ll_gpio.h ****              (Speed << (POSITION_VAL(Pin) * 4U)));
 1463              		.loc 2 422 3 view .LVU429
 1464              	.LBE841:
 1465              	.LBE840:
  41:App/z80ramm/z80ramm_gpio.c ****     LL_GPIO_SetPinOutputType(RAMM_ADR_PORT, A8_Pin, LL_GPIO_OUTPUT_PUSHPULL);
 1466              		.loc 1 41 5 is_stmt 1 view .LVU430
 1467              	.LBB846:
 1468              	.LBI846:
 493:Drivers/STM32F1xx_HAL_Driver/Inc/stm32f1xx_ll_gpio.h **** {
 1469              		.loc 2 493 22 view .LVU431
 1470              	.LBB847:
 495:Drivers/STM32F1xx_HAL_Driver/Inc/stm32f1xx_ll_gpio.h ****   MODIFY_REG(*pReg, (GPIO_CRL_CNF0_0 << (POSITION_VAL(Pin) * 4U)),
 1471              		.loc 2 495 3 view .LVU432
 1472              		.loc 2 496 3 view .LVU433
 1473              	.LBB848:
 1474              	.LBI848:
 981:Drivers/CMSIS/Include/cmsis_gcc.h **** {
 1475              		.loc 3 981 31 view .LVU434
 1476              	.LBB849:
 983:Drivers/CMSIS/Include/cmsis_gcc.h **** 
 1477              		.loc 3 983 3 view .LVU435
 988:Drivers/CMSIS/Include/cmsis_gcc.h **** #else
 1478              		.loc 3 988 4 view .LVU436
 1479              		.syntax unified
 1480              	@ 988 "Drivers/CMSIS/Include/cmsis_gcc.h" 1
 1481 0348 97FAA7F3 		rbit r3, r7
 1482              	@ 0 "" 2
 1483              	.LVL101:
 1484              		.loc 3 1001 3 view .LVU437
 1485              		.loc 3 1001 3 is_stmt 0 view .LVU438
 1486              		.thumb
 1487              		.syntax unified
 1488              	.LBE849:
 1489              	.LBE848:
 1490              		.loc 2 496 3 view .LVU439
 1491 034c B3FA83F3 		clz	r3, r3
 1492 0350 9B00     		lsls	r3, r3, #2
 1493 0352 00FA03F3 		lsl	r3, r0, r3
 1494 0356 22EA0302 		bic	r2, r2, r3
 1495              	.LVL102:
 1496              	.LBB850:
 1497              	.LBI850:
 981:Drivers/CMSIS/Include/cmsis_gcc.h **** {
 1498              		.loc 3 981 31 is_stmt 1 view .LVU440
 1499              	.LBB851:
 983:Drivers/CMSIS/Include/cmsis_gcc.h **** 
ARM GAS  C:\Users\Kaa\AppData\Local\Temp\ccMt5vPx.s 			page 59


 1500              		.loc 3 983 3 view .LVU441
 988:Drivers/CMSIS/Include/cmsis_gcc.h **** #else
 1501              		.loc 3 988 4 view .LVU442
 1502              		.syntax unified
 1503              	@ 988 "Drivers/CMSIS/Include/cmsis_gcc.h" 1
 1504 035a 97FAA7F7 		rbit r7, r7
 1505              	@ 0 "" 2
 1506              	.LVL103:
 1507              		.loc 3 1001 3 view .LVU443
 1508              		.loc 3 1001 3 is_stmt 0 view .LVU444
 1509              		.thumb
 1510              		.syntax unified
 1511              	.LBE851:
 1512              	.LBE850:
 1513              	.LBE847:
 1514              	.LBE846:
  42:App/z80ramm/z80ramm_gpio.c ****     LL_GPIO_SetPinMode(RAMM_ADR_PORT, A9_Pin, LL_GPIO_MODE_OUTPUT);
 1515              		.loc 1 42 5 is_stmt 1 view .LVU445
 1516              	.LBB852:
 1517              	.LBI852:
 341:Drivers/STM32F1xx_HAL_Driver/Inc/stm32f1xx_ll_gpio.h **** {
 1518              		.loc 2 341 22 view .LVU446
 1519              	.LBB853:
 343:Drivers/STM32F1xx_HAL_Driver/Inc/stm32f1xx_ll_gpio.h ****   MODIFY_REG(*pReg, ((GPIO_CRL_CNF0 | GPIO_CRL_MODE0) << (POSITION_VAL(Pin) * 4U)), (Mode << (POSIT
 1520              		.loc 2 343 3 view .LVU447
 344:Drivers/STM32F1xx_HAL_Driver/Inc/stm32f1xx_ll_gpio.h **** }
 1521              		.loc 2 344 3 view .LVU448
 1522              	.LBB854:
 1523              	.LBI854:
 981:Drivers/CMSIS/Include/cmsis_gcc.h **** {
 1524              		.loc 3 981 31 view .LVU449
 1525              	.LBB855:
 983:Drivers/CMSIS/Include/cmsis_gcc.h **** 
 1526              		.loc 3 983 3 view .LVU450
 988:Drivers/CMSIS/Include/cmsis_gcc.h **** #else
 1527              		.loc 3 988 4 view .LVU451
 1528 035e 264B     		ldr	r3, .L3+8
 1529              		.syntax unified
 1530              	@ 988 "Drivers/CMSIS/Include/cmsis_gcc.h" 1
 1531 0360 93FAA3F7 		rbit r7, r3
 1532              	@ 0 "" 2
 1533              	.LVL104:
 1534              		.loc 3 1001 3 view .LVU452
 1535              		.loc 3 1001 3 is_stmt 0 view .LVU453
 1536              		.thumb
 1537              		.syntax unified
 1538              	.LBE855:
 1539              	.LBE854:
 344:Drivers/STM32F1xx_HAL_Driver/Inc/stm32f1xx_ll_gpio.h **** }
 1540              		.loc 2 344 3 view .LVU454
 1541 0364 B7FA87F7 		clz	r7, r7
 1542 0368 BF00     		lsls	r7, r7, #2
 1543 036a 06FA07F7 		lsl	r7, r6, r7
 1544 036e 22EA0702 		bic	r2, r2, r7
 1545              	.LVL105:
 1546              	.LBB856:
 1547              	.LBI856:
ARM GAS  C:\Users\Kaa\AppData\Local\Temp\ccMt5vPx.s 			page 60


 981:Drivers/CMSIS/Include/cmsis_gcc.h **** {
 1548              		.loc 3 981 31 is_stmt 1 view .LVU455
 1549              	.LBB857:
 983:Drivers/CMSIS/Include/cmsis_gcc.h **** 
 1550              		.loc 3 983 3 view .LVU456
 988:Drivers/CMSIS/Include/cmsis_gcc.h **** #else
 1551              		.loc 3 988 4 view .LVU457
 1552              		.syntax unified
 1553              	@ 988 "Drivers/CMSIS/Include/cmsis_gcc.h" 1
 1554 0372 93FAA3F7 		rbit r7, r3
 1555              	@ 0 "" 2
 1556              	.LVL106:
 1557              		.loc 3 1001 3 view .LVU458
 1558              		.loc 3 1001 3 is_stmt 0 view .LVU459
 1559              		.thumb
 1560              		.syntax unified
 1561              	.LBE857:
 1562              	.LBE856:
 344:Drivers/STM32F1xx_HAL_Driver/Inc/stm32f1xx_ll_gpio.h **** }
 1563              		.loc 2 344 3 view .LVU460
 1564 0376 B7FA87F7 		clz	r7, r7
 1565 037a BF00     		lsls	r7, r7, #2
 1566 037c 05FA07F7 		lsl	r7, r5, r7
 1567 0380 3A43     		orrs	r2, r2, r7
 1568              	.LVL107:
 344:Drivers/STM32F1xx_HAL_Driver/Inc/stm32f1xx_ll_gpio.h **** }
 1569              		.loc 2 344 3 view .LVU461
 1570              	.LBE853:
 1571              	.LBE852:
  43:App/z80ramm/z80ramm_gpio.c ****     LL_GPIO_SetPinSpeed(RAMM_ADR_PORT, A9_Pin, LL_GPIO_SPEED_FREQ_HIGH);
 1572              		.loc 1 43 5 is_stmt 1 view .LVU462
 1573              	.LBB858:
 1574              	.LBI858:
 419:Drivers/STM32F1xx_HAL_Driver/Inc/stm32f1xx_ll_gpio.h **** {
 1575              		.loc 2 419 22 view .LVU463
 1576              	.LBB859:
 421:Drivers/STM32F1xx_HAL_Driver/Inc/stm32f1xx_ll_gpio.h ****   MODIFY_REG(*pReg, (GPIO_CRL_MODE0 << (POSITION_VAL(Pin) * 4U)),
 1577              		.loc 2 421 3 view .LVU464
 422:Drivers/STM32F1xx_HAL_Driver/Inc/stm32f1xx_ll_gpio.h ****              (Speed << (POSITION_VAL(Pin) * 4U)));
 1578              		.loc 2 422 3 view .LVU465
 1579              	.LBB860:
 1580              	.LBI860:
 981:Drivers/CMSIS/Include/cmsis_gcc.h **** {
 1581              		.loc 3 981 31 view .LVU466
 1582              	.LBB861:
 983:Drivers/CMSIS/Include/cmsis_gcc.h **** 
 1583              		.loc 3 983 3 view .LVU467
 988:Drivers/CMSIS/Include/cmsis_gcc.h **** #else
 1584              		.loc 3 988 4 view .LVU468
 1585              		.syntax unified
 1586              	@ 988 "Drivers/CMSIS/Include/cmsis_gcc.h" 1
 1587 0382 93FAA3F7 		rbit r7, r3
 1588              	@ 0 "" 2
 1589              	.LVL108:
 1590              		.loc 3 1001 3 view .LVU469
 1591              		.loc 3 1001 3 is_stmt 0 view .LVU470
 1592              		.thumb
ARM GAS  C:\Users\Kaa\AppData\Local\Temp\ccMt5vPx.s 			page 61


 1593              		.syntax unified
 1594              	.LBE861:
 1595              	.LBE860:
 422:Drivers/STM32F1xx_HAL_Driver/Inc/stm32f1xx_ll_gpio.h ****              (Speed << (POSITION_VAL(Pin) * 4U)));
 1596              		.loc 2 422 3 view .LVU471
 1597 0386 B7FA87F7 		clz	r7, r7
 1598 038a BF00     		lsls	r7, r7, #2
 1599 038c 04FA07F7 		lsl	r7, r4, r7
 1600 0390 22EA0702 		bic	r2, r2, r7
 1601              	.LVL109:
 1602              	.LBB862:
 1603              	.LBI862:
 981:Drivers/CMSIS/Include/cmsis_gcc.h **** {
 1604              		.loc 3 981 31 is_stmt 1 view .LVU472
 1605              	.LBB863:
 983:Drivers/CMSIS/Include/cmsis_gcc.h **** 
 1606              		.loc 3 983 3 view .LVU473
 988:Drivers/CMSIS/Include/cmsis_gcc.h **** #else
 1607              		.loc 3 988 4 view .LVU474
 1608              		.syntax unified
 1609              	@ 988 "Drivers/CMSIS/Include/cmsis_gcc.h" 1
 1610 0394 93FAA3F7 		rbit r7, r3
 1611              	@ 0 "" 2
 1612              	.LVL110:
 1613              		.loc 3 1001 3 view .LVU475
 1614              		.loc 3 1001 3 is_stmt 0 view .LVU476
 1615              		.thumb
 1616              		.syntax unified
 1617              	.LBE863:
 1618              	.LBE862:
 422:Drivers/STM32F1xx_HAL_Driver/Inc/stm32f1xx_ll_gpio.h ****              (Speed << (POSITION_VAL(Pin) * 4U)));
 1619              		.loc 2 422 3 view .LVU477
 1620 0398 B7FA87F7 		clz	r7, r7
 1621 039c BF00     		lsls	r7, r7, #2
 1622 039e 04FA07F7 		lsl	r7, r4, r7
 1623 03a2 3A43     		orrs	r2, r2, r7
 1624              	.LVL111:
 422:Drivers/STM32F1xx_HAL_Driver/Inc/stm32f1xx_ll_gpio.h ****              (Speed << (POSITION_VAL(Pin) * 4U)));
 1625              		.loc 2 422 3 view .LVU478
 1626              	.LBE859:
 1627              	.LBE858:
  44:App/z80ramm/z80ramm_gpio.c ****     LL_GPIO_SetPinOutputType(RAMM_ADR_PORT, A9_Pin, LL_GPIO_OUTPUT_PUSHPULL);
 1628              		.loc 1 44 5 is_stmt 1 view .LVU479
 1629              	.LBB864:
 1630              	.LBI864:
 493:Drivers/STM32F1xx_HAL_Driver/Inc/stm32f1xx_ll_gpio.h **** {
 1631              		.loc 2 493 22 view .LVU480
 1632              	.LBB865:
 495:Drivers/STM32F1xx_HAL_Driver/Inc/stm32f1xx_ll_gpio.h ****   MODIFY_REG(*pReg, (GPIO_CRL_CNF0_0 << (POSITION_VAL(Pin) * 4U)),
 1633              		.loc 2 495 3 view .LVU481
 1634              		.loc 2 496 3 view .LVU482
 1635              	.LBB866:
 1636              	.LBI866:
 981:Drivers/CMSIS/Include/cmsis_gcc.h **** {
 1637              		.loc 3 981 31 view .LVU483
 1638              	.LBB867:
 983:Drivers/CMSIS/Include/cmsis_gcc.h **** 
ARM GAS  C:\Users\Kaa\AppData\Local\Temp\ccMt5vPx.s 			page 62


 1639              		.loc 3 983 3 view .LVU484
 988:Drivers/CMSIS/Include/cmsis_gcc.h **** #else
 1640              		.loc 3 988 4 view .LVU485
 1641              		.syntax unified
 1642              	@ 988 "Drivers/CMSIS/Include/cmsis_gcc.h" 1
 1643 03a4 93FAA3F7 		rbit r7, r3
 1644              	@ 0 "" 2
 1645              	.LVL112:
 1646              		.loc 3 1001 3 view .LVU486
 1647              		.loc 3 1001 3 is_stmt 0 view .LVU487
 1648              		.thumb
 1649              		.syntax unified
 1650              	.LBE867:
 1651              	.LBE866:
 1652              		.loc 2 496 3 view .LVU488
 1653 03a8 B7FA87F7 		clz	r7, r7
 1654 03ac BF00     		lsls	r7, r7, #2
 1655 03ae 00FA07F7 		lsl	r7, r0, r7
 1656 03b2 22EA0702 		bic	r2, r2, r7
 1657              	.LVL113:
 1658              	.LBB868:
 1659              	.LBI868:
 981:Drivers/CMSIS/Include/cmsis_gcc.h **** {
 1660              		.loc 3 981 31 is_stmt 1 view .LVU489
 1661              	.LBB869:
 983:Drivers/CMSIS/Include/cmsis_gcc.h **** 
 1662              		.loc 3 983 3 view .LVU490
 988:Drivers/CMSIS/Include/cmsis_gcc.h **** #else
 1663              		.loc 3 988 4 view .LVU491
 1664              		.syntax unified
 1665              	@ 988 "Drivers/CMSIS/Include/cmsis_gcc.h" 1
 1666 03b6 93FAA3F3 		rbit r3, r3
 1667              	@ 0 "" 2
 1668              	.LVL114:
 1669              		.loc 3 1001 3 view .LVU492
 1670              		.loc 3 1001 3 is_stmt 0 view .LVU493
 1671              		.thumb
 1672              		.syntax unified
 1673              	.LBE869:
 1674              	.LBE868:
 1675              	.LBE865:
 1676              	.LBE864:
  45:App/z80ramm/z80ramm_gpio.c ****     LL_GPIO_SetPinMode(RAMM_ADR_PORT, A10_Pin, LL_GPIO_MODE_OUTPUT);
 1677              		.loc 1 45 5 is_stmt 1 view .LVU494
 1678              	.LBB870:
 1679              	.LBI870:
 341:Drivers/STM32F1xx_HAL_Driver/Inc/stm32f1xx_ll_gpio.h **** {
 1680              		.loc 2 341 22 view .LVU495
 1681              	.LBB871:
 343:Drivers/STM32F1xx_HAL_Driver/Inc/stm32f1xx_ll_gpio.h ****   MODIFY_REG(*pReg, ((GPIO_CRL_CNF0 | GPIO_CRL_MODE0) << (POSITION_VAL(Pin) * 4U)), (Mode << (POSIT
 1682              		.loc 2 343 3 view .LVU496
 344:Drivers/STM32F1xx_HAL_Driver/Inc/stm32f1xx_ll_gpio.h **** }
 1683              		.loc 2 344 3 view .LVU497
 1684              	.LBB872:
 1685              	.LBI872:
 981:Drivers/CMSIS/Include/cmsis_gcc.h **** {
 1686              		.loc 3 981 31 view .LVU498
ARM GAS  C:\Users\Kaa\AppData\Local\Temp\ccMt5vPx.s 			page 63


 1687              	.LBB873:
 983:Drivers/CMSIS/Include/cmsis_gcc.h **** 
 1688              		.loc 3 983 3 view .LVU499
 988:Drivers/CMSIS/Include/cmsis_gcc.h **** #else
 1689              		.loc 3 988 4 view .LVU500
 1690 03ba 104B     		ldr	r3, .L3+12
 1691              		.syntax unified
 1692              	@ 988 "Drivers/CMSIS/Include/cmsis_gcc.h" 1
 1693 03bc 93FAA3F7 		rbit r7, r3
 1694              	@ 0 "" 2
 1695              	.LVL115:
 1696              		.loc 3 1001 3 view .LVU501
 1697              		.loc 3 1001 3 is_stmt 0 view .LVU502
 1698              		.thumb
 1699              		.syntax unified
 1700              	.LBE873:
 1701              	.LBE872:
 344:Drivers/STM32F1xx_HAL_Driver/Inc/stm32f1xx_ll_gpio.h **** }
 1702              		.loc 2 344 3 view .LVU503
 1703 03c0 B7FA87F7 		clz	r7, r7
 1704 03c4 BF00     		lsls	r7, r7, #2
 1705 03c6 06FA07F7 		lsl	r7, r6, r7
 1706 03ca 22EA0702 		bic	r2, r2, r7
 1707              	.LVL116:
 1708              	.LBB874:
 1709              	.LBI874:
 981:Drivers/CMSIS/Include/cmsis_gcc.h **** {
 1710              		.loc 3 981 31 is_stmt 1 view .LVU504
 1711              	.LBB875:
 983:Drivers/CMSIS/Include/cmsis_gcc.h **** 
 1712              		.loc 3 983 3 view .LVU505
 988:Drivers/CMSIS/Include/cmsis_gcc.h **** #else
 1713              		.loc 3 988 4 view .LVU506
 1714              		.syntax unified
 1715              	@ 988 "Drivers/CMSIS/Include/cmsis_gcc.h" 1
 1716 03ce 93FAA3F7 		rbit r7, r3
 1717              	@ 0 "" 2
 1718              	.LVL117:
 1719              		.loc 3 1001 3 view .LVU507
 1720              		.loc 3 1001 3 is_stmt 0 view .LVU508
 1721              		.thumb
 1722              		.syntax unified
 1723              	.LBE875:
 1724              	.LBE874:
 344:Drivers/STM32F1xx_HAL_Driver/Inc/stm32f1xx_ll_gpio.h **** }
 1725              		.loc 2 344 3 view .LVU509
 1726 03d2 B7FA87F7 		clz	r7, r7
 1727 03d6 BF00     		lsls	r7, r7, #2
 1728 03d8 05FA07F7 		lsl	r7, r5, r7
 1729 03dc 3A43     		orrs	r2, r2, r7
 1730              	.LVL118:
 344:Drivers/STM32F1xx_HAL_Driver/Inc/stm32f1xx_ll_gpio.h **** }
 1731              		.loc 2 344 3 view .LVU510
 1732              	.LBE871:
 1733              	.LBE870:
  46:App/z80ramm/z80ramm_gpio.c ****     LL_GPIO_SetPinSpeed(RAMM_ADR_PORT, A10_Pin, LL_GPIO_SPEED_FREQ_HIGH);
 1734              		.loc 1 46 5 is_stmt 1 view .LVU511
ARM GAS  C:\Users\Kaa\AppData\Local\Temp\ccMt5vPx.s 			page 64


 1735              	.LBB876:
 1736              	.LBI876:
 419:Drivers/STM32F1xx_HAL_Driver/Inc/stm32f1xx_ll_gpio.h **** {
 1737              		.loc 2 419 22 view .LVU512
 1738              	.LBB877:
 421:Drivers/STM32F1xx_HAL_Driver/Inc/stm32f1xx_ll_gpio.h ****   MODIFY_REG(*pReg, (GPIO_CRL_MODE0 << (POSITION_VAL(Pin) * 4U)),
 1739              		.loc 2 421 3 view .LVU513
 422:Drivers/STM32F1xx_HAL_Driver/Inc/stm32f1xx_ll_gpio.h ****              (Speed << (POSITION_VAL(Pin) * 4U)));
 1740              		.loc 2 422 3 view .LVU514
 1741              	.LBB878:
 1742              	.LBI878:
 981:Drivers/CMSIS/Include/cmsis_gcc.h **** {
 1743              		.loc 3 981 31 view .LVU515
 1744              	.LBB879:
 983:Drivers/CMSIS/Include/cmsis_gcc.h **** 
 1745              		.loc 3 983 3 view .LVU516
 988:Drivers/CMSIS/Include/cmsis_gcc.h **** #else
 1746              		.loc 3 988 4 view .LVU517
 1747              		.syntax unified
 1748              	@ 988 "Drivers/CMSIS/Include/cmsis_gcc.h" 1
 1749 03de 93FAA3F7 		rbit r7, r3
 1750              	@ 0 "" 2
 1751              	.LVL119:
 1752              		.loc 3 1001 3 view .LVU518
 1753              		.loc 3 1001 3 is_stmt 0 view .LVU519
 1754              		.thumb
 1755              		.syntax unified
 1756              	.LBE879:
 1757              	.LBE878:
 422:Drivers/STM32F1xx_HAL_Driver/Inc/stm32f1xx_ll_gpio.h ****              (Speed << (POSITION_VAL(Pin) * 4U)));
 1758              		.loc 2 422 3 view .LVU520
 1759 03e2 B7FA87F7 		clz	r7, r7
 1760 03e6 BF00     		lsls	r7, r7, #2
 1761 03e8 04FA07F7 		lsl	r7, r4, r7
 1762 03ec 08E0     		b	.L4
 1763              	.L5:
 1764 03ee 00BF     		.align	2
 1765              	.L3:
 1766 03f0 000C0140 		.word	1073810432
 1767 03f4 01000104 		.word	67174401
 1768 03f8 02000204 		.word	67239938
 1769 03fc 04000404 		.word	67371012
 1770              	.L4:
 1771 0400 22EA0702 		bic	r2, r2, r7
 1772              	.LVL120:
 1773              	.LBB880:
 1774              	.LBI880:
 981:Drivers/CMSIS/Include/cmsis_gcc.h **** {
 1775              		.loc 3 981 31 is_stmt 1 view .LVU521
 1776              	.LBB881:
 983:Drivers/CMSIS/Include/cmsis_gcc.h **** 
 1777              		.loc 3 983 3 view .LVU522
 988:Drivers/CMSIS/Include/cmsis_gcc.h **** #else
 1778              		.loc 3 988 4 view .LVU523
 1779              		.syntax unified
 1780              	@ 988 "Drivers/CMSIS/Include/cmsis_gcc.h" 1
 1781 0404 93FAA3F7 		rbit r7, r3
ARM GAS  C:\Users\Kaa\AppData\Local\Temp\ccMt5vPx.s 			page 65


 1782              	@ 0 "" 2
 1783              	.LVL121:
 1784              		.loc 3 1001 3 view .LVU524
 1785              		.loc 3 1001 3 is_stmt 0 view .LVU525
 1786              		.thumb
 1787              		.syntax unified
 1788              	.LBE881:
 1789              	.LBE880:
 422:Drivers/STM32F1xx_HAL_Driver/Inc/stm32f1xx_ll_gpio.h ****              (Speed << (POSITION_VAL(Pin) * 4U)));
 1790              		.loc 2 422 3 view .LVU526
 1791 0408 B7FA87F7 		clz	r7, r7
 1792 040c BF00     		lsls	r7, r7, #2
 1793 040e 04FA07F7 		lsl	r7, r4, r7
 1794 0412 3A43     		orrs	r2, r2, r7
 1795              	.LVL122:
 422:Drivers/STM32F1xx_HAL_Driver/Inc/stm32f1xx_ll_gpio.h ****              (Speed << (POSITION_VAL(Pin) * 4U)));
 1796              		.loc 2 422 3 view .LVU527
 1797              	.LBE877:
 1798              	.LBE876:
  47:App/z80ramm/z80ramm_gpio.c ****     LL_GPIO_SetPinOutputType(RAMM_ADR_PORT, A10_Pin, LL_GPIO_OUTPUT_PUSHPULL);
 1799              		.loc 1 47 5 is_stmt 1 view .LVU528
 1800              	.LBB882:
 1801              	.LBI882:
 493:Drivers/STM32F1xx_HAL_Driver/Inc/stm32f1xx_ll_gpio.h **** {
 1802              		.loc 2 493 22 view .LVU529
 1803              	.LBB883:
 495:Drivers/STM32F1xx_HAL_Driver/Inc/stm32f1xx_ll_gpio.h ****   MODIFY_REG(*pReg, (GPIO_CRL_CNF0_0 << (POSITION_VAL(Pin) * 4U)),
 1804              		.loc 2 495 3 view .LVU530
 1805              		.loc 2 496 3 view .LVU531
 1806              	.LBB884:
 1807              	.LBI884:
 981:Drivers/CMSIS/Include/cmsis_gcc.h **** {
 1808              		.loc 3 981 31 view .LVU532
 1809              	.LBB885:
 983:Drivers/CMSIS/Include/cmsis_gcc.h **** 
 1810              		.loc 3 983 3 view .LVU533
 988:Drivers/CMSIS/Include/cmsis_gcc.h **** #else
 1811              		.loc 3 988 4 view .LVU534
 1812              		.syntax unified
 1813              	@ 988 "Drivers/CMSIS/Include/cmsis_gcc.h" 1
 1814 0414 93FAA3F7 		rbit r7, r3
 1815              	@ 0 "" 2
 1816              	.LVL123:
 1817              		.loc 3 1001 3 view .LVU535
 1818              		.loc 3 1001 3 is_stmt 0 view .LVU536
 1819              		.thumb
 1820              		.syntax unified
 1821              	.LBE885:
 1822              	.LBE884:
 1823              		.loc 2 496 3 view .LVU537
 1824 0418 B7FA87F7 		clz	r7, r7
 1825 041c BF00     		lsls	r7, r7, #2
 1826 041e 00FA07F7 		lsl	r7, r0, r7
 1827 0422 22EA0702 		bic	r2, r2, r7
 1828              	.LVL124:
 1829              	.LBB886:
 1830              	.LBI886:
ARM GAS  C:\Users\Kaa\AppData\Local\Temp\ccMt5vPx.s 			page 66


 981:Drivers/CMSIS/Include/cmsis_gcc.h **** {
 1831              		.loc 3 981 31 is_stmt 1 view .LVU538
 1832              	.LBB887:
 983:Drivers/CMSIS/Include/cmsis_gcc.h **** 
 1833              		.loc 3 983 3 view .LVU539
 988:Drivers/CMSIS/Include/cmsis_gcc.h **** #else
 1834              		.loc 3 988 4 view .LVU540
 1835              		.syntax unified
 1836              	@ 988 "Drivers/CMSIS/Include/cmsis_gcc.h" 1
 1837 0426 93FAA3F3 		rbit r3, r3
 1838              	@ 0 "" 2
 1839              	.LVL125:
 1840              		.loc 3 1001 3 view .LVU541
 1841              		.loc 3 1001 3 is_stmt 0 view .LVU542
 1842              		.thumb
 1843              		.syntax unified
 1844              	.LBE887:
 1845              	.LBE886:
 1846              	.LBE883:
 1847              	.LBE882:
  48:App/z80ramm/z80ramm_gpio.c ****     LL_GPIO_SetPinMode(RAMM_ADR_PORT, A11_Pin, LL_GPIO_MODE_OUTPUT);
 1848              		.loc 1 48 5 is_stmt 1 view .LVU543
 1849              	.LBB888:
 1850              	.LBI888:
 341:Drivers/STM32F1xx_HAL_Driver/Inc/stm32f1xx_ll_gpio.h **** {
 1851              		.loc 2 341 22 view .LVU544
 1852              	.LBB889:
 343:Drivers/STM32F1xx_HAL_Driver/Inc/stm32f1xx_ll_gpio.h ****   MODIFY_REG(*pReg, ((GPIO_CRL_CNF0 | GPIO_CRL_MODE0) << (POSITION_VAL(Pin) * 4U)), (Mode << (POSIT
 1853              		.loc 2 343 3 view .LVU545
 344:Drivers/STM32F1xx_HAL_Driver/Inc/stm32f1xx_ll_gpio.h **** }
 1854              		.loc 2 344 3 view .LVU546
 1855              	.LBB890:
 1856              	.LBI890:
 981:Drivers/CMSIS/Include/cmsis_gcc.h **** {
 1857              		.loc 3 981 31 view .LVU547
 1858              	.LBB891:
 983:Drivers/CMSIS/Include/cmsis_gcc.h **** 
 1859              		.loc 3 983 3 view .LVU548
 988:Drivers/CMSIS/Include/cmsis_gcc.h **** #else
 1860              		.loc 3 988 4 view .LVU549
 1861 042a 734B     		ldr	r3, .L6
 1862              		.syntax unified
 1863              	@ 988 "Drivers/CMSIS/Include/cmsis_gcc.h" 1
 1864 042c 93FAA3F7 		rbit r7, r3
 1865              	@ 0 "" 2
 1866              	.LVL126:
 1867              		.loc 3 1001 3 view .LVU550
 1868              		.loc 3 1001 3 is_stmt 0 view .LVU551
 1869              		.thumb
 1870              		.syntax unified
 1871              	.LBE891:
 1872              	.LBE890:
 344:Drivers/STM32F1xx_HAL_Driver/Inc/stm32f1xx_ll_gpio.h **** }
 1873              		.loc 2 344 3 view .LVU552
 1874 0430 B7FA87F7 		clz	r7, r7
 1875 0434 BF00     		lsls	r7, r7, #2
 1876 0436 06FA07F7 		lsl	r7, r6, r7
ARM GAS  C:\Users\Kaa\AppData\Local\Temp\ccMt5vPx.s 			page 67


 1877 043a 22EA0702 		bic	r2, r2, r7
 1878              	.LVL127:
 1879              	.LBB892:
 1880              	.LBI892:
 981:Drivers/CMSIS/Include/cmsis_gcc.h **** {
 1881              		.loc 3 981 31 is_stmt 1 view .LVU553
 1882              	.LBB893:
 983:Drivers/CMSIS/Include/cmsis_gcc.h **** 
 1883              		.loc 3 983 3 view .LVU554
 988:Drivers/CMSIS/Include/cmsis_gcc.h **** #else
 1884              		.loc 3 988 4 view .LVU555
 1885              		.syntax unified
 1886              	@ 988 "Drivers/CMSIS/Include/cmsis_gcc.h" 1
 1887 043e 93FAA3F7 		rbit r7, r3
 1888              	@ 0 "" 2
 1889              	.LVL128:
 1890              		.loc 3 1001 3 view .LVU556
 1891              		.loc 3 1001 3 is_stmt 0 view .LVU557
 1892              		.thumb
 1893              		.syntax unified
 1894              	.LBE893:
 1895              	.LBE892:
 344:Drivers/STM32F1xx_HAL_Driver/Inc/stm32f1xx_ll_gpio.h **** }
 1896              		.loc 2 344 3 view .LVU558
 1897 0442 B7FA87F7 		clz	r7, r7
 1898 0446 BF00     		lsls	r7, r7, #2
 1899 0448 05FA07F7 		lsl	r7, r5, r7
 1900 044c 3A43     		orrs	r2, r2, r7
 1901              	.LVL129:
 344:Drivers/STM32F1xx_HAL_Driver/Inc/stm32f1xx_ll_gpio.h **** }
 1902              		.loc 2 344 3 view .LVU559
 1903              	.LBE889:
 1904              	.LBE888:
  49:App/z80ramm/z80ramm_gpio.c ****     LL_GPIO_SetPinSpeed(RAMM_ADR_PORT, A11_Pin, LL_GPIO_SPEED_FREQ_HIGH);
 1905              		.loc 1 49 5 is_stmt 1 view .LVU560
 1906              	.LBB894:
 1907              	.LBI894:
 419:Drivers/STM32F1xx_HAL_Driver/Inc/stm32f1xx_ll_gpio.h **** {
 1908              		.loc 2 419 22 view .LVU561
 1909              	.LBB895:
 421:Drivers/STM32F1xx_HAL_Driver/Inc/stm32f1xx_ll_gpio.h ****   MODIFY_REG(*pReg, (GPIO_CRL_MODE0 << (POSITION_VAL(Pin) * 4U)),
 1910              		.loc 2 421 3 view .LVU562
 422:Drivers/STM32F1xx_HAL_Driver/Inc/stm32f1xx_ll_gpio.h ****              (Speed << (POSITION_VAL(Pin) * 4U)));
 1911              		.loc 2 422 3 view .LVU563
 1912              	.LBB896:
 1913              	.LBI896:
 981:Drivers/CMSIS/Include/cmsis_gcc.h **** {
 1914              		.loc 3 981 31 view .LVU564
 1915              	.LBB897:
 983:Drivers/CMSIS/Include/cmsis_gcc.h **** 
 1916              		.loc 3 983 3 view .LVU565
 988:Drivers/CMSIS/Include/cmsis_gcc.h **** #else
 1917              		.loc 3 988 4 view .LVU566
 1918              		.syntax unified
 1919              	@ 988 "Drivers/CMSIS/Include/cmsis_gcc.h" 1
 1920 044e 93FAA3F7 		rbit r7, r3
 1921              	@ 0 "" 2
ARM GAS  C:\Users\Kaa\AppData\Local\Temp\ccMt5vPx.s 			page 68


 1922              	.LVL130:
 1923              		.loc 3 1001 3 view .LVU567
 1924              		.loc 3 1001 3 is_stmt 0 view .LVU568
 1925              		.thumb
 1926              		.syntax unified
 1927              	.LBE897:
 1928              	.LBE896:
 422:Drivers/STM32F1xx_HAL_Driver/Inc/stm32f1xx_ll_gpio.h ****              (Speed << (POSITION_VAL(Pin) * 4U)));
 1929              		.loc 2 422 3 view .LVU569
 1930 0452 B7FA87F7 		clz	r7, r7
 1931 0456 BF00     		lsls	r7, r7, #2
 1932 0458 04FA07F7 		lsl	r7, r4, r7
 1933 045c 22EA0702 		bic	r2, r2, r7
 1934              	.LVL131:
 1935              	.LBB898:
 1936              	.LBI898:
 981:Drivers/CMSIS/Include/cmsis_gcc.h **** {
 1937              		.loc 3 981 31 is_stmt 1 view .LVU570
 1938              	.LBB899:
 983:Drivers/CMSIS/Include/cmsis_gcc.h **** 
 1939              		.loc 3 983 3 view .LVU571
 988:Drivers/CMSIS/Include/cmsis_gcc.h **** #else
 1940              		.loc 3 988 4 view .LVU572
 1941              		.syntax unified
 1942              	@ 988 "Drivers/CMSIS/Include/cmsis_gcc.h" 1
 1943 0460 93FAA3F7 		rbit r7, r3
 1944              	@ 0 "" 2
 1945              	.LVL132:
 1946              		.loc 3 1001 3 view .LVU573
 1947              		.loc 3 1001 3 is_stmt 0 view .LVU574
 1948              		.thumb
 1949              		.syntax unified
 1950              	.LBE899:
 1951              	.LBE898:
 422:Drivers/STM32F1xx_HAL_Driver/Inc/stm32f1xx_ll_gpio.h ****              (Speed << (POSITION_VAL(Pin) * 4U)));
 1952              		.loc 2 422 3 view .LVU575
 1953 0464 B7FA87F7 		clz	r7, r7
 1954 0468 BF00     		lsls	r7, r7, #2
 1955 046a 04FA07F7 		lsl	r7, r4, r7
 1956 046e 3A43     		orrs	r2, r2, r7
 1957              	.LVL133:
 422:Drivers/STM32F1xx_HAL_Driver/Inc/stm32f1xx_ll_gpio.h ****              (Speed << (POSITION_VAL(Pin) * 4U)));
 1958              		.loc 2 422 3 view .LVU576
 1959              	.LBE895:
 1960              	.LBE894:
  50:App/z80ramm/z80ramm_gpio.c ****     LL_GPIO_SetPinOutputType(RAMM_ADR_PORT, A11_Pin, LL_GPIO_OUTPUT_PUSHPULL);
 1961              		.loc 1 50 5 is_stmt 1 view .LVU577
 1962              	.LBB900:
 1963              	.LBI900:
 493:Drivers/STM32F1xx_HAL_Driver/Inc/stm32f1xx_ll_gpio.h **** {
 1964              		.loc 2 493 22 view .LVU578
 1965              	.LBB901:
 495:Drivers/STM32F1xx_HAL_Driver/Inc/stm32f1xx_ll_gpio.h ****   MODIFY_REG(*pReg, (GPIO_CRL_CNF0_0 << (POSITION_VAL(Pin) * 4U)),
 1966              		.loc 2 495 3 view .LVU579
 1967              		.loc 2 496 3 view .LVU580
 1968              	.LBB902:
 1969              	.LBI902:
ARM GAS  C:\Users\Kaa\AppData\Local\Temp\ccMt5vPx.s 			page 69


 981:Drivers/CMSIS/Include/cmsis_gcc.h **** {
 1970              		.loc 3 981 31 view .LVU581
 1971              	.LBB903:
 983:Drivers/CMSIS/Include/cmsis_gcc.h **** 
 1972              		.loc 3 983 3 view .LVU582
 988:Drivers/CMSIS/Include/cmsis_gcc.h **** #else
 1973              		.loc 3 988 4 view .LVU583
 1974              		.syntax unified
 1975              	@ 988 "Drivers/CMSIS/Include/cmsis_gcc.h" 1
 1976 0470 93FAA3F7 		rbit r7, r3
 1977              	@ 0 "" 2
 1978              	.LVL134:
 1979              		.loc 3 1001 3 view .LVU584
 1980              		.loc 3 1001 3 is_stmt 0 view .LVU585
 1981              		.thumb
 1982              		.syntax unified
 1983              	.LBE903:
 1984              	.LBE902:
 1985              		.loc 2 496 3 view .LVU586
 1986 0474 B7FA87F7 		clz	r7, r7
 1987 0478 BF00     		lsls	r7, r7, #2
 1988 047a 00FA07F7 		lsl	r7, r0, r7
 1989 047e 22EA0702 		bic	r2, r2, r7
 1990              	.LVL135:
 1991              	.LBB904:
 1992              	.LBI904:
 981:Drivers/CMSIS/Include/cmsis_gcc.h **** {
 1993              		.loc 3 981 31 is_stmt 1 view .LVU587
 1994              	.LBB905:
 983:Drivers/CMSIS/Include/cmsis_gcc.h **** 
 1995              		.loc 3 983 3 view .LVU588
 988:Drivers/CMSIS/Include/cmsis_gcc.h **** #else
 1996              		.loc 3 988 4 view .LVU589
 1997              		.syntax unified
 1998              	@ 988 "Drivers/CMSIS/Include/cmsis_gcc.h" 1
 1999 0482 93FAA3F3 		rbit r3, r3
 2000              	@ 0 "" 2
 2001              	.LVL136:
 2002              		.loc 3 1001 3 view .LVU590
 2003              		.loc 3 1001 3 is_stmt 0 view .LVU591
 2004              		.thumb
 2005              		.syntax unified
 2006              	.LBE905:
 2007              	.LBE904:
 2008              	.LBE901:
 2009              	.LBE900:
  51:App/z80ramm/z80ramm_gpio.c ****     LL_GPIO_SetPinMode(RAMM_ADR_PORT, A12_Pin, LL_GPIO_MODE_OUTPUT);
 2010              		.loc 1 51 5 is_stmt 1 view .LVU592
 2011              	.LBB906:
 2012              	.LBI906:
 341:Drivers/STM32F1xx_HAL_Driver/Inc/stm32f1xx_ll_gpio.h **** {
 2013              		.loc 2 341 22 view .LVU593
 2014              	.LBB907:
 343:Drivers/STM32F1xx_HAL_Driver/Inc/stm32f1xx_ll_gpio.h ****   MODIFY_REG(*pReg, ((GPIO_CRL_CNF0 | GPIO_CRL_MODE0) << (POSITION_VAL(Pin) * 4U)), (Mode << (POSIT
 2015              		.loc 2 343 3 view .LVU594
 344:Drivers/STM32F1xx_HAL_Driver/Inc/stm32f1xx_ll_gpio.h **** }
 2016              		.loc 2 344 3 view .LVU595
ARM GAS  C:\Users\Kaa\AppData\Local\Temp\ccMt5vPx.s 			page 70


 2017              	.LBB908:
 2018              	.LBI908:
 981:Drivers/CMSIS/Include/cmsis_gcc.h **** {
 2019              		.loc 3 981 31 view .LVU596
 2020              	.LBB909:
 983:Drivers/CMSIS/Include/cmsis_gcc.h **** 
 2021              		.loc 3 983 3 view .LVU597
 988:Drivers/CMSIS/Include/cmsis_gcc.h **** #else
 2022              		.loc 3 988 4 view .LVU598
 2023 0486 5D4B     		ldr	r3, .L6+4
 2024              		.syntax unified
 2025              	@ 988 "Drivers/CMSIS/Include/cmsis_gcc.h" 1
 2026 0488 93FAA3F7 		rbit r7, r3
 2027              	@ 0 "" 2
 2028              	.LVL137:
 2029              		.loc 3 1001 3 view .LVU599
 2030              		.loc 3 1001 3 is_stmt 0 view .LVU600
 2031              		.thumb
 2032              		.syntax unified
 2033              	.LBE909:
 2034              	.LBE908:
 344:Drivers/STM32F1xx_HAL_Driver/Inc/stm32f1xx_ll_gpio.h **** }
 2035              		.loc 2 344 3 view .LVU601
 2036 048c B7FA87F7 		clz	r7, r7
 2037 0490 BF00     		lsls	r7, r7, #2
 2038 0492 06FA07F7 		lsl	r7, r6, r7
 2039 0496 22EA0702 		bic	r2, r2, r7
 2040              	.LVL138:
 2041              	.LBB910:
 2042              	.LBI910:
 981:Drivers/CMSIS/Include/cmsis_gcc.h **** {
 2043              		.loc 3 981 31 is_stmt 1 view .LVU602
 2044              	.LBB911:
 983:Drivers/CMSIS/Include/cmsis_gcc.h **** 
 2045              		.loc 3 983 3 view .LVU603
 988:Drivers/CMSIS/Include/cmsis_gcc.h **** #else
 2046              		.loc 3 988 4 view .LVU604
 2047              		.syntax unified
 2048              	@ 988 "Drivers/CMSIS/Include/cmsis_gcc.h" 1
 2049 049a 93FAA3F7 		rbit r7, r3
 2050              	@ 0 "" 2
 2051              	.LVL139:
 2052              		.loc 3 1001 3 view .LVU605
 2053              		.loc 3 1001 3 is_stmt 0 view .LVU606
 2054              		.thumb
 2055              		.syntax unified
 2056              	.LBE911:
 2057              	.LBE910:
 344:Drivers/STM32F1xx_HAL_Driver/Inc/stm32f1xx_ll_gpio.h **** }
 2058              		.loc 2 344 3 view .LVU607
 2059 049e B7FA87F7 		clz	r7, r7
 2060 04a2 BF00     		lsls	r7, r7, #2
 2061 04a4 05FA07F7 		lsl	r7, r5, r7
 2062 04a8 3A43     		orrs	r2, r2, r7
 2063              	.LVL140:
 344:Drivers/STM32F1xx_HAL_Driver/Inc/stm32f1xx_ll_gpio.h **** }
 2064              		.loc 2 344 3 view .LVU608
ARM GAS  C:\Users\Kaa\AppData\Local\Temp\ccMt5vPx.s 			page 71


 2065              	.LBE907:
 2066              	.LBE906:
  52:App/z80ramm/z80ramm_gpio.c ****     LL_GPIO_SetPinSpeed(RAMM_ADR_PORT, A12_Pin, LL_GPIO_SPEED_FREQ_HIGH);
 2067              		.loc 1 52 5 is_stmt 1 view .LVU609
 2068              	.LBB912:
 2069              	.LBI912:
 419:Drivers/STM32F1xx_HAL_Driver/Inc/stm32f1xx_ll_gpio.h **** {
 2070              		.loc 2 419 22 view .LVU610
 2071              	.LBB913:
 421:Drivers/STM32F1xx_HAL_Driver/Inc/stm32f1xx_ll_gpio.h ****   MODIFY_REG(*pReg, (GPIO_CRL_MODE0 << (POSITION_VAL(Pin) * 4U)),
 2072              		.loc 2 421 3 view .LVU611
 422:Drivers/STM32F1xx_HAL_Driver/Inc/stm32f1xx_ll_gpio.h ****              (Speed << (POSITION_VAL(Pin) * 4U)));
 2073              		.loc 2 422 3 view .LVU612
 2074              	.LBB914:
 2075              	.LBI914:
 981:Drivers/CMSIS/Include/cmsis_gcc.h **** {
 2076              		.loc 3 981 31 view .LVU613
 2077              	.LBB915:
 983:Drivers/CMSIS/Include/cmsis_gcc.h **** 
 2078              		.loc 3 983 3 view .LVU614
 988:Drivers/CMSIS/Include/cmsis_gcc.h **** #else
 2079              		.loc 3 988 4 view .LVU615
 2080              		.syntax unified
 2081              	@ 988 "Drivers/CMSIS/Include/cmsis_gcc.h" 1
 2082 04aa 93FAA3F7 		rbit r7, r3
 2083              	@ 0 "" 2
 2084              	.LVL141:
 2085              		.loc 3 1001 3 view .LVU616
 2086              		.loc 3 1001 3 is_stmt 0 view .LVU617
 2087              		.thumb
 2088              		.syntax unified
 2089              	.LBE915:
 2090              	.LBE914:
 422:Drivers/STM32F1xx_HAL_Driver/Inc/stm32f1xx_ll_gpio.h ****              (Speed << (POSITION_VAL(Pin) * 4U)));
 2091              		.loc 2 422 3 view .LVU618
 2092 04ae B7FA87F7 		clz	r7, r7
 2093 04b2 BF00     		lsls	r7, r7, #2
 2094 04b4 04FA07F7 		lsl	r7, r4, r7
 2095 04b8 22EA0702 		bic	r2, r2, r7
 2096              	.LVL142:
 2097              	.LBB916:
 2098              	.LBI916:
 981:Drivers/CMSIS/Include/cmsis_gcc.h **** {
 2099              		.loc 3 981 31 is_stmt 1 view .LVU619
 2100              	.LBB917:
 983:Drivers/CMSIS/Include/cmsis_gcc.h **** 
 2101              		.loc 3 983 3 view .LVU620
 988:Drivers/CMSIS/Include/cmsis_gcc.h **** #else
 2102              		.loc 3 988 4 view .LVU621
 2103              		.syntax unified
 2104              	@ 988 "Drivers/CMSIS/Include/cmsis_gcc.h" 1
 2105 04bc 93FAA3F7 		rbit r7, r3
 2106              	@ 0 "" 2
 2107              	.LVL143:
 2108              		.loc 3 1001 3 view .LVU622
 2109              		.loc 3 1001 3 is_stmt 0 view .LVU623
 2110              		.thumb
ARM GAS  C:\Users\Kaa\AppData\Local\Temp\ccMt5vPx.s 			page 72


 2111              		.syntax unified
 2112              	.LBE917:
 2113              	.LBE916:
 422:Drivers/STM32F1xx_HAL_Driver/Inc/stm32f1xx_ll_gpio.h ****              (Speed << (POSITION_VAL(Pin) * 4U)));
 2114              		.loc 2 422 3 view .LVU624
 2115 04c0 B7FA87F7 		clz	r7, r7
 2116 04c4 BF00     		lsls	r7, r7, #2
 2117 04c6 04FA07F7 		lsl	r7, r4, r7
 2118 04ca 3A43     		orrs	r2, r2, r7
 2119              	.LVL144:
 422:Drivers/STM32F1xx_HAL_Driver/Inc/stm32f1xx_ll_gpio.h ****              (Speed << (POSITION_VAL(Pin) * 4U)));
 2120              		.loc 2 422 3 view .LVU625
 2121              	.LBE913:
 2122              	.LBE912:
  53:App/z80ramm/z80ramm_gpio.c ****     LL_GPIO_SetPinOutputType(RAMM_ADR_PORT, A12_Pin, LL_GPIO_OUTPUT_PUSHPULL);
 2123              		.loc 1 53 5 is_stmt 1 view .LVU626
 2124              	.LBB918:
 2125              	.LBI918:
 493:Drivers/STM32F1xx_HAL_Driver/Inc/stm32f1xx_ll_gpio.h **** {
 2126              		.loc 2 493 22 view .LVU627
 2127              	.LBB919:
 495:Drivers/STM32F1xx_HAL_Driver/Inc/stm32f1xx_ll_gpio.h ****   MODIFY_REG(*pReg, (GPIO_CRL_CNF0_0 << (POSITION_VAL(Pin) * 4U)),
 2128              		.loc 2 495 3 view .LVU628
 2129              		.loc 2 496 3 view .LVU629
 2130              	.LBB920:
 2131              	.LBI920:
 981:Drivers/CMSIS/Include/cmsis_gcc.h **** {
 2132              		.loc 3 981 31 view .LVU630
 2133              	.LBB921:
 983:Drivers/CMSIS/Include/cmsis_gcc.h **** 
 2134              		.loc 3 983 3 view .LVU631
 988:Drivers/CMSIS/Include/cmsis_gcc.h **** #else
 2135              		.loc 3 988 4 view .LVU632
 2136              		.syntax unified
 2137              	@ 988 "Drivers/CMSIS/Include/cmsis_gcc.h" 1
 2138 04cc 93FAA3F7 		rbit r7, r3
 2139              	@ 0 "" 2
 2140              	.LVL145:
 2141              		.loc 3 1001 3 view .LVU633
 2142              		.loc 3 1001 3 is_stmt 0 view .LVU634
 2143              		.thumb
 2144              		.syntax unified
 2145              	.LBE921:
 2146              	.LBE920:
 2147              		.loc 2 496 3 view .LVU635
 2148 04d0 B7FA87F7 		clz	r7, r7
 2149 04d4 BF00     		lsls	r7, r7, #2
 2150 04d6 00FA07F7 		lsl	r7, r0, r7
 2151 04da 22EA0702 		bic	r2, r2, r7
 2152              	.LVL146:
 2153              	.LBB922:
 2154              	.LBI922:
 981:Drivers/CMSIS/Include/cmsis_gcc.h **** {
 2155              		.loc 3 981 31 is_stmt 1 view .LVU636
 2156              	.LBB923:
 983:Drivers/CMSIS/Include/cmsis_gcc.h **** 
 2157              		.loc 3 983 3 view .LVU637
ARM GAS  C:\Users\Kaa\AppData\Local\Temp\ccMt5vPx.s 			page 73


 988:Drivers/CMSIS/Include/cmsis_gcc.h **** #else
 2158              		.loc 3 988 4 view .LVU638
 2159              		.syntax unified
 2160              	@ 988 "Drivers/CMSIS/Include/cmsis_gcc.h" 1
 2161 04de 93FAA3F3 		rbit r3, r3
 2162              	@ 0 "" 2
 2163              	.LVL147:
 2164              		.loc 3 1001 3 view .LVU639
 2165              		.loc 3 1001 3 is_stmt 0 view .LVU640
 2166              		.thumb
 2167              		.syntax unified
 2168              	.LBE923:
 2169              	.LBE922:
 2170              	.LBE919:
 2171              	.LBE918:
  54:App/z80ramm/z80ramm_gpio.c ****     LL_GPIO_SetPinMode(RAMM_ADR_PORT, A13_Pin, LL_GPIO_MODE_OUTPUT);
 2172              		.loc 1 54 5 is_stmt 1 view .LVU641
